0:abort
1:setTempRet0
2:getTempRet0
3:invoke_ii
4:invoke_iii
5:invoke_v
6:invoke_vii
7:___buildEnvironment
8:___cxa_allocate_exception
9:___cxa_pure_virtual
10:___cxa_throw
11:___lock
12:___setErrNo
13:___syscall140
14:___syscall145
15:___syscall146
16:___syscall192
17:___syscall195
18:___syscall20
19:___syscall221
20:___syscall5
21:___syscall54
22:___syscall6
23:___syscall91
24:___unlock
25:_abort
26:_atexit
27:_clock_gettime
28:_emscripten_get_heap_size
29:_emscripten_memcpy_big
30:_emscripten_resize_heap
31:_exit
32:_getenv
33:_getpagesize
34:_gettimeofday
35:_llvm_log10_f64
36:_llvm_log2_f64
37:_llvm_trap
38:_llvm_trunc_f64
39:_localtime_r
40:_longjmp
41:_mktime
42:_pthread_attr_destroy
43:_pthread_attr_getstack
44:_pthread_attr_init
45:_pthread_cond_destroy
46:_pthread_cond_init
47:_pthread_cond_signal
48:_pthread_cond_timedwait
49:_pthread_cond_wait
50:_pthread_create
51:_pthread_detach
52:_pthread_getattr_np
53:_pthread_join
54:_pthread_mutexattr_destroy
55:_pthread_mutexattr_init
56:_pthread_mutexattr_settype
57:_sched_yield
58:_sem_destroy
59:_sem_init
60:_strftime
61:_time
62:_tzset
63:abortOnCannotGrowMemory
64:f64-rem
65:__growWasmMemory
66:stackAlloc
67:stackSave
68:stackRestore
69:establishStackSpace
70:__ZN3JSC20StringSourceProviderD2Ev
71:__ZN3JSC20StringSourceProviderD0Ev
72:__ZNK3JSC20StringSourceProvider4hashEv
73:__ZNK3JSC20StringSourceProvider6sourceEv
74:__ZN3JSC21JSCallbackConstructor7destroyEPNS_6JSCellE
75:__ZN3JSC21JSCallbackConstructor16getConstructDataEPNS_6JSCellERNS_13ConstructDataE
76:__ZN3JSC8JSObject18getOwnPropertySlotEPS0_PNS_9ExecStateENS_12PropertyNameERNS_12PropertySlotE
77:__ZN3JSC6JSCell22visitOutputConstraintsEPS0_RNS_11SlotVisitorE
78:__ZN3JSC19APICallbackFunction9constructINS_21JSCallbackConstructorEEExPNS_9ExecStateE
79:__ZN3JSC18JSCallbackFunction11getCallDataEPNS_6JSCellERNS_8CallDataE
80:__ZN3JSC19APICallbackFunction4callINS_18JSCallbackFunctionEEExPNS_9ExecStateE
81:__ZN3JSC18JSCallbackFunction6createERNS_2VMEPNS_14JSGlobalObjectEPFPK13OpaqueJSValuePK15OpaqueJSContextPS5_SB_mPKS7_PS7_ERKN3WTF6StringE
82:__ZN3JSC16JSCallbackObjectINS_20JSDestructibleObjectEE7destroyEPNS_6JSCellE
83:__ZN3JSC16JSCallbackObjectINS_20JSDestructibleObjectEE13visitChildrenEPNS_6JSCellERNS_11SlotVisitorE
84:__ZN3JSC16JSCallbackObjectINS_20JSDestructibleObjectEE11getCallDataEPNS_6JSCellERNS_8CallDataE
85:__ZN3JSC16JSCallbackObjectINS_20JSDestructibleObjectEE16getConstructDataEPNS_6JSCellERNS_13ConstructDataE
86:__ZN3JSC16JSCallbackObjectINS_20JSDestructibleObjectEE3putEPNS_6JSCellEPNS_9ExecStateENS_12PropertyNameENS_7JSValueERNS_15PutPropertySlotE
87:__ZN3JSC16JSCallbackObjectINS_20JSDestructibleObjectEE10putByIndexEPNS_6JSCellEPNS_9ExecStateEjNS_7JSValueEb
88:__ZN3JSC16JSCallbackObjectINS_20JSDestructibleObjectEE14deletePropertyEPNS_6JSCellEPNS_9ExecStateENS_12PropertyNameE
89:__ZN3JSC16JSCallbackObjectINS_20JSDestructibleObjectEE21deletePropertyByIndexEPNS_6JSCellEPNS_9ExecStateEj
90:__ZN3JSC16JSCallbackObjectINS_20JSDestructibleObjectEE18getOwnPropertySlotEPNS_8JSObjectEPNS_9ExecStateENS_12PropertyNameERNS_12PropertySlotE
91:__ZN3JSC16JSCallbackObjectINS_20JSDestructibleObjectEE25getOwnPropertySlotByIndexEPNS_8JSObjectEPNS_9ExecStateEjRNS_12PropertySlotE
92:__ZN3JSC16JSCallbackObjectINS_20JSDestructibleObjectEE12defaultValueEPKNS_8JSObjectEPNS_9ExecStateENS_22PreferredPrimitiveTypeE
93:__ZN3JSC16JSCallbackObjectINS_20JSDestructibleObjectEE27getOwnNonIndexPropertyNamesEPNS_8JSObjectEPNS_9ExecStateERNS_17PropertyNameArrayENS_15EnumerationModeE
94:__ZN3JSC16JSCallbackObjectINS_20JSDestructibleObjectEE9classNameEPKNS_8JSObjectE
95:__ZN3JSC16JSCallbackObjectINS_20JSDestructibleObjectEE17customHasInstanceEPNS_8JSObjectEPNS_9ExecStateENS_7JSValueE
96:__ZN3WTF9HashTableIPNS_17UniquedStringImplES2_NS_17IdentityExtractorENS_7PtrHashIS2_EENS_10HashTraitsIS2_EES7_E3addEOS2_
97:__ZN3WTF6VectorIN3JSC10IdentifierELm20ENS_15CrashOnOverflowELm16EE6appendEOS2_
98:__ZN3WTF9HashTableIPNS_17UniquedStringImplES2_NS_17IdentityExtractorENS_7PtrHashIS2_EENS_10HashTraitsIS2_EES7_E6rehashEjPS2_
99:__ZN3JSC16JSCallbackObjectINS_20JSDestructibleObjectEE14callbackGetterEPNS_9ExecStateExNS_12PropertyNameE
100:__ZN3JSC16JSCallbackObjectINS_20JSDestructibleObjectEE14getStaticValueEPNS_9ExecStateENS_12PropertyNameE
101:__ZN3JSC16JSCallbackObjectINS_20JSDestructibleObjectEE20staticFunctionGetterEPNS_9ExecStateExNS_12PropertyNameE
102:__ZN3JSC8JSObject17putDirectInternalILNS0_7PutModeE1EEEbRNS_2VMENS_12PropertyNameENS_7JSValueEjRNS_15PutPropertySlotE
103:__ZN3JSC9Structure18didReplacePropertyEi
104:__ZN3JSC9Structure3addILNS0_9ShouldPinE1EZNS_8JSObject35prepareToPutDirectWithoutTransitionERNS_2VMENS_12PropertyNameEjPS0_S7_EUlRKNS_24GCSafeConcurrentJSLockerEiiE_EEiS5_S6_jRKT0_
105:__ZN3JSC9Structure16checkConsistencyEv
106:__ZN3JSC13PropertyTable3addERKNS_16PropertyMapEntryERiNS0_22EffectOnPropertyOffsetE
107:__ZZN3JSC8JSObject35prepareToPutDirectWithoutTransitionERNS_2VMENS_12PropertyNameEjPNS_9StructureES5_ENKUlRKNS_24GCSafeConcurrentJSLockerEiiE_clES8_ii
108:__ZN3JSC13PropertyTable6rehashEj
109:__ZZNK3JSC9Structure22checkOffsetConsistencyIZNKS0_22checkOffsetConsistencyEvEUlvE_EEbPNS_13PropertyTableERKT_ENKUlPKcE_clES9_
110:__ZN3WTF7dataLogIJA30_cmA2_cEEEvDpRKT_
111:__ZN3WTF7dataLogIJA13_cjA2_cEEEvDpRKT_
112:__ZN3WTF7dataLogIJA38_cjA2_cEEEvDpRKT_
113:__ZN3WTF7dataLogIJA39_cmA2_cEEEvDpRKT_
114:__ZN3JSC16JSCallbackObjectINS_20JSDestructibleObjectEE9constructEPNS_9ExecStateE
115:__ZN3JSC16JSCallbackObjectINS_20JSDestructibleObjectEE4callEPNS_9ExecStateE
116:__ZN3JSC20JSCallbackObjectData20JSPrivatePropertyMap13visitChildrenERNS_11SlotVisitorE
117:__ZN3JSC16JSCallbackObjectINS_20JSDestructibleObjectEED2Ev
118:__ZN3JSC20JSCallbackObjectDataD2Ev
119:__ZN3JSC20JSCallbackObjectDataC2EPvP13OpaqueJSClass
120:__ZN3JSC16JSCallbackObjectINS_20JSDestructibleObjectEE15createStructureERNS_2VMEPNS_14JSGlobalObjectENS_7JSValueE
121:__ZN3WTF12KeyValuePairINS_6RefPtrINS_10StringImplEEENSt3__210unique_ptrI16StaticValueEntryNS4_14default_deleteIS6_EEEEED2Ev
122:__ZN3WTF9HashTableINS_6RefPtrINS_10StringImplEEENS_12KeyValuePairIS3_NSt3__210unique_ptrI19StaticFunctionEntryNS5_14default_deleteIS7_EEEEEENS_24KeyValuePairKeyExtractorISB_EENS_10StringHashENS_7HashMapIS3_SA_SE_NS_10HashTraitsIS3_EENSG_ISA_EEE18KeyValuePairTraitsESH_E6rehashEjPSB_
123:__ZN3WTF9HashTableINS_6RefPtrINS_10StringImplEEENS_12KeyValuePairIS3_NSt3__210unique_ptrI19StaticFunctionEntryNS5_14default_deleteIS7_EEEEEENS_24KeyValuePairKeyExtractorISB_EENS_10StringHashENS_7HashMapIS3_SA_SE_NS_10HashTraitsIS3_EENSG_ISA_EEE18KeyValuePairTraitsESH_E8reinsertEOSB_
124:__ZN3WTF9HashTableINS_6RefPtrINS_10StringImplEEENS_12KeyValuePairIS3_NSt3__210unique_ptrI16StaticValueEntryNS5_14default_deleteIS7_EEEEEENS_24KeyValuePairKeyExtractorISB_EENS_10StringHashENS_7HashMapIS3_SA_SE_NS_10HashTraitsIS3_EENSG_ISA_EEE18KeyValuePairTraitsESH_E8reinsertEOSB_
125:__ZN3WTF17HashMapTranslatorINS_7HashMapINS_6RefPtrINS_10StringImplEEENSt3__210unique_ptrI16StaticValueEntryNS5_14default_deleteIS7_EEEENS_10StringHashENS_10HashTraitsIS4_EENSC_ISA_EEE18KeyValuePairTraitsESB_E9translateINS_12KeyValuePairIS4_SA_EES4_SA_EEvRT_OT0_OT1_
126:__ZN13OpaqueJSClassD2Ev
127:__ZN24OpaqueJSClassContextDataC2ERN3JSC2VMEP13OpaqueJSClass
128:__ZN3WTF7HashMapINS_6RefPtrINS_10StringImplEEENSt3__210unique_ptrI16StaticValueEntryNS4_14default_deleteIS6_EEEENS_10StringHashENS_10HashTraitsIS3_EENSB_IS9_EEE3addIS9_EENS_18HashTableAddResultINS_17HashTableIteratorIS3_NS_12KeyValuePairIS3_S9_EENS_24KeyValuePairKeyExtractorISJ_EESA_NSE_18KeyValuePairTraitsESC_EEEEOS3_OT_
129:__ZN3WTF7HashMapINS_6RefPtrINS_10StringImplEEENSt3__210unique_ptrI19StaticFunctionEntryNS4_14default_deleteIS6_EEEENS_10StringHashENS_10HashTraitsIS3_EENSB_IS9_EEE3addIS9_EENS_18HashTableAddResultINS_17HashTableIteratorIS3_NS_12KeyValuePairIS3_S9_EENS_24KeyValuePairKeyExtractorISJ_EESA_NSE_18KeyValuePairTraitsESC_EEEEOS3_OT_
130:__ZN13OpaqueJSClass11contextDataEPN3JSC9ExecStateE
131:__ZN3JSC14JSGlobalObject22createRareDataIfNeededEv
132:__ZN3WTF7HashMapIP13OpaqueJSClassNSt3__210unique_ptrI24OpaqueJSClassContextDataNS3_14default_deleteIS5_EEEENS_7PtrHashIS2_EENS_10HashTraitsIS2_EENSB_IS8_EEE3addIDnEENS_18HashTableAddResultINS_17HashTableIteratorIS2_NS_12KeyValuePairIS2_S8_EENS_24KeyValuePairKeyExtractorISJ_EESA_NSE_18KeyValuePairTraitsESC_EEEEOS2_OT_
133:__ZN24OpaqueJSClassContextDataD2Ev
134:__ZN3WTF9HashTableIP13OpaqueJSClassNS_12KeyValuePairIS2_NSt3__210unique_ptrI24OpaqueJSClassContextDataNS4_14default_deleteIS6_EEEEEENS_24KeyValuePairKeyExtractorISA_EENS_7PtrHashIS2_EENS_7HashMapIS2_S9_SE_NS_10HashTraitsIS2_EENSG_IS9_EEE18KeyValuePairTraitsESH_E6rehashEjPSA_
135:__ZN3WTF9HashTableIP13OpaqueJSClassNS_12KeyValuePairIS2_NSt3__210unique_ptrI24OpaqueJSClassContextDataNS4_14default_deleteIS6_EEEEEENS_24KeyValuePairKeyExtractorISA_EENS_7PtrHashIS2_EENS_7HashMapIS2_S9_SE_NS_10HashTraitsIS2_EENSG_IS9_EEE18KeyValuePairTraitsESH_ED2Ev
136:__ZN21OpaqueJSWeakObjectMapD2Ev
137:__ZN13OpaqueJSClass12staticValuesEPN3JSC9ExecStateE
138:__ZN13OpaqueJSClass15staticFunctionsEPN3JSC9ExecStateE
139:__ZN13OpaqueJSClass9prototypeEPN3JSC9ExecStateE
140:__ZN3JSC16JSCallbackObjectINS_20JSDestructibleObjectEEC2EPNS_9ExecStateEPNS_9StructureEP13OpaqueJSClassPv
141:__ZN3JSC16JSCallbackObjectINS_20JSDestructibleObjectEE4initEPNS_9ExecStateE
142:__ZN3WTF13StringBuilder6appendERKNS_6StringE
143:_JSClassRelease
144:_JSObjectMake
145:__ZN3JSC8jsStringEPNS_2VMERKN3WTF6StringE
146:__ZN3WTF7HashSetIPN3JSC20MarkedArgumentBufferENS_7PtrHashIS3_EENS_10HashTraitsIS3_EEE6removeERKS3_
147:__ZN3JSC8JSString6createERNS_2VMEON3WTF3RefINS3_10StringImplEEE
148:__ZN3JSC8JSObject15initializeIndexERNS_2VMEjNS_7JSValueE
149:__ZN3JSC7JSArray9tryCreateERNS_2VMEPNS_9StructureEj
150:__ZNK3JSC8JSObject3getEPNS_9ExecStateENS_12PropertyNameE
151:__ZNK3JSC8JSObject3getEPNS_9ExecStateEj
152:__ZN3JSC17PropertyNameArrayD2Ev
153:__ZN3JSC5parseINS_11ProgramNodeEEENSt3__210unique_ptrIT_NS2_14default_deleteIS4_EEEEPNS_2VMERKNS_10SourceCodeERKNS_10IdentifierENS_19JSParserBuiltinModeENS_18JSParserStrictModeENS_18JSParserScriptModeENS_15SourceParseModeENS_12SuperBindingERNS_11ParserErrorEPNS_14JSTextPositionENS_15ConstructorKindENS_18DerivedContextTypeENS_15EvalContextTypeEPNS_17DebuggerParseDataE
154:__ZN3JSC6ParserINS_5LexerIhEEE5parseINS_11ProgramNodeEEENSt3__210unique_ptrIT_NS6_14default_deleteIS8_EEEERNS_11ParserErrorERKNS_10IdentifierENS_15SourceParseModeE
155:__ZN3JSC6ParserINS_5LexerItEEE5parseINS_11ProgramNodeEEENSt3__210unique_ptrIT_NS6_14default_deleteIS8_EEEERNS_11ParserErrorERKNS_10IdentifierENS_15SourceParseModeE
156:__ZN3JSC5Scope51computeLexicallyCapturedVariablesAndPurgeCandidatesEv
157:__ZNK3WTF20DeferrableRefCountedIN3JSC11ArrayBufferEE5derefEv
158:__ZN3JSC23JSGenericTypedArrayViewINS_11Int8AdaptorEE6createEPNS_9ExecStateEPNS_9StructureEON3WTF6RefPtrINS_11ArrayBufferEEEjj
159:__ZN3JSC23JSGenericTypedArrayViewINS_12Int16AdaptorEE6createEPNS_9ExecStateEPNS_9StructureEON3WTF6RefPtrINS_11ArrayBufferEEEjj
160:__ZN3JSC23JSGenericTypedArrayViewINS_12Int32AdaptorEE6createEPNS_9ExecStateEPNS_9StructureEON3WTF6RefPtrINS_11ArrayBufferEEEjj
161:__ZN3JSC23JSGenericTypedArrayViewINS_14Float64AdaptorEE6createEPNS_9ExecStateEPNS_9StructureEON3WTF6RefPtrINS_11ArrayBufferEEEjj
162:__ZN3WTF8FunctionIFvPvEE19CallableWrapperBaseD2Ev
163:_JSValueIsStrictEqual
164:__ZN3JSC13LiteralParserIhED2Ev
165:__ZN3JSC13LiteralParserItE5LexerD2Ev
166:__ZN14OpaqueJSString6createERKN3WTF6StringE
167:__ZN14OpaqueJSStringD2Ev
168:__ZN3JSC31arrayConstructorOfCodeGeneratorERNS_2VME
169:__ZN3JSC33arrayConstructorFromCodeGeneratorERNS_2VME
170:__ZN3JSC36arrayConstructorIsArrayCodeGeneratorERNS_2VME
171:__ZN3JSC57arrayIteratorPrototypeArrayIteratorValueNextCodeGeneratorERNS_2VME
172:__ZN3JSC39arrayIteratorPrototypeNextCodeGeneratorERNS_2VME
173:__ZN3JSC55arrayIteratorPrototypeArrayIteratorKeyNextCodeGeneratorERNS_2VME
174:__ZN3JSC60arrayIteratorPrototypeArrayIteratorKeyValueNextCodeGeneratorERNS_2VME
175:__ZN3JSC57arrayPrototypeCreateArrayIteratorConstructorCodeGeneratorERNS_2VME
176:__ZN3JSC33arrayPrototypeValuesCodeGeneratorERNS_2VME
177:__ZN3JSC31arrayPrototypeKeysCodeGeneratorERNS_2VME
178:__ZN3JSC34arrayPrototypeEntriesCodeGeneratorERNS_2VME
179:__ZN3JSC33arrayPrototypeReduceCodeGeneratorERNS_2VME
180:__ZN3JSC38arrayPrototypeReduceRightCodeGeneratorERNS_2VME
181:__ZN3JSC32arrayPrototypeEveryCodeGeneratorERNS_2VME
182:__ZN3JSC34arrayPrototypeForEachCodeGeneratorERNS_2VME
183:__ZN3JSC33arrayPrototypeFilterCodeGeneratorERNS_2VME
184:__ZN3JSC30arrayPrototypeMapCodeGeneratorERNS_2VME
185:__ZN3JSC31arrayPrototypeSomeCodeGeneratorERNS_2VME
186:__ZN3JSC31arrayPrototypeFillCodeGeneratorERNS_2VME
187:__ZN3JSC31arrayPrototypeFindCodeGeneratorERNS_2VME
188:__ZN3JSC36arrayPrototypeFindIndexCodeGeneratorERNS_2VME
189:__ZN3JSC35arrayPrototypeIncludesCodeGeneratorERNS_2VME
190:__ZN3JSC31arrayPrototypeSortCodeGeneratorERNS_2VME
191:__ZN3JSC41arrayPrototypeConcatSlowPathCodeGeneratorERNS_2VME
192:__ZN3JSC33arrayPrototypeConcatCodeGeneratorERNS_2VME
193:__ZN3JSC37arrayPrototypeCopyWithinCodeGeneratorERNS_2VME
194:__ZN3JSC54asyncFunctionPrototypeAsyncFunctionResumeCodeGeneratorERNS_2VME
195:__ZN3JSC34functionPrototypeCallCodeGeneratorERNS_2VME
196:__ZN3JSC35functionPrototypeApplyCodeGeneratorERNS_2VME
197:__ZN3JSC47functionPrototypeSymbolHasInstanceCodeGeneratorERNS_2VME
198:__ZN3JSC34functionPrototypeBindCodeGeneratorERNS_2VME
199:__ZN3JSC46generatorPrototypeGeneratorResumeCodeGeneratorERNS_2VME
200:__ZN3JSC35generatorPrototypeNextCodeGeneratorERNS_2VME
201:__ZN3JSC37generatorPrototypeReturnCodeGeneratorERNS_2VME
202:__ZN3JSC36generatorPrototypeThrowCodeGeneratorERNS_2VME
203:__ZN3JSC33globalObjectIsFiniteCodeGeneratorERNS_2VME
204:__ZN3JSC30globalObjectIsNaNCodeGeneratorERNS_2VME
205:__ZN3JSC38globalOperationsToIntegerCodeGeneratorERNS_2VME
206:__ZN3JSC37globalOperationsToLengthCodeGeneratorERNS_2VME
207:__ZN3JSC41globalOperationsIsDictionaryCodeGeneratorERNS_2VME
208:__ZN3JSC42globalOperationsSpeciesGetterCodeGeneratorERNS_2VME
209:__ZN3JSC47globalOperationsSpeciesConstructorCodeGeneratorERNS_2VME
210:__ZN3JSC47globalOperationsCopyDataPropertiesCodeGeneratorERNS_2VME
211:__ZN3JSC59inspectorInstrumentationObjectPromiseFulfilledCodeGeneratorERNS_2VME
212:__ZN3JSC58inspectorInstrumentationObjectPromiseRejectedCodeGeneratorERNS_2VME
213:__ZN3JSC50internalPromiseConstructorInternalAllCodeGeneratorERNS_2VME
214:__ZN3JSC44iteratorHelpersPerformIterationCodeGeneratorERNS_2VME
215:__ZN3JSC50iteratorPrototypeSymbolIteratorGetterCodeGeneratorERNS_2VME
216:__ZN3JSC32mapPrototypeForEachCodeGeneratorERNS_2VME
217:__ZN3JSC47moduleLoaderPrototypeSetStateToMaxCodeGeneratorERNS_2VME
218:__ZN3JSC50moduleLoaderPrototypeNewRegistryEntryCodeGeneratorERNS_2VME
219:__ZN3JSC50moduleLoaderPrototypeEnsureRegisteredCodeGeneratorERNS_2VME
220:__ZN3JSC53moduleLoaderPrototypeForceFulfillPromiseCodeGeneratorERNS_2VME
221:__ZN3JSC46moduleLoaderPrototypeFulfillFetchCodeGeneratorERNS_2VME
222:__ZN3JSC52moduleLoaderPrototypeFulfillInstantiateCodeGeneratorERNS_2VME
223:__ZN3JSC52moduleLoaderPrototypeCommitInstantiatedCodeGeneratorERNS_2VME
224:__ZN3JSC47moduleLoaderPrototypeInstantiationCodeGeneratorERNS_2VME
225:__ZN3JSC46moduleLoaderPrototypeRequestFetchCodeGeneratorERNS_2VME
226:__ZN3JSC52moduleLoaderPrototypeRequestInstantiateCodeGeneratorERNS_2VME
227:__ZN3JSC48moduleLoaderPrototypeRequestSatisfyCodeGeneratorERNS_2VME
228:__ZN3JSC45moduleLoaderPrototypeRequestLinkCodeGeneratorERNS_2VME
229:__ZN3JSC46moduleLoaderPrototypeRequestReadyCodeGeneratorERNS_2VME
230:__ZN3JSC38moduleLoaderPrototypeLinkCodeGeneratorERNS_2VME
231:__ZN3JSC50moduleLoaderPrototypeModuleEvaluationCodeGeneratorERNS_2VME
232:__ZN3JSC41moduleLoaderPrototypeProvideCodeGeneratorERNS_2VME
233:__ZN3JSC55moduleLoaderPrototypeLoadAndEvaluateModuleCodeGeneratorERNS_2VME
234:__ZN3JSC44moduleLoaderPrototypeLoadModuleCodeGeneratorERNS_2VME
235:__ZN3JSC55moduleLoaderPrototypeLinkAndEvaluateModuleCodeGeneratorERNS_2VME
236:__ZN3JSC53moduleLoaderPrototypeRequestImportModuleCodeGeneratorERNS_2VME
237:__ZN3JSC38numberConstructorIsFiniteCodeGeneratorERNS_2VME
238:__ZN3JSC35numberConstructorIsNaNCodeGeneratorERNS_2VME
239:__ZN3JSC53objectConstructorEnumerableOwnPropertiesCodeGeneratorERNS_2VME
240:__ZN3JSC36objectConstructorValuesCodeGeneratorERNS_2VME
241:__ZN3JSC37objectConstructorEntriesCodeGeneratorERNS_2VME
242:__ZN3JSC36objectConstructorAssignCodeGeneratorERNS_2VME
243:__ZN3JSC34promiseConstructorAllCodeGeneratorERNS_2VME
244:__ZN3JSC35promiseConstructorRaceCodeGeneratorERNS_2VME
245:__ZN3JSC37promiseConstructorRejectCodeGeneratorERNS_2VME
246:__ZN3JSC38promiseConstructorResolveCodeGeneratorERNS_2VME
247:__ZN3JSC39promiseOperationsIsPromiseCodeGeneratorERNS_2VME
248:__ZN3JSC48promiseOperationsNewPromiseReactionCodeGeneratorERNS_2VME
249:__ZN3JSC50promiseOperationsNewPromiseCapabilityCodeGeneratorERNS_2VME
250:__ZN3JSC53promiseOperationsTriggerPromiseReactionsCodeGeneratorERNS_2VME
251:__ZN3JSC43promiseOperationsRejectPromiseCodeGeneratorERNS_2VME
252:__ZN3JSC44promiseOperationsFulfillPromiseCodeGeneratorERNS_2VME
253:__ZN3JSC54promiseOperationsCreateResolvingFunctionsCodeGeneratorERNS_2VME
254:__ZN3JSC48promiseOperationsPromiseReactionJobCodeGeneratorERNS_2VME
255:__ZN3JSC55promiseOperationsPromiseResolveThenableJobCodeGeneratorERNS_2VME
256:__ZN3JSC47promiseOperationsInitializePromiseCodeGeneratorERNS_2VME
257:__ZN3JSC34promisePrototypeCatchCodeGeneratorERNS_2VME
258:__ZN3JSC33promisePrototypeThenCodeGeneratorERNS_2VME
259:__ZN3JSC31reflectObjectApplyCodeGeneratorERNS_2VME
260:__ZN3JSC40reflectObjectDeletePropertyCodeGeneratorERNS_2VME
261:__ZN3JSC29reflectObjectHasCodeGeneratorERNS_2VME
262:__ZN3JSC46regExpPrototypeAdvanceStringIndexCodeGeneratorERNS_2VME
263:__ZN3JSC38regExpPrototypeRegExpExecCodeGeneratorERNS_2VME
264:__ZN3JSC66regExpPrototypeHasObservableSideEffectsForRegExpMatchCodeGeneratorERNS_2VME
265:__ZN3JSC33regExpPrototypeMatchCodeGeneratorERNS_2VME
266:__ZN3JSC35regExpPrototypeReplaceCodeGeneratorERNS_2VME
267:__ZN3JSC34regExpPrototypeSearchCodeGeneratorERNS_2VME
268:__ZN3JSC66regExpPrototypeHasObservableSideEffectsForRegExpSplitCodeGeneratorERNS_2VME
269:__ZN3JSC33regExpPrototypeSplitCodeGeneratorERNS_2VME
270:__ZN3JSC32regExpPrototypeTestCodeGeneratorERNS_2VME
271:__ZN3JSC32setPrototypeForEachCodeGeneratorERNS_2VME
272:__ZN3JSC33stringConstructorRawCodeGeneratorERNS_2VME
273:__ZN3JSC40stringIteratorPrototypeNextCodeGeneratorERNS_2VME
274:__ZN3JSC33stringPrototypeMatchCodeGeneratorERNS_2VME
275:__ZN3JSC42stringPrototypeRepeatSlowPathCodeGeneratorERNS_2VME
276:__ZN3JSC52stringPrototypeRepeatCharactersSlowPathCodeGeneratorERNS_2VME
277:__ZN3JSC34stringPrototypeRepeatCodeGeneratorERNS_2VME
278:__ZN3JSC36stringPrototypePadStartCodeGeneratorERNS_2VME
279:__ZN3JSC34stringPrototypePadEndCodeGeneratorERNS_2VME
280:__ZN3JSC68stringPrototypeHasObservableSideEffectsForStringReplaceCodeGeneratorERNS_2VME
281:__ZN3JSC35stringPrototypeReplaceCodeGeneratorERNS_2VME
282:__ZN3JSC46stringPrototypeGetDefaultCollatorCodeGeneratorERNS_2VME
283:__ZN3JSC34stringPrototypeSearchCodeGeneratorERNS_2VME
284:__ZN3JSC33stringPrototypeSplitCodeGeneratorERNS_2VME
285:__ZN3JSC36typedArrayConstructorOfCodeGeneratorERNS_2VME
286:__ZN3JSC38typedArrayConstructorFromCodeGeneratorERNS_2VME
287:__ZN3JSC51typedArrayConstructorAllocateInt8ArrayCodeGeneratorERNS_2VME
288:__ZN3JSC52typedArrayConstructorAllocateInt16ArrayCodeGeneratorERNS_2VME
289:__ZN3JSC52typedArrayConstructorAllocateInt32ArrayCodeGeneratorERNS_2VME
290:__ZN3JSC53typedArrayConstructorAllocateUint32ArrayCodeGeneratorERNS_2VME
291:__ZN3JSC53typedArrayConstructorAllocateUint16ArrayCodeGeneratorERNS_2VME
292:__ZN3JSC52typedArrayConstructorAllocateUint8ArrayCodeGeneratorERNS_2VME
293:__ZN3JSC59typedArrayConstructorAllocateUint8ClampedArrayCodeGeneratorERNS_2VME
294:__ZN3JSC54typedArrayConstructorAllocateFloat32ArrayCodeGeneratorERNS_2VME
295:__ZN3JSC54typedArrayConstructorAllocateFloat64ArrayCodeGeneratorERNS_2VME
296:__ZN3JSC60typedArrayPrototypeTypedArraySpeciesConstructorCodeGeneratorERNS_2VME
297:__ZN3JSC67typedArrayPrototypeTypedArrayClampArgumentToStartOrEndCodeGeneratorERNS_2VME
298:__ZN3JSC38typedArrayPrototypeValuesCodeGeneratorERNS_2VME
299:__ZN3JSC36typedArrayPrototypeKeysCodeGeneratorERNS_2VME
300:__ZN3JSC39typedArrayPrototypeEntriesCodeGeneratorERNS_2VME
301:__ZN3JSC37typedArrayPrototypeEveryCodeGeneratorERNS_2VME
302:__ZN3JSC36typedArrayPrototypeFillCodeGeneratorERNS_2VME
303:__ZN3JSC36typedArrayPrototypeFindCodeGeneratorERNS_2VME
304:__ZN3JSC41typedArrayPrototypeFindIndexCodeGeneratorERNS_2VME
305:__ZN3JSC39typedArrayPrototypeForEachCodeGeneratorERNS_2VME
306:__ZN3JSC36typedArrayPrototypeSomeCodeGeneratorERNS_2VME
307:__ZN3JSC36typedArrayPrototypeSortCodeGeneratorERNS_2VME
308:__ZN3JSC40typedArrayPrototypeSubarrayCodeGeneratorERNS_2VME
309:__ZN3JSC38typedArrayPrototypeReduceCodeGeneratorERNS_2VME
310:__ZN3JSC43typedArrayPrototypeReduceRightCodeGeneratorERNS_2VME
311:__ZN3JSC35typedArrayPrototypeMapCodeGeneratorERNS_2VME
312:__ZN3JSC38typedArrayPrototypeFilterCodeGeneratorERNS_2VME
313:__ZN3JSC46typedArrayPrototypeToLocaleStringCodeGeneratorERNS_2VME
314:__ZN3WTF10makeStringIJcPKccNS_6StringES2_EEES3_DpT_
315:__ZN3WTF25tryMakeStringFromAdaptersINS_17StringTypeAdapterIcEEJNS1_IPKcEES2_NS1_INS_6StringEEES5_EEES6_T_DpT0_
316:__ZN3WTF7HashMapINS_6StringENS_6RefPtrIN9Inspector14InspectorValueEEENS_10StringHashENS_10HashTraitsIS1_EENS7_IS5_EEE9inlineSetIRKS1_NS2_INS3_19InspectorObjectBaseEEEEENS_18HashTableAddResultINS_17HashTableIteratorIS1_NS_12KeyValuePairIS1_S5_EENS_24KeyValuePairKeyExtractorISJ_EES6_NSA_18KeyValuePairTraitsES8_EEEEOT_OT0_
317:__ZN3WTF6VectorINS_6StringELm0ENS_15CrashOnOverflowELm16EE14appendSlowCaseIRKS1_EEvOT_
318:__ZN3WTF9HashTableINS_6StringENS_12KeyValuePairIS1_NS_6RefPtrIN9Inspector14InspectorValueEEEEENS_24KeyValuePairKeyExtractorIS7_EENS_10StringHashENS_7HashMapIS1_S6_SA_NS_10HashTraitsIS1_EENSC_IS6_EEE18KeyValuePairTraitsESD_E6rehashEjPS7_
319:__ZN3WTF9HashTableINS_6StringENS_12KeyValuePairIS1_NS_6RefPtrIN9Inspector14InspectorValueEEEEENS_24KeyValuePairKeyExtractorIS7_EENS_10StringHashENS_7HashMapIS1_S6_SA_NS_10HashTraitsIS1_EENSC_IS6_EEE18KeyValuePairTraitsESD_E8reinsertEOS7_
320:__ZN9Inspector19InspectorObjectBase9setStringERKN3WTF6StringES4_
321:__ZN9Inspector24ConsoleBackendDispatcherD0Ev
322:__ZN9Inspector24ConsoleBackendDispatcher8dispatchElRKN3WTF6StringEONS1_3RefINS_15InspectorObjectEEE
323:__ZN9Inspector24ConsoleBackendDispatcher6enableElON3WTF6RefPtrINS_15InspectorObjectEEE
324:__ZN9Inspector24ConsoleBackendDispatcher7disableElON3WTF6RefPtrINS_15InspectorObjectEEE
325:__ZN9Inspector24ConsoleBackendDispatcher13clearMessagesElON3WTF6RefPtrINS_15InspectorObjectEEE
326:__ZN9Inspector24ConsoleBackendDispatcher23setMonitoringXHREnabledElON3WTF6RefPtrINS_15InspectorObjectEEE
327:__ZN9Inspector24ConsoleBackendDispatcher16addInspectedNodeElON3WTF6RefPtrINS_15InspectorObjectEEE
328:__ZN9Inspector19InspectorObjectBase10setIntegerERKN3WTF6StringEi
329:__ZN9Inspector17BackendDispatcherD2Ev
330:__ZN9Inspector25DebuggerBackendDispatcher8dispatchElRKN3WTF6StringEONS1_3RefINS_15InspectorObjectEEE
331:__ZN3WTF7HashMapINS_6StringEMN9Inspector25DebuggerBackendDispatcherEFvlONS_6RefPtrINS2_15InspectorObjectEEEENS_10StringHashENS_10HashTraitsIS1_EENSB_IS9_EEE3addIRKS9_EENS_18HashTableAddResultINS_17HashTableIteratorIS1_NS_12KeyValuePairIS1_S9_EENS_24KeyValuePairKeyExtractorISL_EESA_NSE_18KeyValuePairTraitsESC_EEEEOS1_OT_
332:__ZN3WTF9HashTableINS_6StringENS_12KeyValuePairIS1_MN9Inspector25DebuggerBackendDispatcherEFvlONS_6RefPtrINS3_15InspectorObjectEEEEEENS_24KeyValuePairKeyExtractorISB_EENS_10StringHashENS_7HashMapIS1_SA_SE_NS_10HashTraitsIS1_EENSG_ISA_EEE18KeyValuePairTraitsESH_E6rehashEjPSB_
333:__ZN9Inspector25DebuggerBackendDispatcher6enableElON3WTF6RefPtrINS_15InspectorObjectEEE
334:__ZN9Inspector25DebuggerBackendDispatcher7disableElON3WTF6RefPtrINS_15InspectorObjectEEE
335:__ZN9Inspector25DebuggerBackendDispatcher23setAsyncStackTraceDepthElON3WTF6RefPtrINS_15InspectorObjectEEE
336:__ZN9Inspector25DebuggerBackendDispatcher20setBreakpointsActiveElON3WTF6RefPtrINS_15InspectorObjectEEE
337:__ZN9Inspector25DebuggerBackendDispatcher18setBreakpointByUrlElON3WTF6RefPtrINS_15InspectorObjectEEE
338:__ZN9Inspector25DebuggerBackendDispatcher13setBreakpointElON3WTF6RefPtrINS_15InspectorObjectEEE
339:__ZN9Inspector25DebuggerBackendDispatcher16removeBreakpointElON3WTF6RefPtrINS_15InspectorObjectEEE
340:__ZN9Inspector25DebuggerBackendDispatcher24continueUntilNextRunLoopElON3WTF6RefPtrINS_15InspectorObjectEEE
341:__ZN9Inspector25DebuggerBackendDispatcher18continueToLocationElON3WTF6RefPtrINS_15InspectorObjectEEE
342:__ZN9Inspector25DebuggerBackendDispatcher8stepOverElON3WTF6RefPtrINS_15InspectorObjectEEE
343:__ZN9Inspector25DebuggerBackendDispatcher8stepIntoElON3WTF6RefPtrINS_15InspectorObjectEEE
344:__ZN9Inspector25DebuggerBackendDispatcher7stepOutElON3WTF6RefPtrINS_15InspectorObjectEEE
345:__ZN9Inspector25DebuggerBackendDispatcher5pauseElON3WTF6RefPtrINS_15InspectorObjectEEE
346:__ZN9Inspector25DebuggerBackendDispatcher6resumeElON3WTF6RefPtrINS_15InspectorObjectEEE
347:__ZN9Inspector25DebuggerBackendDispatcher15searchInContentElON3WTF6RefPtrINS_15InspectorObjectEEE
348:__ZN9Inspector25DebuggerBackendDispatcher15getScriptSourceElON3WTF6RefPtrINS_15InspectorObjectEEE
349:__ZN9Inspector25DebuggerBackendDispatcher18getFunctionDetailsElON3WTF6RefPtrINS_15InspectorObjectEEE
350:__ZN9Inspector25DebuggerBackendDispatcher20setPauseOnExceptionsElON3WTF6RefPtrINS_15InspectorObjectEEE
351:__ZN9Inspector25DebuggerBackendDispatcher20setPauseOnAssertionsElON3WTF6RefPtrINS_15InspectorObjectEEE
352:__ZN9Inspector25DebuggerBackendDispatcher19evaluateOnCallFrameElON3WTF6RefPtrINS_15InspectorObjectEEE
353:__ZN9Inspector25DebuggerBackendDispatcher17setOverlayMessageElON3WTF6RefPtrINS_15InspectorObjectEEE
354:__ZN9Inspector19InspectorObjectBase10setBooleanERKN3WTF6StringEb
355:__ZN9Inspector21HeapBackendDispatcher8dispatchElRKN3WTF6StringEONS1_3RefINS_15InspectorObjectEEE
356:__ZN3WTF7HashMapINS_6StringEMN9Inspector21HeapBackendDispatcherEFvlONS_6RefPtrINS2_15InspectorObjectEEEENS_10StringHashENS_10HashTraitsIS1_EENSB_IS9_EEE3addIRKS9_EENS_18HashTableAddResultINS_17HashTableIteratorIS1_NS_12KeyValuePairIS1_S9_EENS_24KeyValuePairKeyExtractorISL_EESA_NSE_18KeyValuePairTraitsESC_EEEEOS1_OT_
357:__ZN3WTF9HashTableINS_6StringENS_12KeyValuePairIS1_MN9Inspector21HeapBackendDispatcherEFvlONS_6RefPtrINS3_15InspectorObjectEEEEEENS_24KeyValuePairKeyExtractorISB_EENS_10StringHashENS_7HashMapIS1_SA_SE_NS_10HashTraitsIS1_EENSG_ISA_EEE18KeyValuePairTraitsESH_E6rehashEjPSB_
358:__ZN9Inspector21HeapBackendDispatcher2gcElON3WTF6RefPtrINS_15InspectorObjectEEE
359:__ZN9Inspector21HeapBackendDispatcher8snapshotElON3WTF6RefPtrINS_15InspectorObjectEEE
360:__ZN9Inspector21HeapBackendDispatcher13startTrackingElON3WTF6RefPtrINS_15InspectorObjectEEE
361:__ZN9Inspector21HeapBackendDispatcher12stopTrackingElON3WTF6RefPtrINS_15InspectorObjectEEE
362:__ZN9Inspector21HeapBackendDispatcher10getPreviewElON3WTF6RefPtrINS_15InspectorObjectEEE
363:__ZN9Inspector21HeapBackendDispatcher15getRemoteObjectElON3WTF6RefPtrINS_15InspectorObjectEEE
364:__ZN9Inspector19InspectorObjectBase9setDoubleERKN3WTF6StringEd
365:__ZN9Inspector26InspectorBackendDispatcher8dispatchElRKN3WTF6StringEONS1_3RefINS_15InspectorObjectEEE
366:__ZN9Inspector24RuntimeBackendDispatcher8dispatchElRKN3WTF6StringEONS1_3RefINS_15InspectorObjectEEE
367:__ZN3WTF7HashMapINS_6StringEMN9Inspector24RuntimeBackendDispatcherEFvlONS_6RefPtrINS2_15InspectorObjectEEEENS_10StringHashENS_10HashTraitsIS1_EENSB_IS9_EEE3addIRKS9_EENS_18HashTableAddResultINS_17HashTableIteratorIS1_NS_12KeyValuePairIS1_S9_EENS_24KeyValuePairKeyExtractorISL_EESA_NSE_18KeyValuePairTraitsESC_EEEEOS1_OT_
368:__ZN3WTF9HashTableINS_6StringENS_12KeyValuePairIS1_MN9Inspector24RuntimeBackendDispatcherEFvlONS_6RefPtrINS3_15InspectorObjectEEEEEENS_24KeyValuePairKeyExtractorISB_EENS_10StringHashENS_7HashMapIS1_SA_SE_NS_10HashTraitsIS1_EENSG_ISA_EEE18KeyValuePairTraitsESH_E6rehashEjPSB_
369:__ZN9Inspector24RuntimeBackendDispatcher5parseElON3WTF6RefPtrINS_15InspectorObjectEEE
370:__ZN9Inspector24RuntimeBackendDispatcher8evaluateElON3WTF6RefPtrINS_15InspectorObjectEEE
371:__ZN9Inspector24RuntimeBackendDispatcher14callFunctionOnElON3WTF6RefPtrINS_15InspectorObjectEEE
372:__ZN9Inspector24RuntimeBackendDispatcher13getPropertiesElON3WTF6RefPtrINS_15InspectorObjectEEE
373:__ZN9Inspector24RuntimeBackendDispatcher24getDisplayablePropertiesElON3WTF6RefPtrINS_15InspectorObjectEEE
374:__ZN9Inspector24RuntimeBackendDispatcher20getCollectionEntriesElON3WTF6RefPtrINS_15InspectorObjectEEE
375:__ZN9Inspector24RuntimeBackendDispatcher10saveResultElON3WTF6RefPtrINS_15InspectorObjectEEE
376:__ZN9Inspector24RuntimeBackendDispatcher13releaseObjectElON3WTF6RefPtrINS_15InspectorObjectEEE
377:__ZN9Inspector24RuntimeBackendDispatcher18releaseObjectGroupElON3WTF6RefPtrINS_15InspectorObjectEEE
378:__ZN9Inspector24RuntimeBackendDispatcher36getRuntimeTypesForVariablesAtOffsetsElON3WTF6RefPtrINS_15InspectorObjectEEE
379:__ZN9Inspector24RuntimeBackendDispatcher25enableControlFlowProfilerElON3WTF6RefPtrINS_15InspectorObjectEEE
380:__ZN9Inspector24RuntimeBackendDispatcher26disableControlFlowProfilerElON3WTF6RefPtrINS_15InspectorObjectEEE
381:__ZN9Inspector24RuntimeBackendDispatcher14getBasicBlocksElON3WTF6RefPtrINS_15InspectorObjectEEE
382:__ZN9Inspector31ScriptProfilerBackendDispatcher8dispatchElRKN3WTF6StringEONS1_3RefINS_15InspectorObjectEEE
383:__ZN9Inspector31ScriptProfilerBackendDispatcher13startTrackingElON3WTF6RefPtrINS_15InspectorObjectEEE
384:__ZN9Inspector24ConsoleBackendDispatcherC2ERNS_17BackendDispatcherEPNS_31ConsoleBackendDispatcherHandlerE
385:__ZN9Inspector25DebuggerBackendDispatcherC2ERNS_17BackendDispatcherEPNS_32DebuggerBackendDispatcherHandlerE
386:__ZN9Inspector21HeapBackendDispatcherC2ERNS_17BackendDispatcherEPNS_28HeapBackendDispatcherHandlerE
387:__ZN9Inspector26InspectorBackendDispatcherC2ERNS_17BackendDispatcherEPNS_33InspectorBackendDispatcherHandlerE
388:__ZN9Inspector24RuntimeBackendDispatcherC2ERNS_17BackendDispatcherEPNS_31RuntimeBackendDispatcherHandlerE
389:__ZN9Inspector31ScriptProfilerBackendDispatcherC2ERNS_17BackendDispatcherEPNS_38ScriptProfilerBackendDispatcherHandlerE
390:__ZN9Inspector25ConsoleFrontendDispatcher12messageAddedEN3WTF6RefPtrINS_8Protocol7Console14ConsoleMessageEEE
391:__ZN9Inspector25ConsoleFrontendDispatcher25messageRepeatCountUpdatedEi
392:__ZN9Inspector25ConsoleFrontendDispatcher15messagesClearedEv
393:__ZN9Inspector25ConsoleFrontendDispatcher12heapSnapshotEdRKN3WTF6StringEPS3_
394:__ZN9Inspector26DebuggerFrontendDispatcher12scriptParsedERKN3WTF6StringES4_iiiiPKbPS3_S7_S6_
395:__ZN9Inspector26DebuggerFrontendDispatcher19scriptFailedToParseERKN3WTF6StringES4_iiS4_
396:__ZN9Inspector26DebuggerFrontendDispatcher18breakpointResolvedERKN3WTF6StringENS1_6RefPtrINS_8Protocol8Debugger8LocationEEE
397:__ZN9Inspector26DebuggerFrontendDispatcher6pausedEN3WTF6RefPtrINS_8Protocol5ArrayINS3_8Debugger9CallFrameEEEEENS0_6ReasonENS2_INS_15InspectorObjectEEENS2_INS3_7Console10StackTraceEEE
398:__ZN9Inspector26DebuggerFrontendDispatcher7resumedEv
399:__ZN9Inspector26DebuggerFrontendDispatcher14didSampleProbeEN3WTF6RefPtrINS_8Protocol8Debugger11ProbeSampleEEE
400:__ZN9Inspector26DebuggerFrontendDispatcher25playBreakpointActionSoundEi
401:__ZN9Inspector22HeapFrontendDispatcher16garbageCollectedEN3WTF6RefPtrINS_8Protocol4Heap17GarbageCollectionEEE
402:__ZN9Inspector22HeapFrontendDispatcher13trackingStartEdRKN3WTF6StringE
403:__ZN9Inspector22HeapFrontendDispatcher16trackingCompleteEdRKN3WTF6StringE
404:__ZN9Inspector27InspectorFrontendDispatcher25evaluateForTestInFrontendERKN3WTF6StringE
405:__ZN9Inspector27InspectorFrontendDispatcher7inspectEN3WTF6RefPtrINS_8Protocol7Runtime12RemoteObjectEEENS2_INS_15InspectorObjectEEE
406:__ZN9Inspector32ScriptProfilerFrontendDispatcher13trackingStartEd
407:__ZN9Inspector32ScriptProfilerFrontendDispatcher14trackingUpdateEN3WTF6RefPtrINS_8Protocol14ScriptProfiler5EventEEE
408:__ZN9Inspector32ScriptProfilerFrontendDispatcher16trackingCompleteEN3WTF6RefPtrINS_8Protocol14ScriptProfiler7SamplesEEE
409:__ZN9Inspector32ScriptProfilerFrontendDispatcher26programmaticCaptureStartedEv
410:__ZN9Inspector32ScriptProfilerFrontendDispatcher26programmaticCaptureStoppedEv
411:__ZN9Inspector8Protocol16InspectorHelpers20getEnumConstantValueEi
412:__ZN9Inspector8Protocol13BindingTraitsINS0_8Debugger15FunctionDetailsEE11runtimeCastEON3WTF6RefPtrINS_14InspectorValueEEE
413:__ZN3JSC21MacroAssemblerCodeRef18createLLIntCodeRefENS_8OpcodeIDE
414:__ZN10Deprecated25ScriptCallArgumentHandler14appendArgumentERKN3WTF6StringE
415:__ZN10Deprecated25ScriptCallArgumentHandler14appendArgumentEN3JSC7JSValueE
416:__ZN10Deprecated25ScriptCallArgumentHandler14appendArgumentEi
417:__ZN10Deprecated25ScriptCallArgumentHandler14appendArgumentEb
418:__ZN10Deprecated18ScriptFunctionCallC2ERKNS_12ScriptObjectERKN3WTF6StringEPFN3JSC7JSValueEPNS8_9ExecStateES9_NS8_8CallTypeERKNS8_8CallDataES9_RKNS8_7ArgListERNS4_8NakedPtrINS8_9ExceptionEEEE
419:__ZN10Deprecated12ScriptObjectD0Ev
420:__ZN10Deprecated18ScriptFunctionCall4callERb
421:__ZN10Deprecated12ScriptObjectC2EPN3JSC9ExecStateEPNS1_8JSObjectE
422:__ZN10Deprecated11ScriptValueD2Ev
423:__ZN10Deprecated11ScriptValueD0Ev
424:__ZN9Inspector16toInspectorValueERN3JSC9ExecStateENS0_7JSValueE
425:__ZN9InspectorL18jsToInspectorValueERN3JSC9ExecStateENS0_7JSValueEi
426:__ZN3WTF6VectorINS_6RefPtrIN9Inspector14InspectorValueEEELm0ENS_15CrashOnOverflowELm16EE6appendEOS4_
427:__ZNK10Deprecated11ScriptValue8toStringEPN3JSC9ExecStateE
428:__ZNK10Deprecated11ScriptValue7isEqualEPN3JSC9ExecStateERKS0_
429:__ZNK10Deprecated11ScriptValue8isObjectEv
430:__ZN3JSC18BuiltinExecutablesD2Ev
431:__ZN3JSC18BuiltinExecutablesD0Ev
432:__ZN3JSC18BuiltinExecutables8finalizeENS_6HandleINS_7UnknownEEEPv
433:__ZN3JSC18BuiltinExecutablesC2ERNS_2VME
434:__ZN3JSC18BuiltinExecutables24createDefaultConstructorENS_15ConstructorKindERKNS_10IdentifierE
435:__ZN3JSC18BuiltinExecutables16createExecutableERNS_2VMERKNS_10SourceCodeERKNS_10IdentifierENS_15ConstructorKindENS_16ConstructAbilityE
436:__ZN3JSC18BuiltinExecutables32arrayConstructorOfCodeExecutableEv
437:__ZN3JSC18BuiltinExecutables34arrayConstructorFromCodeExecutableEv
438:__ZN3JSC18BuiltinExecutables37arrayConstructorIsArrayCodeExecutableEv
439:__ZN3JSC18BuiltinExecutables58arrayIteratorPrototypeArrayIteratorValueNextCodeExecutableEv
440:__ZN3JSC18BuiltinExecutables40arrayIteratorPrototypeNextCodeExecutableEv
441:__ZN3JSC18BuiltinExecutables56arrayIteratorPrototypeArrayIteratorKeyNextCodeExecutableEv
442:__ZN3JSC18BuiltinExecutables61arrayIteratorPrototypeArrayIteratorKeyValueNextCodeExecutableEv
443:__ZN3JSC18BuiltinExecutables58arrayPrototypeCreateArrayIteratorConstructorCodeExecutableEv
444:__ZN3JSC18BuiltinExecutables34arrayPrototypeValuesCodeExecutableEv
445:__ZN3JSC18BuiltinExecutables32arrayPrototypeKeysCodeExecutableEv
446:__ZN3JSC18BuiltinExecutables35arrayPrototypeEntriesCodeExecutableEv
447:__ZN3JSC18BuiltinExecutables34arrayPrototypeReduceCodeExecutableEv
448:__ZN3JSC18BuiltinExecutables39arrayPrototypeReduceRightCodeExecutableEv
449:__ZN3JSC18BuiltinExecutables33arrayPrototypeEveryCodeExecutableEv
450:__ZN3JSC18BuiltinExecutables35arrayPrototypeForEachCodeExecutableEv
451:__ZN3JSC18BuiltinExecutables34arrayPrototypeFilterCodeExecutableEv
452:__ZN3JSC18BuiltinExecutables31arrayPrototypeMapCodeExecutableEv
453:__ZN3JSC18BuiltinExecutables32arrayPrototypeSomeCodeExecutableEv
454:__ZN3JSC18BuiltinExecutables32arrayPrototypeFillCodeExecutableEv
455:__ZN3JSC18BuiltinExecutables32arrayPrototypeFindCodeExecutableEv
456:__ZN3JSC18BuiltinExecutables37arrayPrototypeFindIndexCodeExecutableEv
457:__ZN3JSC18BuiltinExecutables36arrayPrototypeIncludesCodeExecutableEv
458:__ZN3JSC18BuiltinExecutables32arrayPrototypeSortCodeExecutableEv
459:__ZN3JSC18BuiltinExecutables42arrayPrototypeConcatSlowPathCodeExecutableEv
460:__ZN3JSC18BuiltinExecutables34arrayPrototypeConcatCodeExecutableEv
461:__ZN3JSC18BuiltinExecutables38arrayPrototypeCopyWithinCodeExecutableEv
462:__ZN3JSC18BuiltinExecutables55asyncFunctionPrototypeAsyncFunctionResumeCodeExecutableEv
463:__ZN3JSC18BuiltinExecutables35functionPrototypeCallCodeExecutableEv
464:__ZN3JSC18BuiltinExecutables36functionPrototypeApplyCodeExecutableEv
465:__ZN3JSC18BuiltinExecutables48functionPrototypeSymbolHasInstanceCodeExecutableEv
466:__ZN3JSC18BuiltinExecutables35functionPrototypeBindCodeExecutableEv
467:__ZN3JSC18BuiltinExecutables47generatorPrototypeGeneratorResumeCodeExecutableEv
468:__ZN3JSC18BuiltinExecutables36generatorPrototypeNextCodeExecutableEv
469:__ZN3JSC18BuiltinExecutables38generatorPrototypeReturnCodeExecutableEv
470:__ZN3JSC18BuiltinExecutables37generatorPrototypeThrowCodeExecutableEv
471:__ZN3JSC18BuiltinExecutables34globalObjectIsFiniteCodeExecutableEv
472:__ZN3JSC18BuiltinExecutables31globalObjectIsNaNCodeExecutableEv
473:__ZN3JSC18BuiltinExecutables39globalOperationsToIntegerCodeExecutableEv
474:__ZN3JSC18BuiltinExecutables38globalOperationsToLengthCodeExecutableEv
475:__ZN3JSC18BuiltinExecutables42globalOperationsIsDictionaryCodeExecutableEv
476:__ZN3JSC18BuiltinExecutables43globalOperationsSpeciesGetterCodeExecutableEv
477:__ZN3JSC18BuiltinExecutables48globalOperationsSpeciesConstructorCodeExecutableEv
478:__ZN3JSC18BuiltinExecutables48globalOperationsCopyDataPropertiesCodeExecutableEv
479:__ZN3JSC18BuiltinExecutables60inspectorInstrumentationObjectPromiseFulfilledCodeExecutableEv
480:__ZN3JSC18BuiltinExecutables59inspectorInstrumentationObjectPromiseRejectedCodeExecutableEv
481:__ZN3JSC18BuiltinExecutables51internalPromiseConstructorInternalAllCodeExecutableEv
482:__ZN3JSC18BuiltinExecutables45iteratorHelpersPerformIterationCodeExecutableEv
483:__ZN3JSC18BuiltinExecutables51iteratorPrototypeSymbolIteratorGetterCodeExecutableEv
484:__ZN3JSC18BuiltinExecutables33mapPrototypeForEachCodeExecutableEv
485:__ZN3JSC18BuiltinExecutables48moduleLoaderPrototypeSetStateToMaxCodeExecutableEv
486:__ZN3JSC18BuiltinExecutables51moduleLoaderPrototypeNewRegistryEntryCodeExecutableEv
487:__ZN3JSC18BuiltinExecutables51moduleLoaderPrototypeEnsureRegisteredCodeExecutableEv
488:__ZN3JSC18BuiltinExecutables54moduleLoaderPrototypeForceFulfillPromiseCodeExecutableEv
489:__ZN3JSC18BuiltinExecutables47moduleLoaderPrototypeFulfillFetchCodeExecutableEv
490:__ZN3JSC18BuiltinExecutables53moduleLoaderPrototypeFulfillInstantiateCodeExecutableEv
491:__ZN3JSC18BuiltinExecutables53moduleLoaderPrototypeCommitInstantiatedCodeExecutableEv
492:__ZN3JSC18BuiltinExecutables48moduleLoaderPrototypeInstantiationCodeExecutableEv
493:__ZN3JSC18BuiltinExecutables47moduleLoaderPrototypeRequestFetchCodeExecutableEv
494:__ZN3JSC18BuiltinExecutables53moduleLoaderPrototypeRequestInstantiateCodeExecutableEv
495:__ZN3JSC18BuiltinExecutables49moduleLoaderPrototypeRequestSatisfyCodeExecutableEv
496:__ZN3JSC18BuiltinExecutables46moduleLoaderPrototypeRequestLinkCodeExecutableEv
497:__ZN3JSC18BuiltinExecutables47moduleLoaderPrototypeRequestReadyCodeExecutableEv
498:__ZN3JSC18BuiltinExecutables39moduleLoaderPrototypeLinkCodeExecutableEv
499:__ZN3JSC18BuiltinExecutables51moduleLoaderPrototypeModuleEvaluationCodeExecutableEv
500:__ZN3JSC18BuiltinExecutables42moduleLoaderPrototypeProvideCodeExecutableEv
501:__ZN3JSC18BuiltinExecutables56moduleLoaderPrototypeLoadAndEvaluateModuleCodeExecutableEv
502:__ZN3JSC18BuiltinExecutables45moduleLoaderPrototypeLoadModuleCodeExecutableEv
503:__ZN3JSC18BuiltinExecutables56moduleLoaderPrototypeLinkAndEvaluateModuleCodeExecutableEv
504:__ZN3JSC18BuiltinExecutables54moduleLoaderPrototypeRequestImportModuleCodeExecutableEv
505:__ZN3JSC18BuiltinExecutables39numberConstructorIsFiniteCodeExecutableEv
506:__ZN3JSC18BuiltinExecutables36numberConstructorIsNaNCodeExecutableEv
507:__ZN3JSC18BuiltinExecutables54objectConstructorEnumerableOwnPropertiesCodeExecutableEv
508:__ZN3JSC18BuiltinExecutables37objectConstructorValuesCodeExecutableEv
509:__ZN3JSC18BuiltinExecutables38objectConstructorEntriesCodeExecutableEv
510:__ZN3JSC18BuiltinExecutables37objectConstructorAssignCodeExecutableEv
511:__ZN3JSC18BuiltinExecutables35promiseConstructorAllCodeExecutableEv
512:__ZN3JSC18BuiltinExecutables36promiseConstructorRaceCodeExecutableEv
513:__ZN3JSC18BuiltinExecutables38promiseConstructorRejectCodeExecutableEv
514:__ZN3JSC18BuiltinExecutables39promiseConstructorResolveCodeExecutableEv
515:__ZN3JSC18BuiltinExecutables40promiseOperationsIsPromiseCodeExecutableEv
516:__ZN3JSC18BuiltinExecutables49promiseOperationsNewPromiseReactionCodeExecutableEv
517:__ZN3JSC18BuiltinExecutables51promiseOperationsNewPromiseCapabilityCodeExecutableEv
518:__ZN3JSC18BuiltinExecutables54promiseOperationsTriggerPromiseReactionsCodeExecutableEv
519:__ZN3JSC18BuiltinExecutables44promiseOperationsRejectPromiseCodeExecutableEv
520:__ZN3JSC18BuiltinExecutables45promiseOperationsFulfillPromiseCodeExecutableEv
521:__ZN3JSC18BuiltinExecutables55promiseOperationsCreateResolvingFunctionsCodeExecutableEv
522:__ZN3JSC18BuiltinExecutables49promiseOperationsPromiseReactionJobCodeExecutableEv
523:__ZN3JSC18BuiltinExecutables56promiseOperationsPromiseResolveThenableJobCodeExecutableEv
524:__ZN3JSC18BuiltinExecutables48promiseOperationsInitializePromiseCodeExecutableEv
525:__ZN3JSC18BuiltinExecutables35promisePrototypeCatchCodeExecutableEv
526:__ZN3JSC18BuiltinExecutables34promisePrototypeThenCodeExecutableEv
527:__ZN3JSC18BuiltinExecutables32reflectObjectApplyCodeExecutableEv
528:__ZN3JSC18BuiltinExecutables41reflectObjectDeletePropertyCodeExecutableEv
529:__ZN3JSC18BuiltinExecutables30reflectObjectHasCodeExecutableEv
530:__ZN3JSC18BuiltinExecutables47regExpPrototypeAdvanceStringIndexCodeExecutableEv
531:__ZN3JSC18BuiltinExecutables39regExpPrototypeRegExpExecCodeExecutableEv
532:__ZN3JSC18BuiltinExecutables67regExpPrototypeHasObservableSideEffectsForRegExpMatchCodeExecutableEv
533:__ZN3JSC18BuiltinExecutables34regExpPrototypeMatchCodeExecutableEv
534:__ZN3JSC18BuiltinExecutables36regExpPrototypeReplaceCodeExecutableEv
535:__ZN3JSC18BuiltinExecutables35regExpPrototypeSearchCodeExecutableEv
536:__ZN3JSC18BuiltinExecutables67regExpPrototypeHasObservableSideEffectsForRegExpSplitCodeExecutableEv
537:__ZN3JSC18BuiltinExecutables34regExpPrototypeSplitCodeExecutableEv
538:__ZN3JSC18BuiltinExecutables33regExpPrototypeTestCodeExecutableEv
539:__ZN3JSC18BuiltinExecutables33setPrototypeForEachCodeExecutableEv
540:__ZN3JSC18BuiltinExecutables34stringConstructorRawCodeExecutableEv
541:__ZN3JSC18BuiltinExecutables41stringIteratorPrototypeNextCodeExecutableEv
542:__ZN3JSC18BuiltinExecutables34stringPrototypeMatchCodeExecutableEv
543:__ZN3JSC18BuiltinExecutables43stringPrototypeRepeatSlowPathCodeExecutableEv
544:__ZN3JSC18BuiltinExecutables53stringPrototypeRepeatCharactersSlowPathCodeExecutableEv
545:__ZN3JSC18BuiltinExecutables35stringPrototypeRepeatCodeExecutableEv
546:__ZN3JSC18BuiltinExecutables37stringPrototypePadStartCodeExecutableEv
547:__ZN3JSC18BuiltinExecutables35stringPrototypePadEndCodeExecutableEv
548:__ZN3JSC18BuiltinExecutables69stringPrototypeHasObservableSideEffectsForStringReplaceCodeExecutableEv
549:__ZN3JSC18BuiltinExecutables36stringPrototypeReplaceCodeExecutableEv
550:__ZN3JSC18BuiltinExecutables47stringPrototypeGetDefaultCollatorCodeExecutableEv
551:__ZN3JSC18BuiltinExecutables35stringPrototypeSearchCodeExecutableEv
552:__ZN3JSC18BuiltinExecutables34stringPrototypeSplitCodeExecutableEv
553:__ZN3JSC18BuiltinExecutables37typedArrayConstructorOfCodeExecutableEv
554:__ZN3JSC18BuiltinExecutables39typedArrayConstructorFromCodeExecutableEv
555:__ZN3JSC18BuiltinExecutables52typedArrayConstructorAllocateInt8ArrayCodeExecutableEv
556:__ZN3JSC18BuiltinExecutables53typedArrayConstructorAllocateInt16ArrayCodeExecutableEv
557:__ZN3JSC18BuiltinExecutables53typedArrayConstructorAllocateInt32ArrayCodeExecutableEv
558:__ZN3JSC18BuiltinExecutables54typedArrayConstructorAllocateUint32ArrayCodeExecutableEv
559:__ZN3JSC18BuiltinExecutables54typedArrayConstructorAllocateUint16ArrayCodeExecutableEv
560:__ZN3JSC18BuiltinExecutables53typedArrayConstructorAllocateUint8ArrayCodeExecutableEv
561:__ZN3JSC18BuiltinExecutables60typedArrayConstructorAllocateUint8ClampedArrayCodeExecutableEv
562:__ZN3JSC18BuiltinExecutables55typedArrayConstructorAllocateFloat32ArrayCodeExecutableEv
563:__ZN3JSC18BuiltinExecutables55typedArrayConstructorAllocateFloat64ArrayCodeExecutableEv
564:__ZN3JSC18BuiltinExecutables61typedArrayPrototypeTypedArraySpeciesConstructorCodeExecutableEv
565:__ZN3JSC18BuiltinExecutables68typedArrayPrototypeTypedArrayClampArgumentToStartOrEndCodeExecutableEv
566:__ZN3JSC18BuiltinExecutables39typedArrayPrototypeValuesCodeExecutableEv
567:__ZN3JSC18BuiltinExecutables37typedArrayPrototypeKeysCodeExecutableEv
568:__ZN3JSC18BuiltinExecutables40typedArrayPrototypeEntriesCodeExecutableEv
569:__ZN3JSC18BuiltinExecutables38typedArrayPrototypeEveryCodeExecutableEv
570:__ZN3JSC18BuiltinExecutables37typedArrayPrototypeFillCodeExecutableEv
571:__ZN3JSC18BuiltinExecutables37typedArrayPrototypeFindCodeExecutableEv
572:__ZN3JSC18BuiltinExecutables42typedArrayPrototypeFindIndexCodeExecutableEv
573:__ZN3JSC18BuiltinExecutables40typedArrayPrototypeForEachCodeExecutableEv
574:__ZN3JSC18BuiltinExecutables37typedArrayPrototypeSomeCodeExecutableEv
575:__ZN3JSC18BuiltinExecutables37typedArrayPrototypeSortCodeExecutableEv
576:__ZN3JSC18BuiltinExecutables41typedArrayPrototypeSubarrayCodeExecutableEv
577:__ZN3JSC18BuiltinExecutables39typedArrayPrototypeReduceCodeExecutableEv
578:__ZN3JSC18BuiltinExecutables44typedArrayPrototypeReduceRightCodeExecutableEv
579:__ZN3JSC18BuiltinExecutables36typedArrayPrototypeMapCodeExecutableEv
580:__ZN3JSC18BuiltinExecutables39typedArrayPrototypeFilterCodeExecutableEv
581:__ZN3JSC18BuiltinExecutables47typedArrayPrototypeToLocaleStringCodeExecutableEv
582:__ZN3JSC43AdaptiveInferredPropertyValueWatchpointBase19StructureWatchpointD0Ev
583:__ZN3JSC43AdaptiveInferredPropertyValueWatchpointBase19StructureWatchpoint12fireInternalERKNS_10FireDetailE
584:__ZN3JSC43AdaptiveInferredPropertyValueWatchpointBase7installEv
585:__ZN3JSC43AdaptiveInferredPropertyValueWatchpointBase18PropertyWatchpoint12fireInternalERKNS_10FireDetailE
586:__ZN3JSC43AdaptiveInferredPropertyValueWatchpointBaseC2ERKNS_23ObjectPropertyConditionE
587:__ZN3JSC43AdaptiveInferredPropertyValueWatchpointBaseD2Ev
588:__ZN3JSC43AdaptiveInferredPropertyValueWatchpointBaseD0Ev
589:__ZN3WTF13printInternalERNS_11PrintStreamERKN3JSC12ArithProfileE
590:__ZN3WTF13printInternalERNS_11PrintStreamERKN3JSC12ObservedTypeE
591:__ZN3JSC22ArrayAllocationProfile18updateIndexingTypeEv
592:__ZN3JSC14dumpArrayModesERN3WTF11PrintStreamEj
593:__ZN3JSC12ArrayProfile24computeUpdatedPredictionERKNS_18ConcurrentJSLockerEPNS_9CodeBlockE
594:__ZN3JSC12ArrayProfile24computeUpdatedPredictionERKNS_18ConcurrentJSLockerEPNS_9CodeBlockEPNS_9StructureE
595:__ZN3JSC12ArrayProfile16briefDescriptionERKNS_18ConcurrentJSLockerEPNS_9CodeBlockE
596:__ZN3JSC12ArrayProfile31briefDescriptionWithoutUpdatingERKNS_18ConcurrentJSLockerE
597:__ZN3JSC18BytecodeBasicBlock11shrinkToFitEv
598:i32s-div
599:__ZN3JSC18BytecodeBasicBlock11computeImplINS_9CodeBlockENS_11InstructionEEEvPT_PT0_jRN3WTF6VectorINSt3__210unique_ptrIS0_NSA_14default_deleteIS0_EEEELm0ENS8_15CrashOnOverflowELm16EEE
600:__ZN3JSC18BytecodeBasicBlockC2Ejj
601:__ZN3JSC18BytecodeBasicBlock12addSuccessorEPS0_
602:__ZN3JSC18BytecodeBasicBlockD2Ev
603:__ZN3WTF6VectorIjLm0ENS_15CrashOnOverflowELm16EE14expandCapacityEmPj
604:__ZN3JSC18BytecodeBasicBlock11computeImplINS_17UnlinkedCodeBlockENS_19UnlinkedInstructionEEEvPT_PT0_jRN3WTF6VectorINSt3__210unique_ptrIS0_NSA_14default_deleteIS0_EEEELm0ENS8_15CrashOnOverflowELm16EEE
605:__ZN3JSC14BytecodeDumperINS_17UnlinkedCodeBlockEE12dumpBytecodeERN3WTF11PrintStreamEPKNS_19UnlinkedInstructionERS8_RKNS3_7HashMapINS_10CodeOriginEPNS_17StructureStubInfoENS_25CodeOriginApproximateHashENS3_10HashTraitsISB_EENSF_ISD_EEEERKNSA_IiPvNS3_7IntHashIjEENSF_IiEENSF_ISL_EEEE
606:__ZN3JSC14BytecodeDumperINS_17UnlinkedCodeBlockEE33printLocationOpAndRegisterOperandERN3WTF11PrintStreamEiRPKNS_19UnlinkedInstructionEPKci
607:__ZNK3JSC14BytecodeDumperINS_17UnlinkedCodeBlockEE12registerNameEi
608:__ZN3WTF9toCStringIJA2_cPNS_10StringImplEA5_cEEENS_7CStringEDpRKT_
609:__ZN3WTF9toCStringIJNS_7CStringEA5_ciA2_cEEES1_DpRKT_
610:__ZN3JSC14BytecodeDumperINS_17UnlinkedCodeBlockEE12printUnaryOpERN3WTF11PrintStreamEiRPKNS_19UnlinkedInstructionEPKc
611:__ZN3JSC14BytecodeDumperINS_17UnlinkedCodeBlockEE13printBinaryOpERN3WTF11PrintStreamEiRPKNS_19UnlinkedInstructionEPKc
612:__ZN3WTF9toCStringIJPNS_17UniquedStringImplEA5_ciA2_cEEENS_7CStringEDpRKT_
613:__ZN3JSC14BytecodeDumperINS_17UnlinkedCodeBlockEE14printGetByIdOpERN3WTF11PrintStreamEiRPKNS_19UnlinkedInstructionE
614:__ZN3JSC14BytecodeDumperINS_17UnlinkedCodeBlockEE14printPutByIdOpERN3WTF11PrintStreamEiRPKNS_19UnlinkedInstructionEPKc
615:__ZN3JSC14BytecodeDumperINS_17UnlinkedCodeBlockEE20printConditionalJumpERN3WTF11PrintStreamEPKNS_19UnlinkedInstructionERS8_iPKc
616:__ZN3JSC14BytecodeDumperINS_17UnlinkedCodeBlockEE11printCallOpERN3WTF11PrintStreamEiRPKNS_19UnlinkedInstructionEPKcNS2_13CacheDumpModeERbRKNS3_7HashMapIiPvNS3_7IntHashIjEENS3_10HashTraitsIiEENSI_ISF_EEEE
617:__ZN3WTF9toCStringIJN3JSC7JSValueEA2_cNS1_15VirtualRegisterES3_EEENS_7CStringEDpRKT_
618:__ZN3JSCL13debugHookNameEi
619:__ZN3JSC14BytecodeDumperINS_17UnlinkedCodeBlockEE9dumpBlockEPS1_RKN3WTF6VectorINS_19UnlinkedInstructionELm0ENS4_20UnsafeVectorOverflowELm16EEERNS4_11PrintStreamERKNS4_7HashMapINS_10CodeOriginEPNS_17StructureStubInfoENS_25CodeOriginApproximateHashENS4_10HashTraitsISE_EENSI_ISG_EEEERKNSD_IiPvNS4_7IntHashIjEENSI_IiEENSI_ISO_EEEE
620:__ZN3JSC14BytecodeDumperINS_17UnlinkedCodeBlockEE15dumpIdentifiersERN3WTF11PrintStreamE
621:__ZN3JSC14BytecodeDumperINS_17UnlinkedCodeBlockEE13dumpConstantsERN3WTF11PrintStreamE
622:__ZN3JSC14BytecodeDumperINS_17UnlinkedCodeBlockEE11dumpRegExpsERN3WTF11PrintStreamE
623:__ZN3JSC14BytecodeDumperINS_17UnlinkedCodeBlockEE21dumpExceptionHandlersERN3WTF11PrintStreamE
624:__ZN3JSC14BytecodeDumperINS_17UnlinkedCodeBlockEE20dumpSwitchJumpTablesERN3WTF11PrintStreamE
625:__ZN3JSC14BytecodeDumperINS_17UnlinkedCodeBlockEE26dumpStringSwitchJumpTablesERN3WTF11PrintStreamE
626:__ZN3JSC14BytecodeDumperINS_9CodeBlockEE12dumpBytecodeEPS1_RN3WTF11PrintStreamEPKNS_11InstructionERS9_RKNS4_7HashMapINS_10CodeOriginEPNS_17StructureStubInfoENS_25CodeOriginApproximateHashENS4_10HashTraitsISC_EENSG_ISE_EEEERKNSB_IiPvNS4_7IntHashIjEENSG_IiEENSG_ISM_EEEE
627:__ZN3JSC14BytecodeDumperINS_9CodeBlockEE12dumpBytecodeERN3WTF11PrintStreamEPKNS_11InstructionERS8_RKNS3_7HashMapINS_10CodeOriginEPNS_17StructureStubInfoENS_25CodeOriginApproximateHashENS3_10HashTraitsISB_EENSF_ISD_EEEERKNSA_IiPvNS3_7IntHashIjEENSF_IiEENSF_ISL_EEEE
628:__ZN3JSC14BytecodeDumperINS_9CodeBlockEE33printLocationOpAndRegisterOperandERN3WTF11PrintStreamEiRPKNS_11InstructionEPKci
629:__ZNK3JSC14BytecodeDumperINS_9CodeBlockEE12registerNameEi
630:__ZN3JSC14BytecodeDumperINS_9CodeBlockEE18dumpValueProfilingERN3WTF11PrintStreamERPKNS_11InstructionERb
631:__ZN3JSC14BytecodeDumperINS_9CodeBlockEE12printUnaryOpERN3WTF11PrintStreamEiRPKNS_11InstructionEPKc
632:__ZN3JSC14BytecodeDumperINS_9CodeBlockEE13printBinaryOpERN3WTF11PrintStreamEiRPKNS_11InstructionEPKc
633:__ZN3JSC14BytecodeDumperINS_9CodeBlockEE18dumpArrayProfilingERN3WTF11PrintStreamERPKNS_11InstructionERb
634:__ZN3JSC14BytecodeDumperINS_9CodeBlockEE14printGetByIdOpERN3WTF11PrintStreamEiRPKNS_11InstructionE
635:__ZN3JSC14BytecodeDumperINS_9CodeBlockEE23printGetByIdCacheStatusERN3WTF11PrintStreamEiRKNS3_7HashMapINS_10CodeOriginEPNS_17StructureStubInfoENS_25CodeOriginApproximateHashENS3_10HashTraitsIS7_EENSB_IS9_EEEE
636:__ZN3JSC14BytecodeDumperINS_9CodeBlockEE14printPutByIdOpERN3WTF11PrintStreamEiRPKNS_11InstructionEPKc
637:__ZN3JSC14BytecodeDumperINS_9CodeBlockEE23printPutByIdCacheStatusERN3WTF11PrintStreamEiRKNS3_7HashMapINS_10CodeOriginEPNS_17StructureStubInfoENS_25CodeOriginApproximateHashENS3_10HashTraitsIS7_EENSB_IS9_EEEE
638:__ZN3JSC14BytecodeDumperINS_9CodeBlockEE20printConditionalJumpERN3WTF11PrintStreamEPKNS_11InstructionERS8_iPKc
639:__ZN3JSC14BytecodeDumperINS_9CodeBlockEE11printCallOpERN3WTF11PrintStreamEiRPKNS_11InstructionEPKcNS2_13CacheDumpModeERbRKNS3_7HashMapIiPvNS3_7IntHashIjEENS3_10HashTraitsIiEENSI_ISF_EEEE
640:__ZN3JSC14BytecodeDumperINS_9CodeBlockEE29dumpProfilesForBytecodeOffsetERN3WTF11PrintStreamEjRb
641:__ZN3JSC16ValueProfileBaseILj1EE16briefDescriptionERKNS_18ConcurrentJSLockerE
642:__ZN3JSC14BytecodeDumperINS_9CodeBlockEE9dumpBlockEPS1_RN3WTF15RefCountedArrayINS_11InstructionEEERNS4_11PrintStreamERKNS4_7HashMapINS_10CodeOriginEPNS_17StructureStubInfoENS_25CodeOriginApproximateHashENS4_10HashTraitsISC_EENSG_ISE_EEEERKNSB_IiPvNS4_7IntHashIjEENSG_IiEENSG_ISM_EEEE
643:__ZN3JSC14BytecodeDumperINS_9CodeBlockEE15dumpIdentifiersERN3WTF11PrintStreamE
644:__ZN3JSC14BytecodeDumperINS_9CodeBlockEE13dumpConstantsERN3WTF11PrintStreamE
645:__ZN3JSC14BytecodeDumperINS_9CodeBlockEE11dumpRegExpsERN3WTF11PrintStreamE
646:__ZN3JSC14BytecodeDumperINS_9CodeBlockEE21dumpExceptionHandlersERN3WTF11PrintStreamE
647:__ZN3JSC14BytecodeDumperINS_9CodeBlockEE20dumpSwitchJumpTablesERN3WTF11PrintStreamE
648:__ZN3JSC14BytecodeDumperINS_9CodeBlockEE26dumpStringSwitchJumpTablesERN3WTF11PrintStreamE
649:__ZN3JSC26BytecodeGeneratorification3runEv
650:__ZN3JSC25GeneratorLivenessAnalysis3runEv
651:__ZN3JSC17UnlinkedCodeBlock18addSwitchJumpTableEv
652:__ZN3WTF6VectorIiLm0ENS_15CrashOnOverflowELm16EE4fillERKim
653:__ZN3WTF6VectorIN3JSC19UnlinkedInstructionELm0ENS_15CrashOnOverflowELm16EE6appendIS2_EEvPKT_m
654:__ZN3JSC26BytecodeGeneratorification24storageForGeneratorLocalEj
655:__ZN3JSC16BytecodeRewriter14removeBytecodeEj
656:__ZN3JSC12opcodeLengthENS_8OpcodeIDE
657:__ZN3WTF6VectorIN3JSC16BytecodeRewriter9InsertionELm8ENS_15CrashOnOverflowELm16EE14appendSlowCaseIS3_EEvOT_
658:i32u-div
659:__ZN3WTF6VectorIN3JSC16BytecodeRewriter9InsertionELm8ENS_15CrashOnOverflowELm16EE15reserveCapacityEm
660:__ZN3WTF6VectorISt8optionalIN3JSC26BytecodeGeneratorification7StorageEELm0ENS_15CrashOnOverflowELm16EE6resizeEm
661:__ZN3JSC11SymbolTable3setINS_16SymbolTableEntryEEEvRKNS_18ConcurrentJSLockerEPN3WTF17UniquedStringImplEOT_
662:__ZN3WTF7HashMapINS_6RefPtrINS_17UniquedStringImplEEEN3JSC16SymbolTableEntryENS4_17IdentifierRepHashENS_10HashTraitsIS3_EENS4_26SymbolTableIndexHashTraitsEE9inlineSetIS3_S5_EENS_18HashTableAddResultINS_17HashTableIteratorIS3_NS_12KeyValuePairIS3_S5_EENS_24KeyValuePairKeyExtractorISF_EES6_NSA_18KeyValuePairTraitsES8_EEEEOT_OT0_
663:__ZN3WTF9HashTableINS_6RefPtrINS_17UniquedStringImplEEENS_12KeyValuePairIS3_N3JSC16SymbolTableEntryEEENS_24KeyValuePairKeyExtractorIS7_EENS5_17IdentifierRepHashENS_7HashMapIS3_S6_SA_NS_10HashTraitsIS3_EENS5_26SymbolTableIndexHashTraitsEE18KeyValuePairTraitsESD_E6rehashEjPS7_
664:__ZN3WTF9HashTableINS_6RefPtrINS_17UniquedStringImplEEENS_12KeyValuePairIS3_N3JSC16SymbolTableEntryEEENS_24KeyValuePairKeyExtractorIS7_EENS5_17IdentifierRepHashENS_7HashMapIS3_S6_SA_NS_10HashTraitsIS3_EENS5_26SymbolTableIndexHashTraitsEE18KeyValuePairTraitsESD_E8reinsertEOS7_
665:__ZN3WTF6VectorISt8optionalIN3JSC26BytecodeGeneratorification7StorageEELm0ENS_15CrashOnOverflowELm16EE15reserveCapacityEm
666:__ZN3JSC17UnlinkedCodeBlock25createRareDataIfNecessaryEv
667:__ZN3WTF6VectorIN3JSC23UnlinkedSimpleJumpTableELm0ENS_15CrashOnOverflowELm16EE14appendSlowCaseIS2_EEvOT_
668:__ZN3WTF6VectorIN3JSC23UnlinkedSimpleJumpTableELm0ENS_15CrashOnOverflowELm16EE15reserveCapacityEm
669:__ZN3WTF13LockAlgorithmIhLh32ELh64EE8lockSlowERNS_6AtomicIhEE
670:__ZN3JSC17UnlinkedCodeBlock8RareDataD2Ev
671:__ZN3WTF13LockAlgorithmIhLh32ELh64EE10unlockSlowERNS_6AtomicIhEENS1_8FairnessE
672:__ZN3WTF22ScopedLambdaRefFunctorIFlNS_10ParkingLot12UnparkResultEEZNS_13LockAlgorithmIhLh32ELh64EE10unlockSlowERNS_6AtomicIhEENS5_8FairnessEEUlS2_E_E12implFunctionEPvS2_
673:__ZN3WTF6VectorIN3JSC23UnlinkedStringJumpTableELm0ENS_15CrashOnOverflowELm16EED2Ev
674:__ZN3WTF22ScopedLambdaRefFunctorIFbvEZNS_10ParkingLot14compareAndParkIhiEENS2_10ParkResultEPKNS_6AtomicIT_EET0_EUlvE_E12implFunctionEPv
675:__ZN3JSC27BytecodeLivenessPropagationINS_25GeneratorLivenessAnalysisEE19runLivenessFixpointINS_13BytecodeGraphINS_17UnlinkedCodeBlockEEEEEvRT_
676:__ZN3JSC27BytecodeLivenessPropagationINS_25GeneratorLivenessAnalysisEE31getLivenessInfoAtBytecodeOffsetINS_13BytecodeGraphINS_17UnlinkedCodeBlockEEEEEN3WTF13FastBitVectorERT_j
677:__ZN3JSC27BytecodeLivenessPropagationINS_25GeneratorLivenessAnalysisEE37computeLocalLivenessForBytecodeOffsetINS_13BytecodeGraphINS_17UnlinkedCodeBlockEEEEEbRT_PNS_18BytecodeBasicBlockEjRN3WTF13FastBitVectorE
678:__ZN3JSC27BytecodeLivenessPropagationINS_25GeneratorLivenessAnalysisEE19stepOverInstructionINS_13BytecodeGraphINS_17UnlinkedCodeBlockEEEZNS2_19stepOverInstructionIS6_EEvRT_jRN3WTF13FastBitVectorEEUljE_ZNS7_IS6_EEvS9_jSC_EUljE0_EEvS9_jSC_RKT0_RKT1_
679:__ZN3JSC28computeDefsForBytecodeOffsetINS_17UnlinkedCodeBlockENS_19UnlinkedInstructionEZNS_27BytecodeLivenessPropagationINS_25GeneratorLivenessAnalysisEE19stepOverInstructionINS_13BytecodeGraphIS1_EEZNS5_19stepOverInstructionIS8_EEvRT_jRN3WTF13FastBitVectorEEUljE_ZNS9_IS8_EEvSB_jSE_EUljE0_EEvSB_jSE_RKT0_RKT1_EUlPS1_PS2_NS_8OpcodeIDEiE_EEvPSA_SP_PSH_SM_
680:__ZN3JSC28computeUsesForBytecodeOffsetINS_17UnlinkedCodeBlockEZNS_27BytecodeLivenessPropagationINS_25GeneratorLivenessAnalysisEE19stepOverInstructionINS_13BytecodeGraphIS1_EEZNS4_19stepOverInstructionIS7_EEvRT_jRN3WTF13FastBitVectorEEUljE_ZNS8_IS7_EEvSA_jSD_EUljE0_EEvSA_jSD_RKT0_RKT1_EUlPS1_PNS_19UnlinkedInstructionENS_8OpcodeIDEiE0_SN_EEvPS9_SP_PSJ_SI_
681:__ZN3JSC25performGeneratorificationEPNS_17UnlinkedCodeBlockERN3WTF6VectorINS_19UnlinkedInstructionELm0ENS2_20UnsafeVectorOverflowELm16EEEPNS_11SymbolTableEi
682:__ZN3JSC26BytecodeGeneratorificationC2EPNS_17UnlinkedCodeBlockERN3WTF6VectorINS_19UnlinkedInstructionELm0ENS3_20UnsafeVectorOverflowELm16EEEPNS_11SymbolTableEi
683:__ZN3JSC26BytecodeGeneratorificationD2Ev
684:__ZN3WTF6VectorIN3JSC9YieldDataELm0ENS_15CrashOnOverflowELm16EE6resizeEm
685:__ZN3WTF6VectorIN3JSC9YieldDataELm0ENS_15CrashOnOverflowELm16EE15reserveCapacityEm
686:__ZN3JSC25BytecodeIntrinsicRegistryC2ERNS_2VME
687:__ZN3WTF7HashMapINS_6RefPtrINS_17UniquedStringImplEEEMN3JSC21BytecodeIntrinsicNodeEFPNS4_10RegisterIDERNS4_17BytecodeGeneratorES7_ENS4_17IdentifierRepHashENS_10HashTraitsIS3_EENSD_ISB_EEE3addISB_EENS_18HashTableAddResultINS_17HashTableIteratorIS3_NS_12KeyValuePairIS3_SB_EENS_24KeyValuePairKeyExtractorISL_EESC_NSG_18KeyValuePairTraitsESE_EEEEOS3_OT_
688:__ZN3WTF9HashTableINS_6RefPtrINS_17UniquedStringImplEEENS_12KeyValuePairIS3_MN3JSC21BytecodeIntrinsicNodeEFPNS5_10RegisterIDERNS5_17BytecodeGeneratorES8_EEENS_24KeyValuePairKeyExtractorISD_EENS5_17IdentifierRepHashENS_7HashMapIS3_SC_SG_NS_10HashTraitsIS3_EENSI_ISC_EEE18KeyValuePairTraitsESJ_E6rehashEjPSD_
689:__ZN3WTF9HashTableINS_6RefPtrINS_17UniquedStringImplEEENS_12KeyValuePairIS3_MN3JSC21BytecodeIntrinsicNodeEFPNS5_10RegisterIDERNS5_17BytecodeGeneratorES8_EEENS_24KeyValuePairKeyExtractorISD_EENS5_17IdentifierRepHashENS_7HashMapIS3_SC_SG_NS_10HashTraitsIS3_EENSI_ISC_EEE18KeyValuePairTraitsESJ_E8reinsertEOSD_
690:__ZNK3JSC25BytecodeIntrinsicRegistry6lookupERKNS_10IdentifierE
691:__ZN3JSC25BytecodeIntrinsicRegistry22ModuleInstantiateValueERNS_17BytecodeGeneratorE
692:__ZN3JSC24BytecodeLivenessAnalysisC2EPNS_9CodeBlockE
693:__ZN3JSC27BytecodeLivenessPropagationINS_24BytecodeLivenessAnalysisEE19runLivenessFixpointINS_13BytecodeGraphINS_9CodeBlockEEEEEvRT_
694:__ZN3JSC24BytecodeLivenessAnalysis11dumpResultsEv
695:__ZN3JSC24BytecodeLivenessAnalysis31getLivenessInfoAtBytecodeOffsetEjRN3WTF13FastBitVectorE
696:__ZN3JSC27BytecodeLivenessPropagationINS_24BytecodeLivenessAnalysisEE37computeLocalLivenessForBytecodeOffsetINS_13BytecodeGraphINS_9CodeBlockEEEEEbRT_PNS_18BytecodeBasicBlockEjRN3WTF13FastBitVectorE
697:__ZN3JSC27BytecodeLivenessPropagationINS_24BytecodeLivenessAnalysisEE19stepOverInstructionINS_13BytecodeGraphINS_9CodeBlockEEEZNS2_19stepOverInstructionIS6_EEvRT_jRN3WTF13FastBitVectorEEUljE_ZNS7_IS6_EEvS9_jSC_EUljE0_EEvS9_jSC_RKT0_RKT1_
698:__ZN3JSC28computeDefsForBytecodeOffsetINS_9CodeBlockENS_11InstructionEZNS_27BytecodeLivenessPropagationINS_24BytecodeLivenessAnalysisEE19stepOverInstructionINS_13BytecodeGraphIS1_EEZNS5_19stepOverInstructionIS8_EEvRT_jRN3WTF13FastBitVectorEEUljE_ZNS9_IS8_EEvSB_jSE_EUljE0_EEvSB_jSE_RKT0_RKT1_EUlPS1_PS2_NS_8OpcodeIDEiE_EEvPSA_SP_PSH_SM_
699:__ZN3JSC28computeUsesForBytecodeOffsetINS_9CodeBlockEZNS_27BytecodeLivenessPropagationINS_24BytecodeLivenessAnalysisEE19stepOverInstructionINS_13BytecodeGraphIS1_EEZNS4_19stepOverInstructionIS7_EEvRT_jRN3WTF13FastBitVectorEEUljE_ZNS8_IS7_EEvSA_jSD_EUljE0_EEvSA_jSD_RKT0_RKT1_EUlPS1_PNS_11InstructionENS_8OpcodeIDEiE0_SN_EEvPS9_SP_PSJ_SI_
700:__ZN3JSC16BytecodeRewriter17applyModificationEv
701:__ZN3JSC16BytecodeRewriter27adjustJumpTargetsInFragmentEjRNS0_9InsertionE
702:__ZN3WTF6VectorIN3JSC19UnlinkedInstructionELm0ENS_20UnsafeVectorOverflowELm16EE6insertIS2_EEvmPKT_m
703:__ZN3JSC16BytecodeRewriter16adjustJumpTargetENS0_14InsertionPointES1_
704:__ZN3JSC16BytecodeRewriter7executeEv
705:__ZN3JSC16BytecodeRewriter10insertImplENS0_14InsertionPointENS0_13IncludeBranchEON3WTF6VectorINS_19UnlinkedInstructionELm0ENS3_15CrashOnOverflowELm16EEE
706:__ZN3JSC9CodeBlock13visitChildrenEPNS_6JSCellERNS_11SlotVisitorE
707:__ZN3JSC9CodeBlock13estimatedSizeEPNS_6JSCellE
708:__ZN3JSC9CodeBlock13visitChildrenERNS_11SlotVisitorE
709:__ZN3JSC9CodeBlock29stronglyVisitStrongReferencesERKNS_18ConcurrentJSLockerERNS_11SlotVisitorE
710:__ZN3JSC9CodeBlock20propagateTransitionsERKNS_18ConcurrentJSLockerERNS_11SlotVisitorE
711:__ZN3JSC9CodeBlock22UnconditionalFinalizerD0Ev
712:__ZN3JSC9CodeBlock22UnconditionalFinalizer23finalizeUnconditionallyEv
713:__ZN3JSC9CodeBlock36updateAllPredictionsAndCountLivenessERjS1_
714:__ZN3JSC9CodeBlock25updateAllArrayPredictionsEv
715:__ZN3JSC9CodeBlock8jettisonENS_8Profiler14JettisonReasonENS_18ReoptimizationModeEPKNS_10FireDetailE
716:__ZN3JSC9CodeBlock25finalizeLLIntInlineCachesEv
717:__ZN3WTF9HashTableIPN3JSC9StructureENS_12KeyValuePairIS3_NS_3BagINS1_45LLIntPrototypeLoadAdaptiveStructureWatchpointEEEEENS_24KeyValuePairKeyExtractorIS8_EENS_7PtrHashIS3_EENS_7HashMapIS3_S7_SC_NS_10HashTraitsIS3_EENSE_IS7_EEE18KeyValuePairTraitsESF_E6rehashEjPS8_
718:__ZNK3JSC9CodeBlock19dumpAssumingJITTypeERN3WTF11PrintStreamENS_7JITCode7JITTypeE
719:__ZNK3JSC9CodeBlock22hashAsStringIfPossibleEv
720:__ZN3WTF9HashTableIPN3JSC9StructureENS_12KeyValuePairIS3_NS_3BagINS1_45LLIntPrototypeLoadAdaptiveStructureWatchpointEEEEENS_24KeyValuePairKeyExtractorIS8_EENS_7PtrHashIS3_EENS_7HashMapIS3_S7_SC_NS_10HashTraitsIS3_EENSE_IS7_EEE18KeyValuePairTraitsESF_E8reinsertEOS8_
721:__ZN3WTF11PrintStream9printImplIA8_cJN3JSC8Profiler14JettisonReasonEA14_cbA12_cNS_11PointerDumpINS3_10FireDetailEEEEEEvRKT_DpRKT0_
722:__ZN3JSC9CodeBlock22WeakReferenceHarvester19visitWeakReferencesERNS_11SlotVisitorE
723:__ZNK3JSC9CodeBlock12inferredNameEv
724:__ZNK3JSC9CodeBlock4hashEv
725:__ZNK3JSC9CodeBlock18sourceCodeForToolsEv
726:__ZNK3JSC9CodeBlock4dumpERN3WTF11PrintStreamE
727:__ZN3JSC9CodeBlock10dumpSourceERN3WTF11PrintStreamE
728:__ZN3JSC9CodeBlock12dumpBytecodeEv
729:__ZN3JSC9CodeBlock12dumpBytecodeERN3WTF11PrintStreamE
730:__ZN3JSC9CodeBlock12dumpBytecodeERN3WTF11PrintStreamEjRKNS1_7HashMapINS_10CodeOriginEPNS_17StructureStubInfoENS_25CodeOriginApproximateHashENS1_10HashTraitsIS5_EENS9_IS7_EEEERKNS4_IiPvNS1_7IntHashIjEENS9_IiEENS9_ISF_EEEE
731:__ZN3JSC9CodeBlock16setNumParametersEi
732:__ZN3JSC9CodeBlock8RareDataD2Ev
733:__ZN3WTF15SegmentedVectorIN3JSC12ArrayProfileELm4EED2Ev
734:__ZN3WTF15SegmentedVectorIN3JSC15RareCaseProfileELm8EED2Ev
735:__ZN3WTF6VectorIPNS_15SegmentedVectorIN3JSC15RareCaseProfileELm8EE7SegmentELm0ENS_15CrashOnOverflowELm16EED2Ev
736:__ZN3WTF6VectorIiLm0ENS_15CrashOnOverflowELm16EEaSERKS2_
737:__ZN3WTF6VectorIN3JSC7JSValueELm0ENS_15CrashOnOverflowELm16EEaSERKS4_
738:__ZN3JSC9CodeBlockC2EPNS_2VMEPNS_9StructureEPNS_16ScriptExecutableEPNS_17UnlinkedCodeBlockEPNS_7JSScopeEON3WTF6RefPtrINS_14SourceProviderEEEjj
739:i32u-rem
740:__ZN3JSC9CodeBlock14finishCreationERNS_2VMEPNS_16ScriptExecutableEPNS_17UnlinkedCodeBlockEPNS_7JSScopeE
741:__ZN3JSC9CodeBlock20setConstantRegistersERKN3WTF6VectorINS_12WriteBarrierINS_7UnknownEEELm0ENS1_15CrashOnOverflowELm16EEERKNS2_INS_24SourceCodeRepresentationELm0ES6_Lm16EEE
742:__ZN3JSC9CodeBlock33setConstantIdentifierSetRegistersERNS_2VMERKN3WTF6VectorINSt3__24pairINS3_7HashSetINS3_6RefPtrINS3_17UniquedStringImplEEENS_17IdentifierRepHashENS3_10HashTraitsISA_EEEEjEELm0ENS3_15CrashOnOverflowELm16EEE
743:__ZN3WTF6VectorINS0_IN3JSC7JSValueELm0ENS_15CrashOnOverflowELm16EEELm0ES3_Lm16EE14expandCapacityEm
744:__ZN3WTF6VectorIN3JSC15StringJumpTableELm0ENS_15CrashOnOverflowELm16EE14expandCapacityEm
745:__ZN3WTF7HashMapINS_6RefPtrINS_10StringImplEEEN3JSC14OffsetLocationENS_10StringHashENS_10HashTraitsIS3_EENS7_IS5_EEE3addIRS5_EENS_18HashTableAddResultINS_17HashTableIteratorIS3_NS_12KeyValuePairIS3_S5_EENS_24KeyValuePairKeyExtractorISG_EES6_NSA_18KeyValuePairTraitsES8_EEEERKS3_OT_
746:__ZN3WTF15SegmentedVectorIN3JSC12ArrayProfileELm4EE4growEm
747:__ZN3JSC23ObjectAllocationProfile10initializeERNS_2VMEPNS_14JSGlobalObjectEPNS_6JSCellEPNS_8JSObjectEj
748:__ZN3WTF6VectorIN3JSC12WriteBarrierINS1_7UnknownEEELm0ENS_15CrashOnOverflowELm16EE6appendEOS4_
749:__ZN3WTF6VectorIN3JSC24SourceCodeRepresentationELm0ENS_15CrashOnOverflowELm16EE6appendEOS2_
750:__ZN3WTF6VectorINS_3RefIN3JSC14StructureShapeEEELm0ENS_15CrashOnOverflowELm16EED2Ev
751:__ZN3JSC18FunctionExecutable22returnStatementTypeSetEv
752:__ZN3JSC9CodeBlock48insertBasicBlockBoundariesForControlFlowProfilerERN3WTF15RefCountedArrayINS_11InstructionEEE
753:__ZN3JSC14StructureShapeD2Ev
754:__ZNK3JSC12_GLOBAL__N_120PutToScopeFireDetail4dumpERN3WTF11PrintStreamE
755:__ZN3JSC23ObjectAllocationProfile28possibleDefaultPropertyCountERNS_2VMEPNS_8JSObjectE
756:__ZNK3JSC8JSObject9getDirectERNS_2VMENS_12PropertyNameE
757:__ZN3WTF9HashTableINS_6RefPtrINS_10StringImplEEENS_12KeyValuePairIS3_N3JSC14OffsetLocationEEENS_24KeyValuePairKeyExtractorIS7_EENS_10StringHashENS_7HashMapIS3_S6_SA_NS_10HashTraitsIS3_EENSC_IS6_EEE18KeyValuePairTraitsESD_E6rehashEjPS7_
758:__ZN3JSC5JSSet6createEPNS_9ExecStateERNS_2VMEPNS_9StructureE
759:__ZN3JSC13jsOwnedStringEPNS_2VMERKN3WTF6StringE
760:__ZN3JSC11HashMapImplINS_13HashMapBucketINS_20HashMapBucketDataKeyEEEE6rehashEPNS_9ExecStateE
761:__ZN3JSC11HashMapImplINS_13HashMapBucketINS_20HashMapBucketDataKeyEEEE14finishCreationEPNS_9ExecStateERNS_2VME
762:__ZN3WTF6VectorIN3JSC12WriteBarrierINS1_7UnknownEEELm0ENS_15CrashOnOverflowELm16EE6resizeEm
763:__ZN3JSC9CodeBlockD2Ev
764:__ZN3JSC9CodeBlock19unlinkIncomingCallsEv
765:__ZN3JSC9CodeBlock11visitWeaklyERNS_11SlotVisitorE
766:i64s-div
767:__ZN3JSC9CodeBlock25shouldJettisonDueToOldAgeERKNS_18ConcurrentJSLockerE
768:__ZN3JSC9CodeBlock22clearLLIntGetByIdCacheEPNS_11InstructionE
769:__ZN3JSC9CodeBlock24handlerForBytecodeOffsetEjNS_15RequiredHandlerE
770:__ZN3JSC9CodeBlock15handlerForIndexEjNS_15RequiredHandlerE
771:__ZN3JSC9CodeBlock27lineNumberForBytecodeOffsetEj
772:__ZN3JSC9CodeBlock29columnNumberForBytecodeOffsetEj
773:__ZNK3JSC9CodeBlock32expressionRangeForBytecodeOffsetEjRiS1_S1_RjS2_
774:__ZN3JSC9CodeBlock26hasOpDebugForLineAndColumnEjj
775:__ZN3JSC9CodeBlock16linkIncomingCallEPNS_9ExecStateEPNS_17LLIntCallLinkInfoE
776:__ZN3WTF11PrintStream9printImplINS_11PointerDumpIN3JSC9CodeBlockEEEJA5_cS4_A2_cEEEvRKT_DpRKT0_
777:__ZN3JSC9CodeBlock15addArrayProfileERKNS_18ConcurrentJSLockerEj
778:__ZN3JSC9CodeBlock20getOrAddArrayProfileEj
779:__ZN3JSC9CodeBlock18stackPointerOffsetEv
780:__ZN3JSC9CodeBlock8validateEv
781:__ZN3JSC9CodeBlock22beginValidationDidFailEv
782:__ZN3WTF7dataLogIJA13_cNS_13FastBitVectorEA2_cEEEvDpRKT_
783:__ZN3JSC9CodeBlock20endValidationDidFailEv
784:__ZN3WTF7dataLogIJA2_cEEEvDpRKT_
785:__ZN3WTF7dataLogIJA21_cEEEvDpRKT_
786:__ZN3JSC9CodeBlock13addBreakpointEj
787:__ZN3JSC9CodeBlock15setSteppingModeENS0_12SteppingModeE
788:__ZN3JSC9CodeBlock32rareCaseProfileForBytecodeOffsetEi
789:__ZN3JSC9CodeBlock29arithProfileForBytecodeOffsetEi
790:__ZN3JSC9CodeBlock17arithProfileForPCEPNS_11InstructionE
791:__ZN3JSC9CodeBlock31bytecodeOffsetFromCallSiteIndexENS_13CallSiteIndexE
792:__ZN3JSC13CodeBlockHashC2ERKNS_10SourceCodeENS_22CodeSpecializationKindE
793:__ZNK3JSC13CodeBlockHash4dumpERN3WTF11PrintStreamE
794:__ZNK3JSC10CodeOrigin11inlineStackEv
795:__ZNK3JSC10CodeOrigin4dumpERN3WTF11PrintStreamE
796:__ZN3WTF13printInternalERNS_11PrintStreamEN3JSC8CodeTypeE
797:__ZN3JSC19DirectEvalCodeCache7setSlowEPNS_9ExecStateEPNS_6JSCellERKN3WTF6StringENS_13CallSiteIndexEPNS_20DirectEvalExecutableE
798:__ZN3WTF7HashMapIN3JSC19DirectEvalCodeCache8CacheKeyENS1_12WriteBarrierINS1_20DirectEvalExecutableEEENS3_4HashENS_21SimpleClassHashTraitsIS3_EENS_10HashTraitsIS6_EEE9inlineSetIS3_S6_EENS_18HashTableAddResultINS_17HashTableIteratorIS3_NS_12KeyValuePairIS3_S6_EENS_24KeyValuePairKeyExtractorISH_EES7_NSC_18KeyValuePairTraitsES9_EEEEOT_OT0_
799:__ZN3WTF9HashTableIN3JSC19DirectEvalCodeCache8CacheKeyENS_12KeyValuePairIS3_NS1_12WriteBarrierINS1_20DirectEvalExecutableEEEEENS_24KeyValuePairKeyExtractorIS8_EENS3_4HashENS_7HashMapIS3_S7_SB_NS_21SimpleClassHashTraitsIS3_EENS_10HashTraitsIS7_EEE18KeyValuePairTraitsESE_E6rehashEjPS8_
800:__ZN3WTF9HashTableIN3JSC19DirectEvalCodeCache8CacheKeyENS_12KeyValuePairIS3_NS1_12WriteBarrierINS1_20DirectEvalExecutableEEEEENS_24KeyValuePairKeyExtractorIS8_EENS3_4HashENS_7HashMapIS3_S7_SB_NS_21SimpleClassHashTraitsIS3_EENS_10HashTraitsIS7_EEE18KeyValuePairTraitsESE_E16lookupForWritingINS_22IdentityHashTranslatorISI_SB_EES3_EENSt3__24pairIPS8_bEERKT0_
801:__ZN3JSC19DirectEvalCodeCache14visitAggregateERNS_11SlotVisitorE
802:__ZN3JSC13EvalCodeBlock7destroyEPNS_6JSCellE
803:__ZN3JSC16ExecutionCounterILNS_15CountingVariantE0EEC2Ev
804:f64-to-int
805:__ZN3JSC16ExecutionCounterILNS_15CountingVariantE0EE15setNewThresholdEiPNS_9CodeBlockE
806:__ZN3JSC16ExecutionCounterILNS_15CountingVariantE0EE17deferIndefinitelyEv
807:__ZN3JSC16exitKindToStringENS_8ExitKindE
808:__ZN3WTF10TinyPtrSetIPN3JSC9StructureEE12addOutOfLineES3_
809:__ZNK3JSC15InlineCallFrame28dumpBriefFunctionInformationERN3WTF11PrintStreamE
810:__ZN3JSC15SimpleJumpTable14offsetForValueEii
811:__ZN3JSC45LLIntPrototypeLoadAdaptiveStructureWatchpoint12fireInternalERKNS_10FireDetailE
812:__ZN3JSC45LLIntPrototypeLoadAdaptiveStructureWatchpointC2ERKNS_23ObjectPropertyConditionEPNS_11InstructionE
813:__ZN3JSC45LLIntPrototypeLoadAdaptiveStructureWatchpoint7installEv
814:__ZNK3JSC23ObjectPropertyCondition13dumpInContextERN3WTF11PrintStreamEPNS_11DumpContextE
815:__ZNK3JSC23ObjectPropertyCondition4dumpERN3WTF11PrintStreamE
816:__ZNK3JSC23ObjectPropertyCondition44isStillValidAssumingImpurePropertyWatchpointEv
817:__ZNK3JSC23ObjectPropertyCondition11isWatchableENS_17PropertyCondition18WatchabilityEffortE
818:__ZNK3JSC23ObjectPropertyCondition38attemptToMakeEquivalenceWithoutBarrierERNS_2VME
819:__ZN3WTF6VectorIN3JSC23ObjectPropertyConditionELm0ENS_15CrashOnOverflowELm16EE14expandCapacityEmPS2_
820:__ZN3JSC26ObjectPropertyConditionSet6createERKN3WTF6VectorINS_23ObjectPropertyConditionELm0ENS1_15CrashOnOverflowELm16EEE
821:__ZN3WTF6VectorIN3JSC23ObjectPropertyConditionELm0ENS_15CrashOnOverflowELm16EEaSERKS4_
822:__ZN3JSC33generateConditionsForPropertyMissERNS_2VMEPNS_6JSCellEPNS_9ExecStateEPNS_9StructureEPN3WTF17UniquedStringImplE
823:__ZN3JSC41generateConditionsForPrototypePropertyHitERNS_2VMEPNS_6JSCellEPNS_9ExecStateEPNS_9StructureEPNS_8JSObjectEPN3WTF17UniquedStringImplE
824:__ZN3JSC12_GLOBAL__N_117generateConditionERNS_2VMEPNS_6JSCellEPNS_8JSObjectEPN3WTF17UniquedStringImplENS_17PropertyCondition4KindE
825:__ZN3JSC35generateConditionForSelfEquivalenceERNS_2VMEPNS_6JSCellEPNS_8JSObjectEPN3WTF17UniquedStringImplE
826:__ZN3JSC33computePreciseJumpTargetsInternalILNS_29ComputePreciseJumpTargetsModeE0ENS_9CodeBlockENS_11InstructionELm32EEEvPT0_PT1_jRN3WTF6VectorIjXT2_ENS8_15CrashOnOverflowELm16EEE
827:__ZN3WTF6VectorIjLm32ENS_15CrashOnOverflowELm16EE14expandCapacityEmPj
828:__ZN3WTF6VectorIjLm32ENS_15CrashOnOverflowELm16EE6resizeEm
829:__ZN3WTF6VectorIjLm32ENS_15CrashOnOverflowELm16EE14shrinkCapacityEm
830:__ZN3JSC33computePreciseJumpTargetsInternalILNS_29ComputePreciseJumpTargetsModeE0ENS_17UnlinkedCodeBlockENS_19UnlinkedInstructionELm32EEEvPT0_PT1_jRN3WTF6VectorIjXT2_ENS8_15CrashOnOverflowELm16EEE
831:__ZN3JSC27recomputePreciseJumpTargetsEPNS_17UnlinkedCodeBlockEPNS_19UnlinkedInstructionEjRN3WTF6VectorIjLm0ENS4_15CrashOnOverflowELm16EEE
832:__ZN3JSC33computePreciseJumpTargetsInternalILNS_29ComputePreciseJumpTargetsModeE1ENS_17UnlinkedCodeBlockENS_19UnlinkedInstructionELm0EEEvPT0_PT1_jRN3WTF6VectorIjXT2_ENS8_15CrashOnOverflowELm16EEE
833:__ZN3JSC32findJumpTargetsForBytecodeOffsetEPNS_9CodeBlockEPNS_11InstructionEjRN3WTF6VectorIjLm1ENS4_15CrashOnOverflowELm16EEE
834:__ZN3WTF6VectorIjLm1ENS_15CrashOnOverflowELm16EE14expandCapacityEmPj
835:__ZN3JSC32findJumpTargetsForBytecodeOffsetEPNS_17UnlinkedCodeBlockEPNS_19UnlinkedInstructionEjRN3WTF6VectorIjLm1ENS4_15CrashOnOverflowELm16EEE
836:__ZNK3JSC17PropertyCondition13dumpInContextERN3WTF11PrintStreamEPNS_11DumpContextE
837:__ZN3WTF13printInternalERNS_11PrintStreamEN3JSC17PropertyCondition4KindE
838:__ZNK3JSC17PropertyCondition44isStillValidAssumingImpurePropertyWatchpointEPNS_9StructureEPNS_8JSObjectE
839:__ZNK3JSC17PropertyCondition20isWatchableWhenValidEPNS_9StructureENS0_18WatchabilityEffortE
840:__ZNK3JSC17PropertyCondition11isWatchableEPNS_9StructureEPNS_8JSObjectENS0_18WatchabilityEffortE
841:__ZNK3JSC17PropertyCondition38attemptToMakeEquivalenceWithoutBarrierERNS_2VMEPNS_8JSObjectE
842:__ZN3WTF13printInternalERNS_11PrintStreamEN3JSC12PutByIdFlagsE
843:__ZN3JSC15dumpSpeculationERN3WTF11PrintStreamEy
844:__ZN3JSC24speculationFromClassInfoEPKNS_9ClassInfoE
845:f64-to-int64
846:__ZN3JSC20speculationFromValueENS_7JSValueE
847:__ZN3JSC22initializeSuperSamplerEv
848:__ZNKSt3__210__function6__funcIZN3JSC22initializeSuperSamplerEvE3__0NS_9allocatorIS3_EEFvvEE7__cloneEv
849:__ZNKSt3__210__function6__funcIZN3JSC22initializeSuperSamplerEvE3__0NS_9allocatorIS3_EEFvvEE7__cloneEPNS0_6__baseIS6_EE
850:__ZNSt3__210__function6__funcIZN3JSC22initializeSuperSamplerEvE3__0NS_9allocatorIS3_EEFvvEEclEv
851:__ZNKSt3__210__function6__funcIZN3JSC22initializeSuperSamplerEvE3__0NS_9allocatorIS3_EEFvvEE6targetERKSt9type_info
852:__ZNKSt3__210__function6__funcIZN3JSC22initializeSuperSamplerEvE3__0NS_9allocatorIS3_EEFvvEE11target_typeEv
853:__ZZN3JSC22initializeSuperSamplerEvENK3__0clEv
854:__ZN3JSC22printSuperSamplerStateEv
855:__ZN3JSC22resetSuperSamplerStateEv
856:__ZN3JSC5mergeENS_12ToThisStatusES0_
857:__ZN3WTF13printInternalERNS_11PrintStreamEN3JSC12ToThisStatusE
858:__ZN3JSC17UnlinkedCodeBlock13visitChildrenEPNS_6JSCellERNS_11SlotVisitorE
859:__ZN3JSC17UnlinkedCodeBlock13estimatedSizeEPNS_6JSCellE
860:__ZN3JSC17UnlinkedCodeBlockC2EPNS_2VMEPNS_9StructureENS_8CodeTypeERKNS_14ExecutableInfoENS_12DebuggerModeE
861:__ZN3JSC17UnlinkedCodeBlock27lineNumberForBytecodeOffsetEj
862:__ZNK3JSC17UnlinkedCodeBlock32expressionRangeForBytecodeOffsetEjRiS1_S1_RjS2_
863:__ZN3JSC17UnlinkedCodeBlock17addExpressionInfoEjiiijj
864:__ZN3JSC17UnlinkedCodeBlock43typeProfilerExpressionInfoForBytecodeOffsetEjRjS1_
865:__ZN3JSC17UnlinkedCodeBlock29addTypeProfilerExpressionInfoEjjj
866:__ZN3WTF7HashMapIjN3JSC17UnlinkedCodeBlock8RareData27TypeProfilerExpressionRangeENS_7IntHashIjEENS_10HashTraitsIjEENS7_IS4_EEE9inlineSetIRKjRS4_EENS_18HashTableAddResultINS_17HashTableIteratorIjNS_12KeyValuePairIjS4_EENS_24KeyValuePairKeyExtractorISI_EES6_NSA_18KeyValuePairTraitsES8_EEEEOT_OT0_
867:__ZN3WTF9HashTableIjNS_12KeyValuePairIjN3JSC17UnlinkedCodeBlock8RareData27TypeProfilerExpressionRangeEEENS_24KeyValuePairKeyExtractorIS6_EENS_7IntHashIjEENS_7HashMapIjS5_SA_NS_10HashTraitsIjEENSC_IS5_EEE18KeyValuePairTraitsESD_E6rehashEjPS6_
868:__ZN3JSC17UnlinkedCodeBlockD2Ev
869:__ZN3WTF6VectorINSt3__24pairINS_7HashSetINS_6RefPtrINS_17UniquedStringImplEEEN3JSC17IdentifierRepHashENS_10HashTraitsIS6_EEEEjEELm0ENS_15CrashOnOverflowELm16EED2Ev
870:__ZN3JSC17UnlinkedCodeBlock15setInstructionsENSt3__210unique_ptrINS_25UnlinkedInstructionStreamENS1_14default_deleteIS3_EEEE
871:__ZNK3JSC17UnlinkedCodeBlock12instructionsEv
872:__ZN3JSC17UnlinkedCodeBlock24handlerForBytecodeOffsetEjNS_15RequiredHandlerE
873:__ZN3JSC17UnlinkedCodeBlock17applyModificationERNS_16BytecodeRewriterE
874:__ZN3JSC17UnlinkedCodeBlock11shrinkToFitEv
875:__ZN3WTF6VectorIN3JSC10IdentifierELm0ENS_15CrashOnOverflowELm16EE14shrinkCapacityEm
876:__ZN3WTF6VectorINS_9BitVectorELm0ENS_15CrashOnOverflowELm16EE14shrinkCapacityEm
877:__ZN3WTF6VectorINS0_IN3JSC7JSValueELm0ENS_15CrashOnOverflowELm16EEELm0ES3_Lm16EE14shrinkCapacityEm
878:__ZN3WTF6VectorIN3JSC23UnlinkedSimpleJumpTableELm0ENS_15CrashOnOverflowELm16EE14shrinkCapacityEm
879:__ZN3WTF6VectorIN3JSC23UnlinkedStringJumpTableELm0ENS_15CrashOnOverflowELm16EE14shrinkCapacityEm
880:__ZN3WTF6VectorIN3JSC23UnlinkedStringJumpTableELm0ENS_15CrashOnOverflowELm16EE6shrinkEm
881:__ZN3JSC21UnlinkedEvalCodeBlock7destroyEPNS_6JSCellE
882:__ZN3JSC21UnlinkedEvalCodeBlockD2Ev
883:__ZN3JSC25UnlinkedFunctionCodeBlock7destroyEPNS_6JSCellE
884:__ZN3JSC26UnlinkedFunctionExecutable7destroyEPNS_6JSCellE
885:__ZN3JSC26UnlinkedFunctionExecutable13visitChildrenEPNS_6JSCellERNS_11SlotVisitorE
886:__ZN3JSC26UnlinkedFunctionExecutableD2Ev
887:__ZN3JSC26UnlinkedFunctionExecutableC2EPNS_2VMEPNS_9StructureERKNS_10SourceCodeEOS5_PNS_20FunctionMetadataNodeENS_20UnlinkedFunctionKindENS_16ConstructAbilityENS_18JSParserScriptModeERNS_19VariableEnvironmentENS_18DerivedContextTypeE
888:__ZN3JSC26UnlinkedFunctionExecutable4linkERNS_2VMERKNS_10SourceCodeESt8optionalIiENS_9IntrinsicE
889:__ZN3JSC26UnlinkedFunctionExecutable14fromGlobalCodeERKNS_10IdentifierERNS_9ExecStateERKNS_10SourceCodeERPNS_8JSObjectEi
890:__ZN3JSC11ParserError13toErrorObjectEPNS_14JSGlobalObjectERKNS_10SourceCodeEi
891:__ZN3JSC26UnlinkedFunctionExecutable20unlinkedCodeBlockForERNS_2VMERKNS_10SourceCodeENS_22CodeSpecializationKindENS_12DebuggerModeERNS_11ParserErrorENS_15SourceParseModeE
892:__ZN3JSC5parseINS_12FunctionNodeEEENSt3__210unique_ptrIT_NS2_14default_deleteIS4_EEEEPNS_2VMERKNS_10SourceCodeERKNS_10IdentifierENS_19JSParserBuiltinModeENS_18JSParserStrictModeENS_18JSParserScriptModeENS_15SourceParseModeENS_12SuperBindingERNS_11ParserErrorEPNS_14JSTextPositionENS_15ConstructorKindENS_18DerivedContextTypeENS_15EvalContextTypeEPNS_17DebuggerParseDataE
893:__ZN3JSC17BytecodeGenerator8generateIJPNS_12FunctionNodeERPNS_25UnlinkedFunctionCodeBlockERNS_12DebuggerModeEPKNS_19VariableEnvironmentEEEENS_11ParserErrorERNS_2VMEDpOT_
894:__ZN3JSC6ParserINS_5LexerIhEEE5parseINS_12FunctionNodeEEENSt3__210unique_ptrIT_NS6_14default_deleteIS8_EEEERNS_11ParserErrorERKNS_10IdentifierENS_15SourceParseModeE
895:__ZN3JSC6ParserINS_5LexerItEEE5parseINS_12FunctionNodeEEENSt3__210unique_ptrIT_NS6_14default_deleteIS8_EEEERNS_11ParserErrorERKNS_10IdentifierENS_15SourceParseModeE
896:__ZN3JSC25UnlinkedInstructionStreamC2ERKN3WTF6VectorINS_19UnlinkedInstructionELm0ENS1_20UnsafeVectorOverflowELm16EEE
897:__ZNK3JSC25UnlinkedInstructionStream11sizeInBytesEv
898:__ZN3JSC30UnlinkedModuleProgramCodeBlock13visitChildrenEPNS_6JSCellERNS_11SlotVisitorE
899:__ZN3JSC24UnlinkedProgramCodeBlock7destroyEPNS_6JSCellE
900:__ZN3JSC24UnlinkedProgramCodeBlockD2Ev
901:__ZNK3JSC23VariableWriteFireDetail4dumpERN3WTF11PrintStreamE
902:__ZN3WTF11PrintStream10atomicallyIZNS0_5printIJA10_cN3JSC12PropertyNameEA5_cNS4_7JSValueEEEEvDpRKT_EUlRS0_E_EEvRKT_
903:__ZN3JSC23VariableWriteFireDetail5touchERNS_2VMEPNS_13WatchpointSetEPNS_8JSObjectERKNS_12PropertyNameE
904:__ZNK3JSC15VirtualRegister4dumpERN3WTF11PrintStreamE
905:__ZN3JSC10WatchpointD2Ev
906:__ZNK3JSC16StringFireDetail4dumpERN3WTF11PrintStreamE
907:__ZN3JSC13WatchpointSetC2ENS_15WatchpointStateE
908:__ZN3JSC13WatchpointSetD2Ev
909:__ZN3JSC13WatchpointSet3addEPNS_10WatchpointE
910:__ZN3JSC13WatchpointSet11fireAllSlowERNS_2VMERKNS_10FireDetailE
911:__ZN3JSC13WatchpointSet11fireAllSlowERNS_2VMEPKc
912:__ZN3JSC19InlineWatchpointSet3addEPNS_10WatchpointE
913:__ZN3JSC19InlineWatchpointSet7fireAllERNS_2VMEPKc
914:__ZN3JSC19InlineWatchpointSet7freeFatEv
915:__ZN3JSC17BytecodeGenerator8generateEv
916:__ZN3WTF6VectorIN3JSC19UnlinkedInstructionELm0ENS_20UnsafeVectorOverflowELm16EE14appendSlowCaseIRNS1_8OpcodeIDEEEvOT_
917:__ZN3JSC17BytecodeGenerator8variableERKNS_10IdentifierENS_18ThisResolutionTypeE
918:__ZN3JSC17BytecodeGenerator16emitResolveScopeEPNS_10RegisterIDERKNS_8VariableE
919:__ZN3JSC17BytecodeGenerator14emitPutToScopeEPNS_10RegisterIDERKNS_8VariableES2_NS_11ResolveModeENS_18InitializationModeE
920:__ZN3JSC17BytecodeGenerator11newRegisterEv
921:__ZN3JSC17BytecodeGenerator15emitNewFunctionEPNS_10RegisterIDEPNS_20FunctionMetadataNodeE
922:__ZN3JSC17BytecodeGenerator8emitMoveEPNS_10RegisterIDES2_
923:__ZN3JSC22StaticPropertyAnalyzer4killEv
924:__ZN3WTF6VectorINSt3__24pairIiiEELm8ENS_15CrashOnOverflowELm16EE6appendEOS3_
925:__ZN3JSC17UnlinkedCodeBlock19addExceptionHandlerERKNS_19UnlinkedHandlerInfoE
926:__ZN3WTF7HashMapIiNS_6RefPtrIN3JSC22StaticPropertyAnalysisEEENS_7IntHashIiEENS_29UnsignedWithZeroKeyHashTraitsIiEENS_10HashTraitsIS4_EEE4takeERKi
927:__ZN3WTF7HashMapIiNS_6RefPtrIN3JSC22StaticPropertyAnalysisEEENS_7IntHashIiEENS_29UnsignedWithZeroKeyHashTraitsIiEENS_10HashTraitsIS4_EEE6removeENS_24HashTableIteratorAdapterINS_9HashTableIiNS_12KeyValuePairIiS4_EENS_24KeyValuePairKeyExtractorISF_EES6_NSB_18KeyValuePairTraitsES8_EESF_EE
928:__ZN3WTF9HashTableIiNS_12KeyValuePairIiNS_6RefPtrIN3JSC22StaticPropertyAnalysisEEEEENS_24KeyValuePairKeyExtractorIS6_EENS_7IntHashIiEENS_7HashMapIiS5_SA_NS_29UnsignedWithZeroKeyHashTraitsIiEENS_10HashTraitsIS5_EEE18KeyValuePairTraitsESD_E6rehashEjPS6_
929:__ZN3WTF9HashTableIiNS_12KeyValuePairIiNS_6RefPtrIN3JSC22StaticPropertyAnalysisEEEEENS_24KeyValuePairKeyExtractorIS6_EENS_7IntHashIiEENS_7HashMapIiS5_SA_NS_29UnsignedWithZeroKeyHashTraitsIiEENS_10HashTraitsIS5_EEE18KeyValuePairTraitsESD_E8reinsertEOS6_
930:__ZN3JSC22StaticPropertyAnalyzer3movEii
931:__ZN3JSC22StaticPropertyAnalyzer4killEi
932:__ZN3WTF7HashMapIiNS_6RefPtrIN3JSC22StaticPropertyAnalysisEEENS_7IntHashIiEENS_29UnsignedWithZeroKeyHashTraitsIiEENS_10HashTraitsIS4_EEE3addIRS4_EENS_18HashTableAddResultINS_17HashTableIteratorIiNS_12KeyValuePairIiS4_EENS_24KeyValuePairKeyExtractorISH_EES6_NSB_18KeyValuePairTraitsES8_EEEERKiOT_
933:__ZN3JSC17BytecodeGenerator12makeFunctionEPNS_20FunctionMetadataNodeE
934:__ZN3JSC17UnlinkedCodeBlock15addFunctionDeclEPNS_26UnlinkedFunctionExecutableE
935:__ZN3WTF6VectorIN3JSC12WriteBarrierINS1_26UnlinkedFunctionExecutableEEELm0ENS_15CrashOnOverflowELm16EE6appendEOS4_
936:__ZN3JSC17BytecodeGenerator20getVariablesUnderTDZERNS_19VariableEnvironmentE
937:__ZN3WTF7HashMapINS_6RefPtrINS_17UniquedStringImplEEEN3JSC24VariableEnvironmentEntryENS4_17IdentifierRepHashENS_10HashTraitsIS3_EENS4_34VariableEnvironmentEntryHashTraitsEE3addIS5_EENS_18HashTableAddResultINS_17HashTableIteratorIS3_NS_12KeyValuePairIS3_S5_EENS_24KeyValuePairKeyExtractorISF_EES6_NSA_18KeyValuePairTraitsES8_EEEERKS3_OT_
938:__ZN3WTF11SmallPtrSetIPNS_17UniquedStringImplELj16EE3addES2_
939:__ZN3WTF9HashTableINS_6RefPtrINS_17UniquedStringImplEEENS_12KeyValuePairIS3_N3JSC24VariableEnvironmentEntryEEENS_24KeyValuePairKeyExtractorIS7_EENS5_17IdentifierRepHashENS_7HashMapIS3_S6_SA_NS_10HashTraitsIS3_EENS5_34VariableEnvironmentEntryHashTraitsEE18KeyValuePairTraitsESD_E6rehashEjPS7_
940:__ZN3WTF9HashTableINS_6RefPtrINS_17UniquedStringImplEEENS_12KeyValuePairIS3_N3JSC24VariableEnvironmentEntryEEENS_24KeyValuePairKeyExtractorIS7_EENS5_17IdentifierRepHashENS_7HashMapIS3_S6_SA_NS_10HashTraitsIS3_EENS5_34VariableEnvironmentEntryHashTraitsEE18KeyValuePairTraitsESD_E8reinsertEOS7_
941:__ZN3JSC17UnlinkedCodeBlock28addPropertyAccessInstructionEj
942:__ZN3JSC17BytecodeGenerator11addConstantERKNS_10IdentifierE
943:__ZN3WTF7HashMapINS_6RefPtrINS_17UniquedStringImplEEEiN3JSC17IdentifierRepHashENS_10HashTraitsIS3_EENS4_28IdentifierMapIndexHashTraitsEE3addImEENS_18HashTableAddResultINS_17HashTableIteratorIS3_NS_12KeyValuePairIS3_iEENS_24KeyValuePairKeyExtractorISE_EES5_NS9_18KeyValuePairTraitsES7_EEEEOS3_OT_
944:__ZN3WTF9HashTableINS_6RefPtrINS_17UniquedStringImplEEENS_12KeyValuePairIS3_iEENS_24KeyValuePairKeyExtractorIS5_EEN3JSC17IdentifierRepHashENS_7HashMapIS3_iS9_NS_10HashTraitsIS3_EENS8_28IdentifierMapIndexHashTraitsEE18KeyValuePairTraitsESC_E6rehashEjPS5_
945:__ZN3WTF9HashTableINS_6RefPtrINS_17UniquedStringImplEEENS_12KeyValuePairIS3_iEENS_24KeyValuePairKeyExtractorIS5_EEN3JSC17IdentifierRepHashENS_7HashMapIS3_iS9_NS_10HashTraitsIS3_EENS8_28IdentifierMapIndexHashTraitsEE18KeyValuePairTraitsESC_E8reinsertEOS5_
946:__ZN3JSC17BytecodeGenerator21variableForLocalEntryERKNS_10IdentifierERKNS_16SymbolTableEntryEib
947:__ZN3JSC17BytecodeGenerator12newTemporaryEv
948:__ZN3JSC17BytecodeGeneratorC2ERNS_2VMEPNS_11ProgramNodeEPNS_24UnlinkedProgramCodeBlockENS_12DebuggerModeEPKNS_19VariableEnvironmentE
949:__ZN3JSC17BytecodeGenerator20allocateAndEmitScopeEv
950:__ZN3WTF6VectorINSt3__24pairIPN3JSC20FunctionMetadataNodeENS3_17BytecodeGenerator20FunctionVariableTypeEEELm0ENS_15CrashOnOverflowELm16EE6appendEOS8_
951:__ZN3WTF9HashTableINS_6RefPtrINS_17UniquedStringImplEEENS_12KeyValuePairIS3_N3JSC24VariableEnvironmentEntryEEENS_24KeyValuePairKeyExtractorIS7_EENS5_17IdentifierRepHashENS_7HashMapIS3_S6_SA_NS_10HashTraitsIS3_EENS5_34VariableEnvironmentEntryHashTraitsEE18KeyValuePairTraitsESD_EaSERKSH_
952:__ZN3JSC17BytecodeGenerator43initializeArrowFunctionContextScopeIfNeededEPNS_11SymbolTableEb
953:__ZN3JSC17BytecodeGenerator38emitPutThisToArrowFunctionContextScopeEv
954:__ZN3WTF9HashTableIiNS_12KeyValuePairIiNS_6RefPtrIN3JSC22StaticPropertyAnalysisEEEEENS_24KeyValuePairKeyExtractorIS6_EENS_7IntHashIiEENS_7HashMapIiS5_SA_NS_29UnsignedWithZeroKeyHashTraitsIiEENS_10HashTraitsIS5_EEE18KeyValuePairTraitsESD_E15deallocateTableEPS6_j
955:__ZN3WTF15SegmentedVectorIN3JSC7TryDataELm8EED2Ev
956:__ZN3WTF15SegmentedVectorIN3JSC16ControlFlowScopeELm16EE17deleteAllSegmentsEv
957:__ZN3WTF15SegmentedVectorIN3JSC5LabelELm32EE17deleteAllSegmentsEv
958:__ZN3WTF15SegmentedVectorIN3JSC10RegisterIDELm32EED2Ev
959:__ZN3WTF15SegmentedVectorIPN3JSC10RegisterIDELm16EED2Ev
960:__ZN3JSC17BytecodeGenerator39emitLoadArrowFunctionLexicalEnvironmentERKNS_10IdentifierE
961:__ZN3JSC17BytecodeGenerator24pushLexicalScopeInternalERNS_19VariableEnvironmentENS0_20TDZCheckOptimizationENS0_15NestedScopeTypeEPPNS_10RegisterIDENS0_14TDZRequirementENS0_9ScopeTypeENS0_17ScopeRegisterTypeE
962:__ZN3JSC11SymbolTable3addIRNS_16SymbolTableEntryEEEvRKNS_18ConcurrentJSLockerEPN3WTF17UniquedStringImplEOT_
963:__ZN3JSC17BytecodeGenerator16addConstantValueENS_7JSValueENS_24SourceCodeRepresentationE
964:__ZN3JSC17BytecodeGenerator25pushLocalControlFlowScopeEv
965:__ZN3WTF6VectorIN3JSC17BytecodeGenerator22LexicalScopeStackEntryELm0ENS_15CrashOnOverflowELm16EE6appendEOS3_
966:__ZN3JSC17BytecodeGenerator16pushTDZVariablesERKNS_19VariableEnvironmentENS0_20TDZCheckOptimizationENS0_14TDZRequirementE
967:__ZN3JSC17BytecodeGenerator28emitPrefillStackTDZVariablesERKNS_19VariableEnvironmentEPNS_11SymbolTableE
968:__ZN3JSC17BytecodeGenerator18emitMoveEmptyValueEPNS_10RegisterIDE
969:__ZN3JSC17BytecodeGenerator21addConstantEmptyValueEv
970:__ZN3JSC17UnlinkedCodeBlock11addConstantENS_7JSValueENS_24SourceCodeRepresentationE
971:__ZN3WTF7HashMapINS_6RefPtrINS_17UniquedStringImplEEEN3JSC17BytecodeGenerator17TDZNecessityLevelENS4_17IdentifierRepHashENS_10HashTraitsIS3_EENS8_IS6_EEE3addIS6_EENS_18HashTableAddResultINS_17HashTableIteratorIS3_NS_12KeyValuePairIS3_S6_EENS_24KeyValuePairKeyExtractorISG_EES7_NSB_18KeyValuePairTraitsES9_EEEERKS3_OT_
972:__ZN3WTF6VectorINS_7HashMapINS_6RefPtrINS_17UniquedStringImplEEEN3JSC17BytecodeGenerator17TDZNecessityLevelENS5_17IdentifierRepHashENS_10HashTraitsIS4_EENS9_IS7_EEEELm0ENS_15CrashOnOverflowELm16EE6appendEOSC_
973:__ZN3WTF9HashTableINS_6RefPtrINS_17UniquedStringImplEEENS_12KeyValuePairIS3_N3JSC17BytecodeGenerator17TDZNecessityLevelEEENS_24KeyValuePairKeyExtractorIS8_EENS5_17IdentifierRepHashENS_7HashMapIS3_S7_SB_NS_10HashTraitsIS3_EENSD_IS7_EEE18KeyValuePairTraitsESE_E6rehashEjPS8_
974:__ZN3WTF7HashMapINSt3__24pairIxN3JSC24SourceCodeRepresentationEEEjNS3_36EncodedJSValueWithRepresentationHashENS3_42EncodedJSValueWithRepresentationHashTraitsENS_10HashTraitsIjEEE3addIRiEENS_18HashTableAddResultINS_17HashTableIteratorIS5_NS_12KeyValuePairIS5_jEENS_24KeyValuePairKeyExtractorISG_EES6_NSA_18KeyValuePairTraitsES7_EEEERKS5_OT_
975:__ZN3WTF9HashTableINSt3__24pairIxN3JSC24SourceCodeRepresentationEEENS_12KeyValuePairIS5_jEENS_24KeyValuePairKeyExtractorIS7_EENS3_36EncodedJSValueWithRepresentationHashENS_7HashMapIS5_jSA_NS3_42EncodedJSValueWithRepresentationHashTraitsENS_10HashTraitsIjEEE18KeyValuePairTraitsESC_E6rehashEjPS7_
976:__ZN3WTF9HashTableINSt3__24pairIxN3JSC24SourceCodeRepresentationEEENS_12KeyValuePairIS5_jEENS_24KeyValuePairKeyExtractorIS7_EENS3_36EncodedJSValueWithRepresentationHashENS_7HashMapIS5_jSA_NS3_42EncodedJSValueWithRepresentationHashTraitsENS_10HashTraitsIjEEE18KeyValuePairTraitsESC_E16lookupForWritingINS_22IdentityHashTranslatorISG_SA_EES5_EENS2_IPS7_bEERKT0_
977:__ZN3WTF7HashMapINS_6RefPtrINS_17UniquedStringImplEEEN3JSC16SymbolTableEntryENS4_17IdentifierRepHashENS_10HashTraitsIS3_EENS4_26SymbolTableIndexHashTraitsEE3addIRS5_EENS_18HashTableAddResultINS_17HashTableIteratorIS3_NS_12KeyValuePairIS3_S5_EENS_24KeyValuePairKeyExtractorISG_EES6_NSA_18KeyValuePairTraitsES8_EEEEOS3_OT_
978:__ZN3WTF9HashTableINS_6RefPtrINS_17UniquedStringImplEEENS_12KeyValuePairIS3_N3JSC24VariableEnvironmentEntryEEENS_24KeyValuePairKeyExtractorIS7_EENS5_17IdentifierRepHashENS_7HashMapIS3_S6_SA_NS_10HashTraitsIS3_EENS5_34VariableEnvironmentEntryHashTraitsEE18KeyValuePairTraitsESD_EC2ERKSH_
979:__ZN3JSC17BytecodeGeneratorC2ERNS_2VMEPNS_12FunctionNodeEPNS_25UnlinkedFunctionCodeBlockENS_12DebuggerModeEPKNS_19VariableEnvironmentE
980:__ZN3JSC17BytecodeGenerator20initializeParametersERNS_18FunctionParametersE
981:__ZN3JSC17BytecodeGenerator25emitPushFunctionNameScopeERKNS_10IdentifierEPNS_10RegisterIDEb
982:__ZN3JSC17BytecodeGenerator31initializeVarLexicalEnvironmentEiPNS_11SymbolTableEb
983:__ZN3WTF9HashTableINS_6RefPtrINS_17UniquedStringImplEEES3_NS_17IdentityExtractorEN3JSC17IdentifierRepHashENS_10HashTraitsIS3_EES8_E3addEOS3_
984:__ZN3JSC16SymbolTableEntry15disableWatchingERNS_2VME
985:__ZN3JSC11SymbolTable3setIRNS_16SymbolTableEntryEEEvRKNS_18ConcurrentJSLockerEPN3WTF17UniquedStringImplEOT_
986:__ZN3JSC17BytecodeGenerator14createVariableERKNS_10IdentifierENS_7VarKindEPNS_11SymbolTableENS0_20ExistingVariableModeE
987:__ZN3JSC17BytecodeGenerator14emitCreateThisEPNS_10RegisterIDE
988:__ZN3JSC17BytecodeGenerator13emitNewObjectEPNS_10RegisterIDE
989:__ZN3JSC17BytecodeGenerator16emitGetFromScopeEPNS_10RegisterIDES2_RKNS_8VariableENS_11ResolveModeE
990:__ZN3JSC17BytecodeGenerator8emitCallENS_8OpcodeIDEPNS_10RegisterIDES3_NS_16ExpectedFunctionERNS_13CallArgumentsERKNS_14JSTextPositionES9_S9_NS_14DebuggableCallE
991:__ZN3JSC17BytecodeGenerator8newLabelEv
992:__ZN3JSC17BytecodeGenerator11emitGetByIdEPNS_10RegisterIDES2_RKNS_10IdentifierE
993:__ZN3JSC17BytecodeGenerator14emitJumpIfTrueEPNS_10RegisterIDERNS_5LabelE
994:__ZN3JSC17BytecodeGenerator8emitJumpERNS_5LabelE
995:__ZN3JSC17UnlinkedCodeBlock13addJumpTargetEj
996:__ZN3JSC17BytecodeGenerator18emitThrowTypeErrorERKN3WTF6StringE
997:__ZN3JSC17BytecodeGenerator47emitLoadThisFromArrowFunctionLexicalEnvironmentEv
998:__ZN3JSC17BytecodeGenerator52emitLoadNewTargetFromArrowFunctionLexicalEnvironmentEv
999:__ZN3JSC17BytecodeGenerator43emitPutNewTargetToArrowFunctionContextScopeEv
1000:__ZN3JSC17BytecodeGenerator52emitPutDerivedConstructorToArrowFunctionContextScopeEv
1001:__ZN3JSC17BytecodeGenerator15newEmittedLabelEv
1002:__ZN3JSC17BytecodeGenerator7pushTryERNS_5LabelES2_NS_11HandlerTypeE
1003:__ZN3JSC17BytecodeGenerator58initializeDefaultParameterValuesAndSetupFunctionScopeStackERNS_18FunctionParametersEbPNS_12FunctionNodeEPNS_11SymbolTableEiRKNSt3__28functionIFbPN3WTF17UniquedStringImplEEEEb
1004:__ZN3JSC17BytecodeGenerator6popTryEPNS_7TryDataERNS_5LabelE
1005:__ZN3JSC17BytecodeGenerator9emitCatchEPNS_10RegisterIDES2_
1006:__ZN3JSC17BytecodeGenerator10emitReturnEPNS_10RegisterIDENS0_10ReturnFromE
1007:__ZN3JSC17BytecodeGenerator11emitPutByIdEPNS_10RegisterIDERKNS_10IdentifierES2_
1008:__ZN3WTF9HashTableIjjNS_17IdentityExtractorENS_7IntHashIjEENS_29UnsignedWithZeroKeyHashTraitsIjEES5_E3addERKj
1009:__ZN3WTF9HashTableIjjNS_17IdentityExtractorENS_7IntHashIjEENS_29UnsignedWithZeroKeyHashTraitsIjEES5_E6rehashEjPj
1010:__ZN3JSC17BytecodeGenerator12emitIsObjectEPNS_10RegisterIDES2_
1011:__ZN3JSC17BytecodeGenerator15emitJumpIfFalseEPNS_10RegisterIDERNS_5LabelE
1012:__ZN3JSC17BytecodeGenerator15emitIsUndefinedEPNS_10RegisterIDES2_
1013:__ZN3WTF6VectorIN3JSC8TryRangeELm0ENS_15CrashOnOverflowELm16EE14appendSlowCaseIS2_EEvOT_
1014:__ZN3WTF6VectorIN3JSC8TryRangeELm0ENS_15CrashOnOverflowELm16EE15reserveCapacityEm
1015:__ZN3JSC17BytecodeGenerator22liftTDZCheckIfPossibleERKNS_8VariableE
1016:__ZN3JSC17BytecodeGenerator15emitGetArgumentEPNS_10RegisterIDEi
1017:__ZN3JSC17BytecodeGenerator22emitNodeInTailPositionEPNS_10RegisterIDEPNS_14ExpressionNodeE
1018:__ZN3WTF6VectorINSt3__24pairIN3JSC10IdentifierENS_6RefPtrINS3_10RegisterIDEEEEELm0ENS_15CrashOnOverflowELm16EE14appendSlowCaseIS8_EEvOT_
1019:__ZN3WTF14ThreadSpecificINS_13WTFThreadDataELNS_13CanBeGCThreadE0EE7destroyEPv
1020:__ZN3WTF14ThreadSpecificINS_13WTFThreadDataELNS_13CanBeGCThreadE0EEcvPS1_Ev
1021:__ZN3JSC17BytecodeGenerator13emitDebugHookENS_13DebugHookTypeERKNS_14JSTextPositionE
1022:__ZN3WTF6VectorIN3JSC19UnlinkedInstructionELm0ENS_20UnsafeVectorOverflowELm16EE14appendSlowCaseIbEEvOT_
1023:__ZNKSt3__210__function6__funcIZN3JSC17BytecodeGeneratorC1ERNS2_2VMEPNS2_12FunctionNodeEPNS2_25UnlinkedFunctionCodeBlockENS2_12DebuggerModeEPKNS2_19VariableEnvironmentEE3__0NS_9allocatorISE_EEFbPN3WTF17UniquedStringImplEEE7__cloneEv
1024:__ZNKSt3__210__function6__funcIZN3JSC17BytecodeGeneratorC1ERNS2_2VMEPNS2_12FunctionNodeEPNS2_25UnlinkedFunctionCodeBlockENS2_12DebuggerModeEPKNS2_19VariableEnvironmentEE3__0NS_9allocatorISE_EEFbPN3WTF17UniquedStringImplEEE7__cloneEPNS0_6__baseISK_EE
1025:__ZNSt3__210__function6__funcIZN3JSC17BytecodeGeneratorC1ERNS2_2VMEPNS2_12FunctionNodeEPNS2_25UnlinkedFunctionCodeBlockENS2_12DebuggerModeEPKNS2_19VariableEnvironmentEE3__0NS_9allocatorISE_EEFbPN3WTF17UniquedStringImplEEEclEOSJ_
1026:__ZNKSt3__210__function6__funcIZN3JSC17BytecodeGeneratorC1ERNS2_2VMEPNS2_12FunctionNodeEPNS2_25UnlinkedFunctionCodeBlockENS2_12DebuggerModeEPKNS2_19VariableEnvironmentEE3__0NS_9allocatorISE_EEFbPN3WTF17UniquedStringImplEEE6targetERKSt9type_info
1027:__ZNKSt3__210__function6__funcIZN3JSC17BytecodeGeneratorC1ERNS2_2VMEPNS2_12FunctionNodeEPNS2_25UnlinkedFunctionCodeBlockENS2_12DebuggerModeEPKNS2_19VariableEnvironmentEE3__0NS_9allocatorISE_EEFbPN3WTF17UniquedStringImplEEE11target_typeEv
1028:__ZN3WTF6VectorIN3JSC10TryContextELm0ENS_15CrashOnOverflowELm16EE14expandCapacityEm
1029:__ZN3JSC17BytecodeGenerator20emitThrowStaticErrorENS_9ErrorTypeERKNS_10IdentifierE
1030:__ZN3WTF7HashMapIPNS_17UniquedStringImplEPN3JSC8JSStringENS3_17IdentifierRepHashENS_10HashTraitsIS2_EENS7_IS5_EEE3addIDnEENS_18HashTableAddResultINS_17HashTableIteratorIS2_NS_12KeyValuePairIS2_S5_EENS_24KeyValuePairKeyExtractorISF_EES6_NSA_18KeyValuePairTraitsES8_EEEEOS2_OT_
1031:__ZN3WTF9HashTableIPNS_17UniquedStringImplENS_12KeyValuePairIS2_PN3JSC8JSStringEEENS_24KeyValuePairKeyExtractorIS7_EENS4_17IdentifierRepHashENS_7HashMapIS2_S6_SA_NS_10HashTraitsIS2_EENSC_IS6_EEE18KeyValuePairTraitsESD_E6rehashEjPS7_
1032:__ZN3JSC17BytecodeGenerator15emitCallVarargsENS_8OpcodeIDEPNS_10RegisterIDES3_S3_S3_S3_iRKNS_14JSTextPositionES6_S6_NS_14DebuggableCallE
1033:__ZN3JSC17BytecodeGenerator27emitExpectedFunctionSnippetEPNS_10RegisterIDES2_NS_16ExpectedFunctionERNS_13CallArgumentsERNS_5LabelE
1034:__ZN3JSC17BytecodeGenerator35emitLogShadowChickenTailIfNecessaryEv
1035:__ZN3JSC17BytecodeGenerator20emitNewArrayWithSizeEPNS_10RegisterIDES2_
1036:__ZN3JSC22StaticPropertyAnalyzer9newObjectEij
1037:__ZN3WTF7HashMapIiNS_6RefPtrIN3JSC22StaticPropertyAnalysisEEENS_7IntHashIiEENS_29UnsignedWithZeroKeyHashTraitsIiEENS_10HashTraitsIS4_EEE3addINS_3RefIS3_EEEENS_18HashTableAddResultINS_17HashTableIteratorIiNS_12KeyValuePairIiS4_EENS_24KeyValuePairKeyExtractorISI_EES6_NSB_18KeyValuePairTraitsES8_EEEERKiOT_
1038:__ZN3WTF7HashMapINS_6RefPtrINS_17UniquedStringImplEEEN3JSC16SymbolTableEntryENS4_17IdentifierRepHashENS_10HashTraitsIS3_EENS4_26SymbolTableIndexHashTraitsEE9inlineSetIS3_RS5_EENS_18HashTableAddResultINS_17HashTableIteratorIS3_NS_12KeyValuePairIS3_S5_EENS_24KeyValuePairKeyExtractorISG_EES6_NSA_18KeyValuePairTraitsES8_EEEEOT_OT0_
1039:__ZN3WTF9HashTableINS_6RefPtrINS_17UniquedStringImplEEES3_NS_17IdentityExtractorEN3JSC17IdentifierRepHashENS_10HashTraitsIS3_EES8_E6rehashEjPS3_
1040:__ZN3WTF9HashTableINS_6RefPtrINS_17UniquedStringImplEEES3_NS_17IdentityExtractorEN3JSC17IdentifierRepHashENS_10HashTraitsIS3_EES8_E8reinsertEOS3_
1041:__ZN3WTF15SegmentedVectorIN3JSC10RegisterIDELm32EE4growEm
1042:__ZN3JSC17BytecodeGenerator8emitLoadEPNS_10RegisterIDENS_7JSValueENS_24SourceCodeRepresentationE
1043:__ZN3JSC17BytecodeGenerator8emitCallEPNS_10RegisterIDES2_NS_16ExpectedFunctionERNS_13CallArgumentsERKNS_14JSTextPositionES8_S8_NS_14DebuggableCallE
1044:__ZN3JSC17BytecodeGenerator9emitLabelERNS_5LabelE
1045:__ZN3JSC17BytecodeGenerator16pushLexicalScopeEPNS_23VariableEnvironmentNodeENS0_20TDZCheckOptimizationENS0_15NestedScopeTypeEPPNS_10RegisterIDEb
1046:__ZN3JSC17BytecodeGenerator30initializeBlockScopedFunctionsERNS_19VariableEnvironmentERN3WTF6VectorIPNS_20FunctionMetadataNodeELm0ENS3_15CrashOnOverflowELm16EEEPNS_10RegisterIDE
1047:__ZN3JSC17BytecodeGenerator31emitNewFunctionExpressionCommonEPNS_10RegisterIDEPNS_20FunctionMetadataNodeE
1048:__ZN3JSC17UnlinkedCodeBlock15addFunctionExprEPNS_26UnlinkedFunctionExecutableE
1049:__ZN3JSC17BytecodeGeneratorC2ERNS_2VMEPNS_8EvalNodeEPNS_21UnlinkedEvalCodeBlockENS_12DebuggerModeEPKNS_19VariableEnvironmentE
1050:__ZN3JSC17BytecodeGeneratorC2ERNS_2VMEPNS_17ModuleProgramNodeEPNS_30UnlinkedModuleProgramCodeBlockENS_12DebuggerModeEPKNS_19VariableEnvironmentE
1051:__ZN3JSC17BytecodeGeneratorD2Ev
1052:__ZN3JSC17BytecodeGenerator31isSuperUsedInInnerArrowFunctionEv
1053:__ZN3JSC17BytecodeGenerator30isThisUsedInInnerArrowFunctionEv
1054:__ZN3JSC17BytecodeGenerator13newLabelScopeENS_10LabelScope4TypeEPKNS_10IdentifierE
1055:__ZN3WTF6VectorIN3JSC10LabelScopeELm8ENS_15CrashOnOverflowELm16EE14appendSlowCaseIS2_EEvOT_
1056:__ZN3WTF6VectorIN3JSC10LabelScopeELm8ENS_15CrashOnOverflowELm16EE15reserveCapacityEm
1057:__ZNK3JSC17BytecodeGenerator15labelScopeDepthEv
1058:__ZN3JSC17BytecodeGenerator12emitLoopHintEv
1059:__ZN3JSC17BytecodeGenerator25emitJumpIfNotFunctionCallEPNS_10RegisterIDERNS_5LabelE
1060:__ZN3JSC17BytecodeGenerator26emitJumpIfNotFunctionApplyEPNS_10RegisterIDERNS_5LabelE
1061:__ZN3JSC17BytecodeGenerator24emitMoveLinkTimeConstantEPNS_10RegisterIDENS_16LinkTimeConstantE
1062:__ZN3JSC17UnlinkedCodeBlock11addConstantENS_16LinkTimeConstantE
1063:__ZN3JSC17UnlinkedCodeBlock9addRegExpEPNS_6RegExpE
1064:__ZN3JSC17BytecodeGenerator11emitUnaryOpENS_8OpcodeIDEPNS_10RegisterIDES3_
1065:__ZN3JSC17BytecodeGenerator11emitUnaryOpENS_8OpcodeIDEPNS_10RegisterIDES3_NS_12OperandTypesE
1066:__ZN3JSC17BytecodeGenerator19emitUnaryOpProfiledENS_8OpcodeIDEPNS_10RegisterIDES3_
1067:__ZN3JSC17BytecodeGenerator7emitIncEPNS_10RegisterIDE
1068:__ZN3JSC17BytecodeGenerator7emitDecEPNS_10RegisterIDE
1069:__ZN3JSC17BytecodeGenerator12emitBinaryOpENS_8OpcodeIDEPNS_10RegisterIDES3_S3_NS_12OperandTypesE
1070:__ZN3JSC17BytecodeGenerator14emitEqualityOpENS_8OpcodeIDEPNS_10RegisterIDES3_S3_
1071:__ZN3JSC17BytecodeGenerator15emitProfileTypeEPNS_10RegisterIDENS_23ProfileTypeBytecodeFlagE
1072:__ZN3JSC17BytecodeGenerator15emitProfileTypeEPNS_10RegisterIDERKNS_14JSTextPositionES5_
1073:__ZN3JSC17BytecodeGenerator15emitProfileTypeEPNS_10RegisterIDENS_23ProfileTypeBytecodeFlagERKNS_14JSTextPositionES6_
1074:__ZN3JSC17BytecodeGenerator15emitProfileTypeEPNS_10RegisterIDERKNS_8VariableERKNS_14JSTextPositionES8_
1075:__ZN3JSC17BytecodeGenerator22emitProfileControlFlowEi
1076:__ZN3JSC17UnlinkedCodeBlock37addOpProfileControlFlowBytecodeOffsetEm
1077:__ZN3JSC17BytecodeGenerator8emitLoadEPNS_10RegisterIDEb
1078:__ZN3JSC17BytecodeGenerator8emitLoadEPNS_10RegisterIDERKNS_10IdentifierE
1079:__ZN3JSC17BytecodeGenerator8emitLoadEPNS_10RegisterIDERN3WTF7HashSetINS3_6RefPtrINS3_17UniquedStringImplEEENS_17IdentifierRepHashENS3_10HashTraitsIS7_EEEE
1080:__ZNK3WTF7HashSetINS_6RefPtrINS_17UniquedStringImplEEEN3JSC17IdentifierRepHashENS_10HashTraitsIS3_EEEeqIS8_EEbRKT_
1081:__ZN3JSC17UnlinkedCodeBlock14addSetConstantERN3WTF7HashSetINS1_6RefPtrINS1_17UniquedStringImplEEENS_17IdentifierRepHashENS1_10HashTraitsIS5_EEEE
1082:__ZN3WTF9HashTableINS_6RefPtrINS_17UniquedStringImplEEES3_NS_17IdentityExtractorEN3JSC17IdentifierRepHashENS_10HashTraitsIS3_EES8_EC2ERKS9_
1083:__ZN3WTF6VectorINSt3__24pairINS_7HashSetINS_6RefPtrINS_17UniquedStringImplEEEN3JSC17IdentifierRepHashENS_10HashTraitsIS6_EEEEjEELm0ENS_15CrashOnOverflowELm16EE6appendEOSC_
1084:__ZN3WTF6VectorINSt3__24pairINS_7HashSetINS_6RefPtrINS_17UniquedStringImplEEEN3JSC17IdentifierRepHashENS_10HashTraitsIS6_EEEEjEELm0ENS_15CrashOnOverflowELm16EE14expandCapacityEm
1085:__ZN3JSC17BytecodeGenerator34hoistSloppyModeFunctionIfNecessaryERKNS_10IdentifierE
1086:__ZN3JSC17BytecodeGenerator41emitResolveScopeForHoistingFuncDeclInEvalEPNS_10RegisterIDERKNS_10IdentifierE
1087:__ZN3JSC17BytecodeGenerator15popLexicalScopeEPNS_23VariableEnvironmentNodeE
1088:__ZN3JSC17BytecodeGenerator23popLexicalScopeInternalERNS_19VariableEnvironmentE
1089:__ZN3JSC17BytecodeGenerator12emitPopScopeEPNS_10RegisterIDES2_
1090:__ZN3JSC17BytecodeGenerator24popLocalControlFlowScopeEv
1091:__ZN3JSC17BytecodeGenerator18emitGetParentScopeEPNS_10RegisterIDES2_
1092:__ZN3JSC17BytecodeGenerator42prepareLexicalScopeForNextForLoopIterationEPNS_23VariableEnvironmentNodeEPNS_10RegisterIDE
1093:__ZN3JSC17BytecodeGenerator24emitOverridesHasInstanceEPNS_10RegisterIDES2_S2_
1094:__ZN3JSC17BytecodeGenerator14emitInstanceOfEPNS_10RegisterIDES2_S2_
1095:__ZN3JSC17BytecodeGenerator20emitInstanceOfCustomEPNS_10RegisterIDES2_S2_S2_
1096:__ZN3JSC17BytecodeGenerator6emitInEPNS_10RegisterIDES2_S2_
1097:__ZN3JSC17BytecodeGenerator14emitTryGetByIdEPNS_10RegisterIDES2_RKNS_10IdentifierE
1098:__ZN3JSC17BytecodeGenerator11emitGetByIdEPNS_10RegisterIDES2_S2_RKNS_10IdentifierE
1099:__ZN3JSC17BytecodeGenerator11emitPutByIdEPNS_10RegisterIDES2_RKNS_10IdentifierES2_
1100:__ZN3JSC17BytecodeGenerator17emitDirectPutByIdEPNS_10RegisterIDERKNS_10IdentifierES2_NS_12PropertyNode7PutTypeE
1101:__ZN3JSC17BytecodeGenerator17emitPutGetterByIdEPNS_10RegisterIDERKNS_10IdentifierEjS2_
1102:__ZN3JSC17BytecodeGenerator17emitPutSetterByIdEPNS_10RegisterIDERKNS_10IdentifierEjS2_
1103:__ZN3JSC17BytecodeGenerator19emitPutGetterSetterEPNS_10RegisterIDERKNS_10IdentifierEjS2_S2_
1104:__ZN3JSC17BytecodeGenerator18emitPutGetterByValEPNS_10RegisterIDES2_jS2_
1105:__ZN3JSC17BytecodeGenerator18emitPutSetterByValEPNS_10RegisterIDES2_jS2_
1106:__ZN3JSC17BytecodeGenerator22emitPutGeneratorFieldsEPNS_10RegisterIDE
1107:__ZN3JSC17BytecodeGenerator14emitDeleteByIdEPNS_10RegisterIDES2_RKNS_10IdentifierE
1108:__ZN3JSC17BytecodeGenerator12emitGetByValEPNS_10RegisterIDES2_S2_
1109:__ZN3JSC17BytecodeGenerator12emitGetByValEPNS_10RegisterIDES2_S2_S2_
1110:__ZN3JSC17BytecodeGenerator12emitPutByValEPNS_10RegisterIDES2_S2_
1111:__ZN3JSC17BytecodeGenerator12emitPutByValEPNS_10RegisterIDES2_S2_S2_
1112:__ZN3JSC17BytecodeGenerator18emitDirectPutByValEPNS_10RegisterIDES2_S2_
1113:__ZN3JSC17BytecodeGenerator15emitDeleteByValEPNS_10RegisterIDES2_S2_
1114:__ZN3JSC17BytecodeGenerator14emitPutByIndexEPNS_10RegisterIDEjS2_
1115:__ZN3JSC17BytecodeGenerator12emitTDZCheckEPNS_10RegisterIDE
1116:__ZN3JSC17BytecodeGenerator13needsTDZCheckERKNS_8VariableE
1117:__ZN3JSC17BytecodeGenerator23emitTDZCheckIfNecessaryERKNS_8VariableEPNS_10RegisterIDES5_
1118:__ZN3JSC17UnlinkedCodeBlock17addConstantBufferEj
1119:__ZN3WTF6VectorINS0_IN3JSC7JSValueELm0ENS_15CrashOnOverflowELm16EEELm0ES3_Lm16EE6appendEOS4_
1120:__ZN3JSC17BytecodeGenerator17addStringConstantERKNS_10IdentifierE
1121:__ZN3JSC17BytecodeGenerator30addTemplateRegistryKeyConstantEON3WTF3RefINS_19TemplateRegistryKeyEEE
1122:__ZN3WTF9HashTableINS_3RefIN3JSC19TemplateRegistryKeyEEENS_12KeyValuePairIS4_PNS2_10RegisterIDEEENS_24KeyValuePairKeyExtractorIS8_EENS_7PtrHashIS4_EENS_7HashMapIS4_S7_SC_NS_10HashTraitsIS4_EENSE_IS7_EEE18KeyValuePairTraitsESF_E6rehashEjPS8_
1123:__ZN3WTF9HashTableINS_3RefIN3JSC19TemplateRegistryKeyEEENS_12KeyValuePairIS4_PNS2_10RegisterIDEEENS_24KeyValuePairKeyExtractorIS8_EENS_7PtrHashIS4_EENS_7HashMapIS4_S7_SC_NS_10HashTraitsIS4_EENSE_IS7_EEE18KeyValuePairTraitsESF_E8reinsertEOS8_
1124:__ZN3JSC17BytecodeGenerator12emitNewArrayEPNS_10RegisterIDEPNS_11ElementNodeEj
1125:__ZN3JSC17BytecodeGenerator22emitNewArrayWithSpreadEPNS_10RegisterIDEPNS_11ElementNodeE
1126:__ZN3WTF6VectorINS_9BitVectorELm0ENS_15CrashOnOverflowELm16EE6appendEOS1_
1127:__ZN3WTF6VectorINS_9BitVectorELm0ENS_15CrashOnOverflowELm16EE15reserveCapacityEm
1128:__ZN3JSC17BytecodeGenerator13emitNewRegExpEPNS_10RegisterIDEPNS_6RegExpE
1129:__ZN3JSC17BytecodeGenerator25emitNewDefaultConstructorEPNS_10RegisterIDENS_15ConstructorKindERKNS_10IdentifierES6_RKNS_10SourceCodeE
1130:__ZN3JSC17BytecodeGenerator27emitSetFunctionNameIfNeededEPNS_14ExpressionNodeEPNS_10RegisterIDES4_
1131:__ZN3JSC17BytecodeGenerator22emitCallInTailPositionEPNS_10RegisterIDES2_NS_16ExpectedFunctionERNS_13CallArgumentsERKNS_14JSTextPositionES8_S8_NS_14DebuggableCallE
1132:__ZN3JSC17BytecodeGenerator12emitCallEvalEPNS_10RegisterIDES2_RNS_13CallArgumentsERKNS_14JSTextPositionES7_S7_NS_14DebuggableCallE
1133:__ZN3JSC17BytecodeGenerator29expectedFunctionForIdentifierERKNS_10IdentifierE
1134:__ZN3JSC17BytecodeGenerator29emitCallVarargsInTailPositionEPNS_10RegisterIDES2_S2_S2_S2_iRKNS_14JSTextPositionES5_S5_NS_14DebuggableCallE
1135:__ZN3JSC17BytecodeGenerator22emitCallDefinePropertyEPNS_10RegisterIDES2_S2_S2_S2_jRKNS_14JSTextPositionE
1136:__ZN3JSC17BytecodeGenerator16emitUnaryNoDstOpENS_8OpcodeIDEPNS_10RegisterIDE
1137:__ZN3JSC17BytecodeGenerator13emitConstructEPNS_10RegisterIDES2_NS_16ExpectedFunctionERNS_13CallArgumentsERKNS_14JSTextPositionES8_S8_
1138:__ZN3JSC17BytecodeGenerator10emitStrcatEPNS_10RegisterIDES2_i
1139:__ZN3JSC17BytecodeGenerator15emitToPrimitiveEPNS_10RegisterIDES2_
1140:__ZN3JSC17BytecodeGenerator17emitPushWithScopeEPNS_10RegisterIDE
1141:__ZN3JSC17BytecodeGenerator16emitPopWithScopeEv
1142:__ZN3JSC17BytecodeGenerator13emitDebugHookENS_13DebugHookTypeEjjj
1143:__ZN3JSC17BytecodeGenerator13emitDebugHookEPNS_13StatementNodeE
1144:__ZN3JSC17BytecodeGenerator13emitDebugHookEPNS_14ExpressionNodeE
1145:__ZN3JSC17BytecodeGenerator31emitWillLeaveCallFrameDebugHookEv
1146:__ZN3JSC17BytecodeGenerator27pushFinallyControlFlowScopeERNS_5LabelE
1147:__ZN3JSC17BytecodeGenerator26popFinallyControlFlowScopeEv
1148:__ZN3JSC17BytecodeGenerator11breakTargetERKNS_10IdentifierE
1149:__ZN3JSC17BytecodeGenerator14continueTargetERKNS_10IdentifierE
1150:__ZN3JSC17BytecodeGenerator20restoreScopeRegisterEi
1151:__ZN3JSC17BytecodeGenerator20restoreScopeRegisterEv
1152:__ZN3JSC17BytecodeGenerator34labelScopeDepthToLexicalScopeIndexEi
1153:__ZN3JSC17BytecodeGenerator20emitThrowStaticErrorENS_9ErrorTypeEPNS_10RegisterIDE
1154:__ZN3JSC17BytecodeGenerator23emitThrowReferenceErrorERKN3WTF6StringE
1155:__ZN3JSC17BytecodeGenerator25emitThrowOutOfMemoryErrorEv
1156:__ZN3JSC17BytecodeGenerator11beginSwitchEPNS_10RegisterIDENS_10SwitchInfo10SwitchTypeE
1157:__ZN3JSC17BytecodeGenerator9endSwitchEjRKN3WTF6VectorINS1_3RefINS_5LabelEEELm8ENS1_15CrashOnOverflowELm16EEEPPNS_14ExpressionNodeERS4_ii
1158:__ZN3JSCL21keyForImmediateSwitchEPNS_14ExpressionNodeEii
1159:__ZN3JSCL21keyForCharacterSwitchEPNS_14ExpressionNodeEii
1160:__ZN3JSC17UnlinkedCodeBlock24addStringSwitchJumpTableEv
1161:__ZN3WTF7HashMapINS_6RefPtrINS_10StringImplEEEN3JSC23UnlinkedStringJumpTable14OffsetLocationENS_10StringHashENS_10HashTraitsIS3_EENS8_IS6_EEE3addIS6_EENS_18HashTableAddResultINS_17HashTableIteratorIS3_NS_12KeyValuePairIS3_S6_EENS_24KeyValuePairKeyExtractorISG_EES7_NSB_18KeyValuePairTraitsES9_EEEEOS3_OT_
1162:__ZN3JSC17BytecodeGenerator35emitThrowExpressionTooDeepExceptionEv
1163:__ZN3JSC17BytecodeGenerator29emitReadOnlyExceptionIfNeededERKNS_8VariableE
1164:__ZN3JSC17BytecodeGenerator15emitEnumerationEPNS_23ThrowableExpressionDataEPNS_14ExpressionNodeERKNSt3__28functionIFvRS0_PNS_10RegisterIDEEEEPNS_9ForOfNodeES9_
1165:__ZN3JSC17BytecodeGenerator33allocateCompletionRecordRegistersEv
1166:__ZN3JSC17BytecodeGenerator21emitFinallyCompletionERNS_14FinallyContextEPNS_10RegisterIDERNS_5LabelE
1167:__ZN3JSC17BytecodeGenerator11emitIsEmptyEPNS_10RegisterIDES2_
1168:__ZN3JSC17BytecodeGenerator16emitIteratorNextEPNS_10RegisterIDES2_PKNS_23ThrowableExpressionDataE
1169:__ZN3JSC17BytecodeGenerator17emitIteratorCloseEPNS_10RegisterIDEPKNS_23ThrowableExpressionDataE
1170:__ZN3JSC17BytecodeGenerator10emitJumpIfENS_8OpcodeIDEPNS_10RegisterIDENS_14CompletionTypeERNS_5LabelE
1171:__ZN3JSC17BytecodeGenerator21emitGetTemplateObjectEPNS_10RegisterIDEPNS_18TaggedTemplateNodeE
1172:__ZN3WTF6VectorISt8optionalINS_6StringEELm4ENS_15CrashOnOverflowELm16EE15reserveCapacityEm
1173:__ZN3JSC17BytecodeGenerator20emitGetGlobalPrivateEPNS_10RegisterIDERKNS_10IdentifierE
1174:__ZN3JSC17BytecodeGenerator23emitGetEnumerableLengthEPNS_10RegisterIDES2_
1175:__ZN3JSC17BytecodeGenerator22emitHasGenericPropertyEPNS_10RegisterIDES2_S2_
1176:__ZN3JSC17BytecodeGenerator22emitHasIndexedPropertyEPNS_10RegisterIDES2_S2_
1177:__ZN3JSC17BytecodeGenerator24emitHasStructurePropertyEPNS_10RegisterIDES2_S2_S2_
1178:__ZN3JSC17BytecodeGenerator25emitGetPropertyEnumeratorEPNS_10RegisterIDES2_
1179:__ZN3JSC17BytecodeGenerator35emitEnumeratorStructurePropertyNameEPNS_10RegisterIDES2_S2_
1180:__ZN3JSC17BytecodeGenerator33emitEnumeratorGenericPropertyNameEPNS_10RegisterIDES2_S2_
1181:__ZN3JSC17BytecodeGenerator17emitToIndexStringEPNS_10RegisterIDES2_
1182:__ZN3JSC17BytecodeGenerator18emitIsCellWithTypeEPNS_10RegisterIDES2_NS_6JSTypeE
1183:__ZN3JSC17BytecodeGenerator25emitIteratorNextWithValueEPNS_10RegisterIDES2_S2_PKNS_23ThrowableExpressionDataE
1184:__ZN3JSC17BytecodeGenerator21pushIndexedForInScopeEPNS_10RegisterIDES2_
1185:__ZN3JSC19IndexedForInContextD2Ev
1186:__ZN3JSC19IndexedForInContextD0Ev
1187:__ZNK3JSC19IndexedForInContext4typeEv
1188:__ZN3JSC12ForInContextD2Ev
1189:__ZN3JSC17BytecodeGenerator20popIndexedForInScopeEPNS_10RegisterIDE
1190:__ZN3JSC17BytecodeGenerator61emitLoadDerivedConstructorFromArrowFunctionLexicalEnvironmentEv
1191:__ZN3JSC17BytecodeGenerator10ensureThisEv
1192:__ZN3JSC17BytecodeGenerator35isSuperCallUsedInInnerArrowFunctionEv
1193:__ZN3JSC17BytecodeGenerator23pushStructureForInScopeEPNS_10RegisterIDES2_S2_S2_
1194:__ZN3JSC21StructureForInContextD2Ev
1195:__ZN3JSC21StructureForInContextD0Ev
1196:__ZNK3JSC21StructureForInContext4typeEv
1197:__ZN3JSC17BytecodeGenerator30invalidateForInContextForLocalEPNS_10RegisterIDE
1198:__ZN3JSC17BytecodeGenerator17emitRestParameterEPNS_10RegisterIDEj
1199:__ZN3JSC17BytecodeGenerator26emitRequireObjectCoercibleEPNS_10RegisterIDERKN3WTF6StringE
1200:__ZN3JSC17BytecodeGenerator14emitYieldPointEPNS_10RegisterIDE
1201:__ZN3JSC17BytecodeGenerator9emitYieldEPNS_10RegisterIDE
1202:__ZN3JSC17BytecodeGenerator28emitReturnViaFinallyIfNeededEPNS_10RegisterIDE
1203:__ZN3JSC17BytecodeGenerator17emitDelegateYieldEPNS_10RegisterIDEPNS_23ThrowableExpressionDataE
1204:__ZN3JSC17BytecodeGenerator26emitJumpViaFinallyIfNeededEiRNS_5LabelE
1205:__ZN3WTF6VectorIN3JSC11FinallyJumpELm0ENS_15CrashOnOverflowELm16EE14expandCapacityEm
1206:__ZN3JSC17BytecodeGenerator32releaseCompletionRecordRegistersEv
1207:__ZNK3JSC14ExpressionNode6isPureERNS_17BytecodeGeneratorE
1208:__ZNK3JSC14ExpressionNode20isAssignmentLocationEv
1209:__ZN3JSC14ExpressionNode30emitBytecodeInConditionContextERNS_17BytecodeGeneratorERNS_5LabelES4_NS_15FallThroughModeE
1210:__ZN3JSC14ExpressionNode14stripUnaryPlusEv
1211:__ZN3JSC12ConstantNode12emitBytecodeERNS_17BytecodeGeneratorEPNS_10RegisterIDE
1212:__ZNK3JSC12ConstantNode6isPureERNS_17BytecodeGeneratorE
1213:__ZN3JSC12ConstantNode30emitBytecodeInConditionContextERNS_17BytecodeGeneratorERNS_5LabelES4_NS_15FallThroughModeE
1214:__ZN3JSC10NumberNode12emitBytecodeERNS_17BytecodeGeneratorEPNS_10RegisterIDE
1215:__ZNK3JSC10NumberNode7jsValueERNS_17BytecodeGeneratorE
1216:__ZNK3JSC10StringNode7jsValueERNS_17BytecodeGeneratorE
1217:__ZN3JSC18TemplateStringNode12emitBytecodeERNS_17BytecodeGeneratorEPNS_10RegisterIDE
1218:__ZN3JSC19TemplateLiteralNode12emitBytecodeERNS_17BytecodeGeneratorEPNS_10RegisterIDE
1219:__ZN3JSC18TaggedTemplateNode12emitBytecodeERNS_17BytecodeGeneratorEPNS_10RegisterIDE
1220:__ZN3JSC13CallArgumentsC2ERNS_17BytecodeGeneratorEPNS_13ArgumentsNodeEj
1221:__ZN3WTF6VectorINS_6RefPtrIN3JSC10RegisterIDEEELm8ENS_20UnsafeVectorOverflowELm16EE6insertIPS3_EEvmOT_
1222:__ZN3JSC10RegExpNode12emitBytecodeERNS_17BytecodeGeneratorEPNS_10RegisterIDE
1223:__ZN3JSC8ThisNode12emitBytecodeERNS_17BytecodeGeneratorEPNS_10RegisterIDE
1224:__ZN3JSC9SuperNode12emitBytecodeERNS_17BytecodeGeneratorEPNS_10RegisterIDE
1225:__ZN3JSCL22emitSuperBaseForCalleeERNS_17BytecodeGeneratorE
1226:__ZN3JSC10ImportNode12emitBytecodeERNS_17BytecodeGeneratorEPNS_10RegisterIDE
1227:__ZN3JSC13NewTargetNode12emitBytecodeERNS_17BytecodeGeneratorEPNS_10RegisterIDE
1228:__ZN3JSC11ResolveNode12emitBytecodeERNS_17BytecodeGeneratorEPNS_10RegisterIDE
1229:__ZNK3JSC11ResolveNode6isPureERNS_17BytecodeGeneratorE
1230:__ZN3JSC9ArrayNode12emitBytecodeERNS_17BytecodeGeneratorEPNS_10RegisterIDE
1231:__ZNK3JSC9ArrayNode13isSimpleArrayEv
1232:__ZNSt3__210__function6__funcIZN3JSC9ArrayNode12emitBytecodeERNS2_17BytecodeGeneratorEPNS2_10RegisterIDEE3__0NS_9allocatorIS8_EEFvS5_S7_EED2Ev
1233:__ZNSt3__210__function6__funcIZN3JSC9ArrayNode12emitBytecodeERNS2_17BytecodeGeneratorEPNS2_10RegisterIDEE3__0NS_9allocatorIS8_EEFvS5_S7_EED0Ev
1234:__ZNKSt3__210__function6__funcIZN3JSC9ArrayNode12emitBytecodeERNS2_17BytecodeGeneratorEPNS2_10RegisterIDEE3__0NS_9allocatorIS8_EEFvS5_S7_EE7__cloneEv
1235:__ZNKSt3__210__function6__funcIZN3JSC9ArrayNode12emitBytecodeERNS2_17BytecodeGeneratorEPNS2_10RegisterIDEE3__0NS_9allocatorIS8_EEFvS5_S7_EE7__cloneEPNS0_6__baseISB_EE
1236:__ZNSt3__210__function6__funcIZN3JSC9ArrayNode12emitBytecodeERNS2_17BytecodeGeneratorEPNS2_10RegisterIDEE3__0NS_9allocatorIS8_EEFvS5_S7_EE7destroyEv
1237:__ZNSt3__210__function6__funcIZN3JSC9ArrayNode12emitBytecodeERNS2_17BytecodeGeneratorEPNS2_10RegisterIDEE3__0NS_9allocatorIS8_EEFvS5_S7_EE18destroy_deallocateEv
1238:__ZNSt3__210__function6__funcIZN3JSC9ArrayNode12emitBytecodeERNS2_17BytecodeGeneratorEPNS2_10RegisterIDEE3__0NS_9allocatorIS8_EEFvS5_S7_EEclES5_OS7_
1239:__ZNKSt3__210__function6__funcIZN3JSC9ArrayNode12emitBytecodeERNS2_17BytecodeGeneratorEPNS2_10RegisterIDEE3__0NS_9allocatorIS8_EEFvS5_S7_EE6targetERKSt9type_info
1240:__ZNKSt3__210__function6__funcIZN3JSC9ArrayNode12emitBytecodeERNS2_17BytecodeGeneratorEPNS2_10RegisterIDEE3__0NS_9allocatorIS8_EEFvS5_S7_EE11target_typeEv
1241:__ZN3JSC16PropertyListNode12emitBytecodeERNS_17BytecodeGeneratorEPNS_10RegisterIDE
1242:__ZN3JSC16PropertyListNode23emitPutConstantPropertyERNS_17BytecodeGeneratorEPNS_10RegisterIDERNS_12PropertyNodeE
1243:__ZN3WTF7HashMapIPNS_17UniquedStringImplENSt3__24pairIPN3JSC12PropertyNodeES7_EENS5_17IdentifierRepHashENS_10HashTraitsIS2_EENSA_IS8_EEE3addIRS8_EENS_18HashTableAddResultINS_17HashTableIteratorIS2_NS_12KeyValuePairIS2_S8_EENS_24KeyValuePairKeyExtractorISJ_EES9_NSD_18KeyValuePairTraitsESB_EEEEOS2_OT_
1244:__ZN3WTF9HashTableIPNS_17UniquedStringImplENS_12KeyValuePairIS2_NSt3__24pairIPN3JSC12PropertyNodeES8_EEEENS_24KeyValuePairKeyExtractorISA_EENS6_17IdentifierRepHashENS_7HashMapIS2_S9_SD_NS_10HashTraitsIS2_EENSF_IS9_EEE18KeyValuePairTraitsESG_E6rehashEjPSA_
1245:__ZN3JSC17ObjectLiteralNode12emitBytecodeERNS_17BytecodeGeneratorEPNS_10RegisterIDE
1246:__ZN3JSC19BracketAccessorNode12emitBytecodeERNS_17BytecodeGeneratorEPNS_10RegisterIDE
1247:__ZN3JSCL23isNonIndexStringElementERNS_14ExpressionNodeE
1248:__ZN3JSC15DotAccessorNode12emitBytecodeERNS_17BytecodeGeneratorEPNS_10RegisterIDE
1249:__ZN3JSC20SpreadExpressionNode12emitBytecodeERNS_17BytecodeGeneratorEPNS_10RegisterIDE
1250:__ZN3JSC26ObjectSpreadExpressionNode12emitBytecodeERNS_17BytecodeGeneratorEPNS_10RegisterIDE
1251:__ZN3JSC16ArgumentListNode12emitBytecodeERNS_17BytecodeGeneratorEPNS_10RegisterIDE
1252:__ZN3JSC11NewExprNode12emitBytecodeERNS_17BytecodeGeneratorEPNS_10RegisterIDE
1253:__ZN3JSC20EvalFunctionCallNode12emitBytecodeERNS_17BytecodeGeneratorEPNS_10RegisterIDE
1254:__ZN3JSC21FunctionCallValueNode12emitBytecodeERNS_17BytecodeGeneratorEPNS_10RegisterIDE
1255:__ZN3JSC23FunctionCallResolveNode12emitBytecodeERNS_17BytecodeGeneratorEPNS_10RegisterIDE
1256:__ZN3JSC23FunctionCallBracketNode12emitBytecodeERNS_17BytecodeGeneratorEPNS_10RegisterIDE
1257:__ZN3JSC19FunctionCallDotNode12emitBytecodeERNS_17BytecodeGeneratorEPNS_10RegisterIDE
1258:__ZN3JSC21BytecodeIntrinsicNode12emitBytecodeERNS_17BytecodeGeneratorEPNS_10RegisterIDE
1259:__ZN3JSC23CallFunctionCallDotNode12emitBytecodeERNS_17BytecodeGeneratorEPNS_10RegisterIDE
1260:__ZZN3JSC23CallFunctionCallDotNode12emitBytecodeERNS_17BytecodeGeneratorEPNS_10RegisterIDEENK3__1clEv
1261:__ZN3JSC24ApplyFunctionCallDotNode12emitBytecodeERNS_17BytecodeGeneratorEPNS_10RegisterIDE
1262:__ZZN3JSC24ApplyFunctionCallDotNode12emitBytecodeERNS_17BytecodeGeneratorEPNS_10RegisterIDEENK3__2clEv
1263:__ZNKSt3__210__function6__funcIZN3JSC24ApplyFunctionCallDotNode12emitBytecodeERNS2_17BytecodeGeneratorEPNS2_10RegisterIDEE3__3NS_9allocatorIS8_EEFvS5_S7_EE7__cloneEv
1264:__ZNKSt3__210__function6__funcIZN3JSC24ApplyFunctionCallDotNode12emitBytecodeERNS2_17BytecodeGeneratorEPNS2_10RegisterIDEE3__3NS_9allocatorIS8_EEFvS5_S7_EE7__cloneEPNS0_6__baseISB_EE
1265:__ZNSt3__210__function6__funcIZN3JSC24ApplyFunctionCallDotNode12emitBytecodeERNS2_17BytecodeGeneratorEPNS2_10RegisterIDEE3__3NS_9allocatorIS8_EEFvS5_S7_EEclES5_OS7_
1266:__ZNKSt3__210__function6__funcIZN3JSC24ApplyFunctionCallDotNode12emitBytecodeERNS2_17BytecodeGeneratorEPNS2_10RegisterIDEE3__3NS_9allocatorIS8_EEFvS5_S7_EE6targetERKSt9type_info
1267:__ZNKSt3__210__function6__funcIZN3JSC24ApplyFunctionCallDotNode12emitBytecodeERNS2_17BytecodeGeneratorEPNS2_10RegisterIDEE3__3NS_9allocatorIS8_EEFvS5_S7_EE11target_typeEv
1268:__ZN3JSC10PrefixNode12emitBytecodeERNS_17BytecodeGeneratorEPNS_10RegisterIDE
1269:__ZN3JSC10PrefixNode11emitResolveERNS_17BytecodeGeneratorEPNS_10RegisterIDE
1270:__ZN3JSC10PrefixNode11emitBracketERNS_17BytecodeGeneratorEPNS_10RegisterIDE
1271:__ZN3JSC10PrefixNode7emitDotERNS_17BytecodeGeneratorEPNS_10RegisterIDE
1272:__ZN3JSC11PostfixNode12emitBytecodeERNS_17BytecodeGeneratorEPNS_10RegisterIDE
1273:__ZN3JSC11PostfixNode11emitResolveERNS_17BytecodeGeneratorEPNS_10RegisterIDE
1274:__ZN3JSC11PostfixNode11emitBracketERNS_17BytecodeGeneratorEPNS_10RegisterIDE
1275:__ZN3JSC11PostfixNode7emitDotERNS_17BytecodeGeneratorEPNS_10RegisterIDE
1276:__ZN3JSCL16emitPostIncOrDecERNS_17BytecodeGeneratorEPNS_10RegisterIDES3_NS_8OperatorE
1277:__ZN3JSC17DeleteResolveNode12emitBytecodeERNS_17BytecodeGeneratorEPNS_10RegisterIDE
1278:__ZN3JSC17DeleteBracketNode12emitBytecodeERNS_17BytecodeGeneratorEPNS_10RegisterIDE
1279:__ZN3JSC13DeleteDotNode12emitBytecodeERNS_17BytecodeGeneratorEPNS_10RegisterIDE
1280:__ZN3JSC15DeleteValueNode12emitBytecodeERNS_17BytecodeGeneratorEPNS_10RegisterIDE
1281:__ZN3JSC8VoidNode12emitBytecodeERNS_17BytecodeGeneratorEPNS_10RegisterIDE
1282:__ZN3JSC17TypeOfResolveNode12emitBytecodeERNS_17BytecodeGeneratorEPNS_10RegisterIDE
1283:__ZN3JSC15TypeOfValueNode12emitBytecodeERNS_17BytecodeGeneratorEPNS_10RegisterIDE
1284:__ZN3JSC11UnaryOpNode12emitBytecodeERNS_17BytecodeGeneratorEPNS_10RegisterIDE
1285:__ZN3JSC13UnaryPlusNode12emitBytecodeERNS_17BytecodeGeneratorEPNS_10RegisterIDE
1286:__ZN3JSC14BitwiseNotNode12emitBytecodeERNS_17BytecodeGeneratorEPNS_10RegisterIDE
1287:__ZN3JSC14LogicalNotNode30emitBytecodeInConditionContextERNS_17BytecodeGeneratorERNS_5LabelES4_NS_15FallThroughModeE
1288:__ZN3JSC17BytecodeGenerator26emitNodeInConditionContextEPNS_14ExpressionNodeERNS_5LabelES4_NS_15FallThroughModeE
1289:__ZN3JSC12BinaryOpNode12emitBytecodeERNS_17BytecodeGeneratorEPNS_10RegisterIDE
1290:__ZN3JSC12BinaryOpNode30emitBytecodeInConditionContextERNS_17BytecodeGeneratorERNS_5LabelES4_NS_15FallThroughModeE
1291:__ZN3JSC12BinaryOpNode15tryFoldToBranchERNS_17BytecodeGeneratorERN3WTF8TriStateERPNS_14ExpressionNodeE
1292:__ZN3JSC12BinaryOpNode10emitStrcatERNS_17BytecodeGeneratorEPNS_10RegisterIDES4_PNS_21ReadModifyResolveNodeE
1293:__ZN3JSC14InstanceOfNode12emitBytecodeERNS_17BytecodeGeneratorEPNS_10RegisterIDE
1294:__ZN3JSC6InNode12emitBytecodeERNS_17BytecodeGeneratorEPNS_10RegisterIDE
1295:__ZN3JSC9EqualNode12emitBytecodeERNS_17BytecodeGeneratorEPNS_10RegisterIDE
1296:__ZN3JSC15StrictEqualNode12emitBytecodeERNS_17BytecodeGeneratorEPNS_10RegisterIDE
1297:__ZN3JSC13LogicalOpNode12emitBytecodeERNS_17BytecodeGeneratorEPNS_10RegisterIDE
1298:__ZN3JSC13LogicalOpNode30emitBytecodeInConditionContextERNS_17BytecodeGeneratorERNS_5LabelES4_NS_15FallThroughModeE
1299:__ZN3JSC15ConditionalNode12emitBytecodeERNS_17BytecodeGeneratorEPNS_10RegisterIDE
1300:__ZN3JSC21ReadModifyResolveNode12emitBytecodeERNS_17BytecodeGeneratorEPNS_10RegisterIDE
1301:__ZN3JSC17AssignResolveNode12emitBytecodeERNS_17BytecodeGeneratorEPNS_10RegisterIDE
1302:__ZN3JSC21ReadModifyBracketNode12emitBytecodeERNS_17BytecodeGeneratorEPNS_10RegisterIDE
1303:__ZN3JSC17AssignBracketNode12emitBytecodeERNS_17BytecodeGeneratorEPNS_10RegisterIDE
1304:__ZN3JSC13AssignDotNode12emitBytecodeERNS_17BytecodeGeneratorEPNS_10RegisterIDE
1305:__ZN3JSC17ReadModifyDotNode12emitBytecodeERNS_17BytecodeGeneratorEPNS_10RegisterIDE
1306:__ZN3JSC15AssignErrorNode12emitBytecodeERNS_17BytecodeGeneratorEPNS_10RegisterIDE
1307:__ZN3JSC9CommaNode12emitBytecodeERNS_17BytecodeGeneratorEPNS_10RegisterIDE
1308:__ZN3JSC18EmptyStatementNode12emitBytecodeERNS_17BytecodeGeneratorEPNS_10RegisterIDE
1309:__ZN3JSC21DebuggerStatementNode12emitBytecodeERNS_17BytecodeGeneratorEPNS_10RegisterIDE
1310:__ZN3JSC17ExprStatementNode12emitBytecodeERNS_17BytecodeGeneratorEPNS_10RegisterIDE
1311:__ZN3JSC20DeclarationStatement12emitBytecodeERNS_17BytecodeGeneratorEPNS_10RegisterIDE
1312:__ZN3JSC21ImportDeclarationNode12emitBytecodeERNS_17BytecodeGeneratorEPNS_10RegisterIDE
1313:__ZN3JSC28ExportDefaultDeclarationNode12emitBytecodeERNS_17BytecodeGeneratorEPNS_10RegisterIDE
1314:__ZN3JSC17BytecodeGenerator22emitNodeInTailPositionEPNS_10RegisterIDEPNS_13StatementNodeE
1315:__ZN3JSC18EmptyVarExpression12emitBytecodeERNS_17BytecodeGeneratorEPNS_10RegisterIDE
1316:__ZN3JSC18EmptyLetExpression12emitBytecodeERNS_17BytecodeGeneratorEPNS_10RegisterIDE
1317:__ZN3JSC10IfElseNode12emitBytecodeERNS_17BytecodeGeneratorEPNS_10RegisterIDE
1318:__ZN3JSC9BreakNode13trivialTargetERNS_17BytecodeGeneratorE
1319:__ZN3JSC12ContinueNode13trivialTargetERNS_17BytecodeGeneratorE
1320:__ZN3JSC11DoWhileNode12emitBytecodeERNS_17BytecodeGeneratorEPNS_10RegisterIDE
1321:__ZN3JSC9WhileNode12emitBytecodeERNS_17BytecodeGeneratorEPNS_10RegisterIDE
1322:__ZN3JSC7ForNodeD2Ev
1323:__ZN3JSC7ForNodeD0Ev
1324:__ZN3JSC7ForNode12emitBytecodeERNS_17BytecodeGeneratorEPNS_10RegisterIDE
1325:__ZThn32_N3JSC7ForNodeD1Ev
1326:__ZThn32_N3JSC7ForNodeD0Ev
1327:__ZN3JSC23VariableEnvironmentNodeD2Ev
1328:__ZN3JSC23VariableEnvironmentNodeD0Ev
1329:__ZN3JSC12ContinueNode12emitBytecodeERNS_17BytecodeGeneratorEPNS_10RegisterIDE
1330:__ZN3JSC9BreakNode12emitBytecodeERNS_17BytecodeGeneratorEPNS_10RegisterIDE
1331:__ZN3JSC10ReturnNode12emitBytecodeERNS_17BytecodeGeneratorEPNS_10RegisterIDE
1332:__ZN3JSC8WithNode12emitBytecodeERNS_17BytecodeGeneratorEPNS_10RegisterIDE
1333:__ZN3JSC9LabelNode12emitBytecodeERNS_17BytecodeGeneratorEPNS_10RegisterIDE
1334:__ZN3JSC9ThrowNode12emitBytecodeERNS_17BytecodeGeneratorEPNS_10RegisterIDE
1335:__ZN3JSC7TryNode12emitBytecodeERNS_17BytecodeGeneratorEPNS_10RegisterIDE
1336:__ZN3JSC12FuncExprNode12emitBytecodeERNS_17BytecodeGeneratorEPNS_10RegisterIDE
1337:__ZN3JSC12FuncDeclNode12emitBytecodeERNS_17BytecodeGeneratorEPNS_10RegisterIDE
1338:__ZN3JSC13YieldExprNode12emitBytecodeERNS_17BytecodeGeneratorEPNS_10RegisterIDE
1339:__ZN3JSC13AwaitExprNode12emitBytecodeERNS_17BytecodeGeneratorEPNS_10RegisterIDE
1340:__ZN3JSC13ClassExprNodeD2Ev
1341:__ZN3JSC13ClassExprNodeD0Ev
1342:__ZN3JSC13ClassExprNode12emitBytecodeERNS_17BytecodeGeneratorEPNS_10RegisterIDE
1343:__ZThn24_N3JSC13ClassExprNodeD1Ev
1344:__ZThn24_N3JSC13ClassExprNodeD0Ev
1345:__ZN3JSC10SwitchNode12emitBytecodeERNS_17BytecodeGeneratorEPNS_10RegisterIDE
1346:__ZN3JSC13CaseBlockNode20emitBytecodeForBlockERNS_17BytecodeGeneratorEPNS_10RegisterIDES4_
1347:__ZN3JSC13CaseBlockNode14tryTableSwitchERN3WTF6VectorIPNS_14ExpressionNodeELm8ENS1_15CrashOnOverflowELm16EEERiS8_
1348:__ZN3WTF6VectorINS_3RefIN3JSC5LabelEEELm8ENS_15CrashOnOverflowELm16EE6appendEOS4_
1349:__ZN3JSCL17processClauseListEPNS_14ClauseListNodeERN3WTF6VectorIPNS_14ExpressionNodeELm8ENS2_15CrashOnOverflowELm16EEERNS_10SwitchKindERbRiSC_
1350:__ZN3JSC9BlockNode12emitBytecodeERNS_17BytecodeGeneratorEPNS_10RegisterIDE
1351:__ZN3JSC15EnumerationNodeD2Ev
1352:__ZN3JSC9ForInNodeD0Ev
1353:__ZN3JSC9ForInNode12emitBytecodeERNS_17BytecodeGeneratorEPNS_10RegisterIDE
1354:__ZThn68_N3JSC9ForInNodeD0Ev
1355:__ZN3JSC9ForInNode16tryGetBoundLocalERNS_17BytecodeGeneratorE
1356:__ZN3JSC9ForInNode14emitLoopHeaderERNS_17BytecodeGeneratorEPNS_10RegisterIDE
1357:__ZZN3JSC9ForInNode14emitLoopHeaderERNS_17BytecodeGeneratorEPNS_10RegisterIDEENK3__4clERKNS_10IdentifierE
1358:__ZN3JSC9ForOfNode12emitBytecodeERNS_17BytecodeGeneratorEPNS_10RegisterIDE
1359:__ZNKSt3__210__function6__funcIZN3JSC9ForOfNode12emitBytecodeERNS2_17BytecodeGeneratorEPNS2_10RegisterIDEE3__5NS_9allocatorIS8_EEFvS5_S7_EE7__cloneEv
1360:__ZNKSt3__210__function6__funcIZN3JSC9ForOfNode12emitBytecodeERNS2_17BytecodeGeneratorEPNS2_10RegisterIDEE3__5NS_9allocatorIS8_EEFvS5_S7_EE7__cloneEPNS0_6__baseISB_EE
1361:__ZNSt3__210__function6__funcIZN3JSC9ForOfNode12emitBytecodeERNS2_17BytecodeGeneratorEPNS2_10RegisterIDEE3__5NS_9allocatorIS8_EEFvS5_S7_EEclES5_OS7_
1362:__ZNKSt3__210__function6__funcIZN3JSC9ForOfNode12emitBytecodeERNS2_17BytecodeGeneratorEPNS2_10RegisterIDEE3__5NS_9allocatorIS8_EEFvS5_S7_EE6targetERKSt9type_info
1363:__ZNKSt3__210__function6__funcIZN3JSC9ForOfNode12emitBytecodeERNS2_17BytecodeGeneratorEPNS2_10RegisterIDEE3__5NS_9allocatorIS8_EEFvS5_S7_EE11target_typeEv
1364:__ZN3JSC16ArrayPatternNodeD2Ev
1365:__ZN3JSC16ArrayPatternNodeD0Ev
1366:__ZNK3JSC16ArrayPatternNode23collectBoundIdentifiersERN3WTF6VectorINS_10IdentifierELm0ENS1_15CrashOnOverflowELm16EEE
1367:__ZNK3JSC16ArrayPatternNode9bindValueERNS_17BytecodeGeneratorEPNS_10RegisterIDE
1368:__ZNK3JSC16ArrayPatternNode8toStringERN3WTF13StringBuilderE
1369:__ZN3JSC16ArrayPatternNode17emitDirectBindingERNS_17BytecodeGeneratorEPNS_10RegisterIDEPNS_14ExpressionNodeE
1370:__ZThn40_N3JSC16ArrayPatternNodeD1Ev
1371:__ZThn40_N3JSC16ArrayPatternNodeD0Ev
1372:__ZN3JSCL29assignDefaultValueIfUndefinedERNS_17BytecodeGeneratorEPNS_10RegisterIDEPNS_14ExpressionNodeE
1373:__ZN3JSC17ObjectPatternNodeD2Ev
1374:__ZN3JSC17ObjectPatternNodeD0Ev
1375:__ZNK3JSC17ObjectPatternNode23collectBoundIdentifiersERN3WTF6VectorINS_10IdentifierELm0ENS1_15CrashOnOverflowELm16EEE
1376:__ZNK3JSC17ObjectPatternNode9bindValueERNS_17BytecodeGeneratorEPNS_10RegisterIDE
1377:__ZNK3JSC17ObjectPatternNode8toStringERN3WTF13StringBuilderE
1378:__ZN3JSC24DestructuringPatternNode17emitDirectBindingERNS_17BytecodeGeneratorEPNS_10RegisterIDEPNS_14ExpressionNodeE
1379:__ZThn40_N3JSC17ObjectPatternNodeD1Ev
1380:__ZThn40_N3JSC17ObjectPatternNodeD0Ev
1381:__ZNK3JSC11BindingNode23collectBoundIdentifiersERN3WTF6VectorINS_10IdentifierELm0ENS1_15CrashOnOverflowELm16EEE
1382:__ZNK3JSC11BindingNode9bindValueERNS_17BytecodeGeneratorEPNS_10RegisterIDE
1383:__ZNK3JSC11BindingNode8toStringERN3WTF13StringBuilderE
1384:__ZNK3JSC21AssignmentElementNode9bindValueERNS_17BytecodeGeneratorEPNS_10RegisterIDE
1385:__ZNK3JSC21AssignmentElementNode8toStringERN3WTF13StringBuilderE
1386:__ZNK3JSC17RestParameterNode23collectBoundIdentifiersERN3WTF6VectorINS_10IdentifierELm0ENS1_15CrashOnOverflowELm16EEE
1387:__ZNK3JSC17RestParameterNode9bindValueERNS_17BytecodeGeneratorEPNS_10RegisterIDE
1388:__ZNK3JSC17RestParameterNode8toStringERN3WTF13StringBuilderE
1389:__ZN3JSC27DestructuringAssignmentNode12emitBytecodeERNS_17BytecodeGeneratorEPNS_10RegisterIDE
1390:__ZN3JSC9ScopeNodeD2Ev
1391:__ZN3JSC11ProgramNodeD0Ev
1392:__ZN3JSC11ProgramNode12emitBytecodeERNS_17BytecodeGeneratorEPNS_10RegisterIDE
1393:__ZThn32_N3JSC11ProgramNodeD1Ev
1394:__ZThn32_N3JSC11ProgramNodeD0Ev
1395:__ZThn72_N3JSC11ProgramNodeD1Ev
1396:__ZThn72_N3JSC11ProgramNodeD0Ev
1397:__ZN3JSCL23emitProgramNodeBytecodeERNS_17BytecodeGeneratorERNS_9ScopeNodeE
1398:__ZN3JSC15ParserArenaRootD2Ev
1399:__ZN3JSC15ParserArenaRootD0Ev
1400:__ZN3JSC17ModuleProgramNodeD2Ev
1401:__ZN3JSC17ModuleProgramNodeD0Ev
1402:__ZThn32_N3JSC17ModuleProgramNodeD1Ev
1403:__ZThn32_N3JSC17ModuleProgramNodeD0Ev
1404:__ZThn72_N3JSC17ModuleProgramNodeD1Ev
1405:__ZThn72_N3JSC17ModuleProgramNodeD0Ev
1406:__ZN3WTF12KeyValuePairINS_6RefPtrINS_17UniquedStringImplEEENS_6VectorIS3_Lm0ENS_15CrashOnOverflowELm16EEEED2Ev
1407:__ZN3JSC8EvalNode12emitBytecodeERNS_17BytecodeGeneratorEPNS_10RegisterIDE
1408:__ZN3JSC12FunctionNodeD2Ev
1409:__ZN3JSC12FunctionNodeD0Ev
1410:__ZN3JSC12FunctionNode12emitBytecodeERNS_17BytecodeGeneratorEPNS_10RegisterIDE
1411:__ZThn32_N3JSC12FunctionNodeD1Ev
1412:__ZThn32_N3JSC12FunctionNodeD0Ev
1413:__ZThn72_N3JSC12FunctionNodeD1Ev
1414:__ZThn72_N3JSC12FunctionNodeD0Ev
1415:__ZN3JSC21BytecodeIntrinsicNode23emit_intrinsic_argumentERNS_17BytecodeGeneratorEPNS_10RegisterIDE
1416:__ZN3JSC21BytecodeIntrinsicNode28emit_intrinsic_argumentCountERNS_17BytecodeGeneratorEPNS_10RegisterIDE
1417:__ZN3JSC21BytecodeIntrinsicNode21emit_intrinsic_assertERNS_17BytecodeGeneratorEPNS_10RegisterIDE
1418:__ZN3JSC21BytecodeIntrinsicNode29emit_intrinsic_putByValDirectERNS_17BytecodeGeneratorEPNS_10RegisterIDE
1419:__ZN3JSC21BytecodeIntrinsicNode39emit_intrinsic_tailCallForwardArgumentsERNS_17BytecodeGeneratorEPNS_10RegisterIDE
1420:__ZN3JSC21BytecodeIntrinsicNode29emit_intrinsic_throwTypeErrorERNS_17BytecodeGeneratorEPNS_10RegisterIDE
1421:__ZN3JSC21BytecodeIntrinsicNode30emit_intrinsic_throwRangeErrorERNS_17BytecodeGeneratorEPNS_10RegisterIDE
1422:__ZN3JSC21BytecodeIntrinsicNode36emit_intrinsic_throwOutOfMemoryErrorERNS_17BytecodeGeneratorEPNS_10RegisterIDE
1423:__ZN3JSC21BytecodeIntrinsicNode25emit_intrinsic_tryGetByIdERNS_17BytecodeGeneratorEPNS_10RegisterIDE
1424:__ZN3JSC21BytecodeIntrinsicNode23emit_intrinsic_toNumberERNS_17BytecodeGeneratorEPNS_10RegisterIDE
1425:__ZN3JSC21BytecodeIntrinsicNode23emit_intrinsic_toStringERNS_17BytecodeGeneratorEPNS_10RegisterIDE
1426:__ZN3JSC21BytecodeIntrinsicNode24emit_intrinsic_isJSArrayERNS_17BytecodeGeneratorEPNS_10RegisterIDE
1427:__ZN3JSC21BytecodeIntrinsicNode28emit_intrinsic_isProxyObjectERNS_17BytecodeGeneratorEPNS_10RegisterIDE
1428:__ZN3JSC21BytecodeIntrinsicNode29emit_intrinsic_isRegExpObjectERNS_17BytecodeGeneratorEPNS_10RegisterIDE
1429:__ZN3JSC21BytecodeIntrinsicNode23emit_intrinsic_isObjectERNS_17BytecodeGeneratorEPNS_10RegisterIDE
1430:__ZN3JSC21BytecodeIntrinsicNode29emit_intrinsic_isDerivedArrayERNS_17BytecodeGeneratorEPNS_10RegisterIDE
1431:__ZN3JSC21BytecodeIntrinsicNode20emit_intrinsic_isMapERNS_17BytecodeGeneratorEPNS_10RegisterIDE
1432:__ZN3JSC21BytecodeIntrinsicNode20emit_intrinsic_isSetERNS_17BytecodeGeneratorEPNS_10RegisterIDE
1433:__ZN3JSC21BytecodeIntrinsicNode31emit_intrinsic_newArrayWithSizeERNS_17BytecodeGeneratorEPNS_10RegisterIDE
1434:__ZN3JSC21BytecodeIntrinsicNode24emit_intrinsic_undefinedERNS_17BytecodeGeneratorEPNS_10RegisterIDE
1435:__ZN3JSC21BytecodeIntrinsicNode23emit_intrinsic_InfinityERNS_17BytecodeGeneratorEPNS_10RegisterIDE
1436:__ZN3JSC21BytecodeIntrinsicNode31emit_intrinsic_iterationKindKeyERNS_17BytecodeGeneratorEPNS_10RegisterIDE
1437:__ZN3JSC21BytecodeIntrinsicNode33emit_intrinsic_iterationKindValueERNS_17BytecodeGeneratorEPNS_10RegisterIDE
1438:__ZN3JSC21BytecodeIntrinsicNode36emit_intrinsic_iterationKindKeyValueERNS_17BytecodeGeneratorEPNS_10RegisterIDE
1439:__ZN3JSC21BytecodeIntrinsicNode30emit_intrinsic_MAX_ARRAY_INDEXERNS_17BytecodeGeneratorEPNS_10RegisterIDE
1440:__ZN3JSC21BytecodeIntrinsicNode32emit_intrinsic_MAX_STRING_LENGTHERNS_17BytecodeGeneratorEPNS_10RegisterIDE
1441:__ZN3JSC21BytecodeIntrinsicNode31emit_intrinsic_MAX_SAFE_INTEGERERNS_17BytecodeGeneratorEPNS_10RegisterIDE
1442:__ZN3JSC21BytecodeIntrinsicNode26emit_intrinsic_ModuleFetchERNS_17BytecodeGeneratorEPNS_10RegisterIDE
1443:__ZN3JSC21BytecodeIntrinsicNode30emit_intrinsic_ModuleTranslateERNS_17BytecodeGeneratorEPNS_10RegisterIDE
1444:__ZN3JSC21BytecodeIntrinsicNode32emit_intrinsic_ModuleInstantiateERNS_17BytecodeGeneratorEPNS_10RegisterIDE
1445:__ZN3JSC21BytecodeIntrinsicNode28emit_intrinsic_ModuleSatisfyERNS_17BytecodeGeneratorEPNS_10RegisterIDE
1446:__ZN3JSC21BytecodeIntrinsicNode25emit_intrinsic_ModuleLinkERNS_17BytecodeGeneratorEPNS_10RegisterIDE
1447:__ZN3JSC21BytecodeIntrinsicNode26emit_intrinsic_ModuleReadyERNS_17BytecodeGeneratorEPNS_10RegisterIDE
1448:__ZN3JSC21BytecodeIntrinsicNode34emit_intrinsic_promiseStatePendingERNS_17BytecodeGeneratorEPNS_10RegisterIDE
1449:__ZN3JSC21BytecodeIntrinsicNode36emit_intrinsic_promiseStateFulfilledERNS_17BytecodeGeneratorEPNS_10RegisterIDE
1450:__ZN3JSC21BytecodeIntrinsicNode35emit_intrinsic_promiseStateRejectedERNS_17BytecodeGeneratorEPNS_10RegisterIDE
1451:__ZN3JSC21BytecodeIntrinsicNode40emit_intrinsic_GeneratorResumeModeNormalERNS_17BytecodeGeneratorEPNS_10RegisterIDE
1452:__ZN3JSC21BytecodeIntrinsicNode39emit_intrinsic_GeneratorResumeModeThrowERNS_17BytecodeGeneratorEPNS_10RegisterIDE
1453:__ZN3JSC21BytecodeIntrinsicNode40emit_intrinsic_GeneratorResumeModeReturnERNS_17BytecodeGeneratorEPNS_10RegisterIDE
1454:__ZN3JSC21BytecodeIntrinsicNode38emit_intrinsic_GeneratorStateCompletedERNS_17BytecodeGeneratorEPNS_10RegisterIDE
1455:__ZN3JSC21BytecodeIntrinsicNode38emit_intrinsic_GeneratorStateExecutingERNS_17BytecodeGeneratorEPNS_10RegisterIDE
1456:__ZN3JSC17RestParameterNode4emitERNS_17BytecodeGeneratorE
1457:__ZN3JSC8DebuggerD2Ev
1458:__ZN3JSC8Debugger23recompileAllJSFunctionsEv
1459:__ZN3JSC17DebuggerCallFrameD2Ev
1460:__ZN3WTF12KeyValuePairIiNS_6RefPtrIN3JSC15BreakpointsListEEEED2Ev
1461:__ZN3JSC8DebuggerC2ERNS_2VME
1462:__ZN3JSC8Debugger6attachEPNS_14JSGlobalObjectE
1463:__ZN3JSC8Debugger6detachEPNS_14JSGlobalObjectENS0_15ReasonForDetachE
1464:__ZN3WTF22ScopedLambdaRefFunctorIFbPN3JSC9CodeBlockEENS1_8Debugger28ClearDebuggerRequestsFunctorEE12implFunctionEPvS3_
1465:__ZN3JSC8Debugger15continueProgramEv
1466:__ZN3WTF22ScopedLambdaRefFunctorIFbPN3JSC9CodeBlockEENS1_8Debugger22SetSteppingModeFunctorEE12implFunctionEPvS3_
1467:__ZN3JSC8Debugger17registerCodeBlockEPNS_9CodeBlockE
1468:__ZN3JSC8Debugger16toggleBreakpointEPNS_9CodeBlockERNS_10BreakpointENS0_15BreakpointStateE
1469:__ZN3JSC8Debugger18setProfilingClientEPNS0_15ProfilingClientE
1470:__ZN3JSC8Debugger18willEvaluateScriptEv
1471:__ZN3JSC8Debugger17didEvaluateScriptEdNS_15ProfilingReasonE
1472:__ZN3WTF22ScopedLambdaRefFunctorIFbPN3JSC9CodeBlockEENS1_8Debugger23ToggleBreakpointFunctorEE12implFunctionEPvS3_
1473:__ZN3JSC8Debugger17debuggerParseDataEmPNS_14SourceProviderE
1474:__ZN3WTF7HashMapImN3JSC17DebuggerParseDataENS_7IntHashImEENS_29UnsignedWithZeroKeyHashTraitsImEENS_10HashTraitsIS2_EEE3addIRS2_EENS_18HashTableAddResultINS_17HashTableIteratorImNS_12KeyValuePairImS2_EENS_24KeyValuePairKeyExtractorISF_EES4_NS9_18KeyValuePairTraitsES6_EEEERKmOT_
1475:__ZN3WTF9HashTableImNS_12KeyValuePairImN3JSC17DebuggerParseDataEEENS_24KeyValuePairKeyExtractorIS4_EENS_7IntHashImEENS_7HashMapImS3_S8_NS_29UnsignedWithZeroKeyHashTraitsImEENS_10HashTraitsIS3_EEE18KeyValuePairTraitsESB_E6rehashEjPS4_
1476:__ZN3WTF6VectorIN3JSC21DebuggerPausePositionELm0ENS_15CrashOnOverflowELm16EEaSERKS4_
1477:__ZN3WTF9HashTableImNS_12KeyValuePairImN3JSC17DebuggerParseDataEEENS_24KeyValuePairKeyExtractorIS4_EENS_7IntHashImEENS_7HashMapImS3_S8_NS_29UnsignedWithZeroKeyHashTraitsImEENS_10HashTraitsIS3_EEE18KeyValuePairTraitsESB_E8reinsertEOS4_
1478:__ZN3JSC8Debugger17resolveBreakpointERNS_10BreakpointEPNS_14SourceProviderE
1479:__ZN3JSC8Debugger13setBreakpointERNS_10BreakpointERb
1480:__ZN3WTF7HashMapImNS0_IjNS_6RefPtrIN3JSC15BreakpointsListEEENS_7IntHashIiEENS_29UnsignedWithZeroKeyHashTraitsIiEENS_10HashTraitsIS4_EEEENS5_ImEENS7_ImEENS9_ISB_EEE9inlineSetIRKmSB_EENS_18HashTableAddResultINS_17HashTableIteratorImNS_12KeyValuePairImSB_EENS_24KeyValuePairKeyExtractorISM_EESC_NSF_18KeyValuePairTraitsESD_EEEEOT_OT0_
1481:__ZN3WTF7HashMapIjNS_6RefPtrIN3JSC15BreakpointsListEEENS_7IntHashIiEENS_29UnsignedWithZeroKeyHashTraitsIiEENS_10HashTraitsIS4_EEE9inlineSetIiS4_EENS_18HashTableAddResultINS_17HashTableIteratorIiNS_12KeyValuePairIiS4_EENS_24KeyValuePairKeyExtractorISG_EES6_NSB_18KeyValuePairTraitsES8_EEEEOT_OT0_
1482:__ZN3WTF7HashMapImPN3JSC10BreakpointENS_7IntHashImEENS_10HashTraitsImEENS6_IS3_EEE9inlineSetIRKmRS3_EENS_18HashTableAddResultINS_17HashTableIteratorImNS_12KeyValuePairImS3_EENS_24KeyValuePairKeyExtractorISH_EES5_NS9_18KeyValuePairTraitsES7_EEEEOT_OT0_
1483:__ZN3WTF9HashTableImNS_12KeyValuePairImPN3JSC10BreakpointEEENS_24KeyValuePairKeyExtractorIS5_EENS_7IntHashImEENS_7HashMapImS4_S9_NS_10HashTraitsImEENSB_IS4_EEE18KeyValuePairTraitsESC_E6rehashEjPS5_
1484:__ZN3WTF9HashTableIiNS_12KeyValuePairIiNS_6RefPtrIN3JSC15BreakpointsListEEEEENS_24KeyValuePairKeyExtractorIS6_EENS_7IntHashIiEENS_7HashMapIjS5_SA_NS_29UnsignedWithZeroKeyHashTraitsIiEENS_10HashTraitsIS5_EEE18KeyValuePairTraitsESD_E6rehashEjPS6_
1485:__ZN3WTF6RefPtrIN3JSC15BreakpointsListEEaSEOS3_
1486:__ZN3WTF9HashTableIiNS_12KeyValuePairIiNS_6RefPtrIN3JSC15BreakpointsListEEEEENS_24KeyValuePairKeyExtractorIS6_EENS_7IntHashIiEENS_7HashMapIjS5_SA_NS_29UnsignedWithZeroKeyHashTraitsIiEENS_10HashTraitsIS5_EEE18KeyValuePairTraitsESD_E8reinsertEOS6_
1487:__ZN3WTF9HashTableImNS_12KeyValuePairImNS_7HashMapIjNS_6RefPtrIN3JSC15BreakpointsListEEENS_7IntHashIiEENS_29UnsignedWithZeroKeyHashTraitsIiEENS_10HashTraitsIS6_EEEEEENS_24KeyValuePairKeyExtractorISE_EENS7_ImEENS2_ImSD_SH_NS9_ImEENSB_ISD_EEE18KeyValuePairTraitsESI_E6rehashEjPSE_
1488:__ZN3WTF9HashTableImNS_12KeyValuePairImNS_7HashMapIjNS_6RefPtrIN3JSC15BreakpointsListEEENS_7IntHashIiEENS_29UnsignedWithZeroKeyHashTraitsIiEENS_10HashTraitsIS6_EEEEEENS_24KeyValuePairKeyExtractorISE_EENS7_ImEENS2_ImSD_SH_NS9_ImEENSB_ISD_EEE18KeyValuePairTraitsESI_E8reinsertEOSE_
1489:__ZN3JSC8Debugger16removeBreakpointEm
1490:__ZN3WTF22KeyValuePairHashTraitsINS_29UnsignedWithZeroKeyHashTraitsIiEENS_10HashTraitsINS_6RefPtrIN3JSC15BreakpointsListEEEEEE18customDeleteBucketERNS_12KeyValuePairIiS7_EE
1491:__ZN3WTF9HashTableImNS_12KeyValuePairImNS_7HashMapIjNS_6RefPtrIN3JSC15BreakpointsListEEENS_7IntHashIiEENS_29UnsignedWithZeroKeyHashTraitsIiEENS_10HashTraitsIS6_EEEEEENS_24KeyValuePairKeyExtractorISE_EENS7_ImEENS2_ImSD_SH_NS9_ImEENSB_ISD_EEE18KeyValuePairTraitsESI_E34removeWithoutEntryConsistencyCheckENS_17HashTableIteratorImSE_SG_SH_SL_SI_EE
1492:__ZN3JSC8Debugger13hasBreakpointEmRKN3WTF12TextPositionEPNS_10BreakpointE
1493:__ZN3JSC8Debugger24currentDebuggerCallFrameEv
1494:__ZNK3WTF10RefCountedIN3JSC17DebuggerCallFrameEE5derefEv
1495:__ZN3JSC8Debugger16clearBreakpointsEv
1496:__ZN3WTF22ScopedLambdaRefFunctorIFbPN3JSC9CodeBlockEENS1_8Debugger37ClearCodeBlockDebuggerRequestsFunctorEE12implFunctionEPvS3_
1497:__ZN3JSC8Debugger23setBreakpointsActivatedEb
1498:__ZN3JSC8Debugger25setPauseOnExceptionsStateENS0_22PauseOnExceptionsStateE
1499:__ZN3JSC8Debugger23setPauseOnNextStatementEb
1500:__ZN3JSC8Debugger13pauseIfNeededEPNS_9ExecStateE
1501:__ZN3JSC8Debugger17stepIntoStatementEv
1502:__ZN3JSC8Debugger17stepOverStatementEv
1503:__ZN3JSC8Debugger17stepOutOfFunctionEv
1504:__ZN3JSC8Debugger9exceptionEPNS_9ExecStateENS_7JSValueEb
1505:__ZN3JSC8Debugger11atStatementEPNS_9ExecStateE
1506:__ZN3JSC8Debugger12atExpressionEPNS_9ExecStateE
1507:__ZN3JSC8Debugger9callEventEPNS_9ExecStateE
1508:__ZN3JSC8Debugger11returnEventEPNS_9ExecStateE
1509:__ZN3JSC8Debugger11unwindEventEPNS_9ExecStateE
1510:__ZN3JSC8Debugger17didExecuteProgramEPNS_9ExecStateE
1511:__ZN3JSC8Debugger18didReachBreakpointEPNS_9ExecStateE
1512:__ZN3JSC8Debugger14addToBlacklistEm
1513:__ZN3WTF9HashTableImmNS_17IdentityExtractorENS_7IntHashImEENS_29UnsignedWithZeroKeyHashTraitsImEES5_E3addERKm
1514:__ZN3JSC8Debugger14clearBlacklistEv
1515:__ZN3JSC17DebuggerCallFrame6createERNS_2VMEPNS_9ExecStateE
1516:__ZN3JSC17DebuggerCallFrameC2ERNS_2VMEPNS_9ExecStateERKNS_13ShadowChicken5FrameE
1517:__ZN3JSC17DebuggerCallFrame15currentPositionERNS_2VME
1518:__ZN3JSC17DebuggerCallFrame11callerFrameEv
1519:__ZN3JSC17DebuggerCallFrame10globalExecEv
1520:__ZN3JSC17DebuggerCallFrame5scopeEv
1521:__ZNK3JSC17DebuggerCallFrame8sourceIDEv
1522:__ZN3JSC17DebuggerCallFrame20sourceIDForCallFrameEPNS_9ExecStateE
1523:__ZNK3JSC17DebuggerCallFrame12functionNameEv
1524:__ZNK3JSC17DebuggerCallFrame4typeEv
1525:__ZNK3JSC17DebuggerCallFrame9thisValueEv
1526:__ZN3JSC17DebuggerCallFrame26evaluateWithScopeExtensionERKN3WTF6StringEPNS_8JSObjectERNS1_8NakedPtrINS_9ExceptionEEE
1527:__ZN3JSC17DebuggerCallFrame10invalidateEv
1528:__ZN3JSC17DebuggerCallFrame20positionForCallFrameERNS_2VMEPNS_9ExecStateE
1529:__ZN3JSC16DebuggerLocationC2EPNS_16ScriptExecutableE
1530:__ZN3JSC22DebuggerPausePositions31breakpointLocationForLineColumnEii
1531:__ZNSt3__26__sortIRZN3JSC22DebuggerPausePositions4sortEvE3__0PNS1_21DebuggerPausePositionEEEvT0_S7_T_
1532:__ZNSt3__27__sort4IRZN3JSC22DebuggerPausePositions4sortEvE3__0PNS1_21DebuggerPausePositionEEEjT0_S7_S7_S7_T_
1533:__ZNSt3__27__sort5IRZN3JSC22DebuggerPausePositions4sortEvE3__0PNS1_21DebuggerPausePositionEEEjT0_S7_S7_S7_S7_T_
1534:__ZNSt3__227__insertion_sort_incompleteIRZN3JSC22DebuggerPausePositions4sortEvE3__0PNS1_21DebuggerPausePositionEEEbT0_S7_T_
1535:__ZN3JSC32gatherDebuggerParseDataForSourceERNS_2VMEPNS_14SourceProviderERNS_17DebuggerParseDataE
1536:__ZN3JSC23gatherDebuggerParseDataILNS_20DebuggerParseInfoTagE0EEEbRNS_2VMERKNS_10SourceCodeERNS_17DebuggerParseDataE
1537:__ZN3JSC23gatherDebuggerParseDataILNS_20DebuggerParseInfoTagE1EEEbRNS_2VMERKNS_10SourceCodeERNS_17DebuggerParseDataE
1538:__ZN3JSC5parseINS_17ModuleProgramNodeEEENSt3__210unique_ptrIT_NS2_14default_deleteIS4_EEEEPNS_2VMERKNS_10SourceCodeERKNS_10IdentifierENS_19JSParserBuiltinModeENS_18JSParserStrictModeENS_18JSParserScriptModeENS_15SourceParseModeENS_12SuperBindingERNS_11ParserErrorEPNS_14JSTextPositionENS_15ConstructorKindENS_18DerivedContextTypeENS_15EvalContextTypeEPNS_17DebuggerParseDataE
1539:__ZN3JSC6ParserINS_5LexerIhEEE5parseINS_17ModuleProgramNodeEEENSt3__210unique_ptrIT_NS6_14default_deleteIS8_EEEERNS_11ParserErrorERKNS_10IdentifierENS_15SourceParseModeE
1540:__ZN3JSC6ParserINS_5LexerItEEE5parseINS_17ModuleProgramNodeEEENSt3__210unique_ptrIT_NS6_14default_deleteIS8_EEEERNS_11ParserErrorERKNS_10IdentifierENS_15SourceParseModeE
1541:__ZN3JSC13DebuggerScope13visitChildrenEPNS_6JSCellERNS_11SlotVisitorE
1542:__ZN3JSC13DebuggerScope3putEPNS_6JSCellEPNS_9ExecStateENS_12PropertyNameENS_7JSValueERNS_15PutPropertySlotE
1543:__ZN3JSC13DebuggerScope14deletePropertyEPNS_6JSCellEPNS_9ExecStateENS_12PropertyNameE
1544:__ZN3JSC13DebuggerScope18getOwnPropertySlotEPNS_8JSObjectEPNS_9ExecStateENS_12PropertyNameERNS_12PropertySlotE
1545:__ZN3JSC13DebuggerScope19getOwnPropertyNamesEPNS_8JSObjectEPNS_9ExecStateERNS_17PropertyNameArrayENS_15EnumerationModeE
1546:__ZN3JSC13DebuggerScope9classNameEPKNS_8JSObjectE
1547:__ZN3JSC13DebuggerScope17defineOwnPropertyEPNS_8JSObjectEPNS_9ExecStateENS_12PropertyNameERKNS_18PropertyDescriptorEb
1548:__ZN3JSC13DebuggerScope6createERNS_2VMEPNS_7JSScopeE
1549:__ZN3JSC13DebuggerScope4nextEv
1550:__ZN3JSC13DebuggerScope15invalidateChainEv
1551:__ZNK3JSC13DebuggerScope12isCatchScopeEv
1552:__ZNK3JSC13DebuggerScope4nameEv
1553:__ZNK3JSC13DebuggerScope8locationEv
1554:__ZNK3JSC13DebuggerScope11caughtValueEPNS_9ExecStateE
1555:__ZN3JSC12_GLOBAL__N_124asynchronousDisassemblerEv
1556:__ZN3WTF20VectorTypeOperationsINSt3__210unique_ptrIN3JSC12_GLOBAL__N_115DisassemblyTaskENS1_14default_deleteIS5_EEEEE8destructEPS8_SA_
1557:__ZNKSt3__210__function6__funcIZN3JSC12_GLOBAL__N_124AsynchronousDisassemblerC1EvEUlvE_NS_9allocatorIS5_EEFvvEE7__cloneEv
1558:__ZNKSt3__210__function6__funcIZN3JSC12_GLOBAL__N_124AsynchronousDisassemblerC1EvEUlvE_NS_9allocatorIS5_EEFvvEE7__cloneEPNS0_6__baseIS8_EE
1559:__ZNSt3__210__function6__funcIZN3JSC12_GLOBAL__N_124AsynchronousDisassemblerC1EvEUlvE_NS_9allocatorIS5_EEFvvEEclEv
1560:__ZNKSt3__210__function6__funcIZN3JSC12_GLOBAL__N_124AsynchronousDisassemblerC1EvEUlvE_NS_9allocatorIS5_EEFvvEE6targetERKSt9type_info
1561:__ZNKSt3__210__function6__funcIZN3JSC12_GLOBAL__N_124AsynchronousDisassemblerC1EvEUlvE_NS_9allocatorIS5_EEFvvEE11target_typeEv
1562:__ZN3JSC12_GLOBAL__N_124AsynchronousDisassembler3runEv
1563:__ZN3WTF13ConditionBase9waitUntilINS_4LockEEEbRT_RKNS_24TimeWithDynamicClockTypeE
1564:__ZN3WTF22ScopedLambdaRefFunctorIFbvEZNS_13ConditionBase9waitUntilINS_4LockEEEbRT_RKNS_24TimeWithDynamicClockTypeEEUlvE_E12implFunctionEPv
1565:__ZN3WTF22ScopedLambdaRefFunctorIFvvEZNS_13ConditionBase9waitUntilINS_4LockEEEbRT_RKNS_24TimeWithDynamicClockTypeEEUlvE0_E12implFunctionEPv
1566:__ZN3JSC30waitForAsynchronousDisassemblyEv
1567:__ZNK3JSC13CellContainer16isNewlyAllocatedEPNS_8HeapCellE
1568:__ZN3JSC12CodeBlockSetC2Ev
1569:__ZN3JSC12CodeBlockSetD2Ev
1570:__ZN3JSC12CodeBlockSet3addEPNS_9CodeBlockE
1571:__ZN3JSC12CodeBlockSet27clearMarksForFullCollectionEv
1572:__ZN3JSC12CodeBlockSet20lastChanceToFinalizeERNS_2VME
1573:__ZN3JSC12CodeBlockSet29deleteUnmarkedAndUnreferencedERNS_2VMENS_15CollectionScopeE
1574:__ZZN3JSC12CodeBlockSet29deleteUnmarkedAndUnreferencedERNS_2VMENS_15CollectionScopeEENK3__0clERN3WTF7HashSetIPNS_9CodeBlockENS5_7PtrHashIS8_EENS5_10HashTraitsIS8_EEEE
1575:__ZN3JSC12CodeBlockSet23clearCurrentlyExecutingEv
1576:__ZN3WTF13printInternalERNS_11PrintStreamEN3JSC15CollectionScopeE
1577:__ZN3JSC22worldShouldBeSuspendedENS_14CollectorPhaseE
1578:__ZN3JSC17ConservativeRootsC2ERNS_4HeapE
1579:__ZN3JSC17ConservativeRootsD2Ev
1580:__ZN3JSC17ConservativeRoots3addEPvS1_RNS_17JITStubRoutineSetERNS_12CodeBlockSetE
1581:__ZN3JSC12CodeBlockSet4markERKN3WTF14AbstractLockerEPv
1582:__ZN3JSC8HeapUtil30findGCObjectPointersForMarkingIZNS_17ConservativeRoots17genericAddPointerINS_17CompositeMarkHookEEEvPvjNS_15TinyBloomFilterERT_EUlS5_E_EEvRNS_4HeapEjS6_S5_RKS7_
1583:__ZZN3JSC8HeapUtil30findGCObjectPointersForMarkingIZNS_17ConservativeRoots17genericAddPointerINS_17CompositeMarkHookEEEvPvjNS_15TinyBloomFilterERT_EUlS5_E_EEvRNS_4HeapEjS6_S5_RKS7_ENKUlS5_E_clES5_
1584:__ZN3JSC22EdenGCActivityCallbackD0Ev
1585:__ZN3JSC22EdenGCActivityCallback12doCollectionEv
1586:__ZN3JSC22EdenGCActivityCallback12lastGCLengthEv
1587:__ZN3JSC22EdenGCActivityCallback11gcTimeSliceEm
1588:__ZN3JSC22EdenGCActivityCallback9deathRateEv
1589:__ZN3JSC22FullGCActivityCallback12doCollectionEv
1590:__ZN3JSC22FullGCActivityCallback12lastGCLengthEv
1591:__ZN3JSC22FullGCActivityCallback11gcTimeSliceEm
1592:__ZN3JSC22FullGCActivityCallback9deathRateEv
1593:__ZN3JSC18GCActivityCallback6doWorkEv
1594:f64-to-uint
1595:__ZN3JSC18GCActivityCallback11didAllocateEm
1596:__ZN3JSC18GCActivityCallback11willCollectEv
1597:__ZN3JSC18GCActivityCallbackC2EPNS_4HeapE
1598:__ZN3JSC20gcConductorShortNameENS_11GCConductorE
1599:__ZN3JSC9GCLogging13levelAsStringENS0_5LevelE
1600:__ZN3JSC9HandleSetC2EPNS_2VME
1601:__ZN3JSC9HandleSet4growEv
1602:__ZN3JSC9HandleSetD2Ev
1603:__ZN3JSC9HandleSet18visitStrongHandlesERNS_11SlotVisitorE
1604:__ZN3JSC9HandleSet12writeBarrierEPNS_7JSValueERKS1_
1605:__ZN3JSC11HandleStackC2Ev
1606:__ZN3WTF10BlockStackIN3JSC7JSValueEE4growEv
1607:__ZN3WTF10BlockStackIN3JSC7JSValueEED2Ev
1608:__ZN3JSC11HandleStack4growEv
1609:__ZN3JSC11HandleStack5visitERNS_11SlotVisitorE
1610:__ZN3JSC4Heap14FinalizerOwner8finalizeENS_6HandleINS_7UnknownEEEPv
1611:__ZN3JSC4HeapC2EPNS_2VMENS_8HeapTypeE
1612:__ZN3JSC12HeapVerifier7GCCycleD2Ev
1613:__ZN3JSC4Heap6ThreadC2ERKN3WTF14AbstractLockerERS0_
1614:__ZN3JSC4Heap6ThreadD0Ev
1615:__ZN3JSC4Heap6Thread4pollERKN3WTF14AbstractLockerE
1616:__ZN3JSC4Heap6Thread4workEv
1617:__ZN3JSC4Heap6Thread14threadDidStartEv
1618:__ZN3JSC4Heap15runCurrentPhaseENS_11GCConductorEPNS_18CurrentThreadStateE
1619:__ZN3JSC4Heap19finishChangingPhaseENS_11GCConductorE
1620:__ZN3JSC4Heap18runNotRunningPhaseENS_11GCConductorE
1621:__ZN3JSC4Heap13runBeginPhaseENS_11GCConductorE
1622:__ZN3JSC4Heap16runFixpointPhaseENS_11GCConductorE
1623:__ZN3JSC4Heap18runConcurrentPhaseENS_11GCConductorE
1624:__ZN3JSC4Heap14runReloopPhaseENS_11GCConductorE
1625:__ZN3JSC4Heap11runEndPhaseENS_11GCConductorE
1626:__ZN3JSC4Heap18addToRememberedSetEPKNS_6JSCellE
1627:__ZN3JSC4Heap10endMarkingEv
1628:__ZN3JSC4Heap31pruneStaleEntriesFromWeakGCMapsEv
1629:__ZN3JSC23GCIncomingRefCountedSetINS_11ArrayBufferEE10removeDeadEPNS_6JSCellE
1630:__ZN3JSC20GCIncomingRefCountedINS_11ArrayBufferEE24filterIncomingReferencesIFbPNS_6JSCellEEEEbRT_
1631:__ZN3JSC4Heap22updateAllocationLimitsEv
1632:__ZN3JSC4Heap19didFinishCollectionEv
1633:__ZN3JSC11MarkedSpace15forEachLiveCellINS_22GatherHeapSnapshotDataEEEvRKT_
1634:__ZN3JSC4Heap27removeDeadHeapSnapshotNodesERNS_12HeapProfilerE
1635:__ZN3JSC11MarkedSpace15forEachDeadCellINS_27RemoveDeadHeapSnapshotNodesEEEvRNS_18HeapIterationScopeERKT_
1636:__ZN3WTF20DeferrableRefCountedIN3JSC11ArrayBufferEE13setIsDeferredEb
1637:__ZN3JSC4Heap27assertSharedMarkStacksEmptyEv
1638:__ZN3WTF7HashMapIPKcmNS_7PtrHashIS2_EENS_10HashTraitsIS2_EENS5_ImEEE3addImEENS_18HashTableAddResultINS_17HashTableIteratorIS2_NS_12KeyValuePairIS2_mEENS_24KeyValuePairKeyExtractorISD_EES4_NS8_18KeyValuePairTraitsES6_EEEEOS2_OT_
1639:__ZNSt3__26__sortIRZN3JSC4Heap16runFixpointPhaseENS1_11GCConductorEE4__12PPKcEEvT0_S9_T_
1640:__ZNSt3__27__sort4IRZN3JSC4Heap16runFixpointPhaseENS1_11GCConductorEE4__12PPKcEEjT0_S9_S9_S9_T_
1641:__ZNSt3__27__sort5IRZN3JSC4Heap16runFixpointPhaseENS1_11GCConductorEE4__12PPKcEEjT0_S9_S9_S9_S9_T_
1642:__ZNSt3__227__insertion_sort_incompleteIRZN3JSC4Heap16runFixpointPhaseENS1_11GCConductorEE4__12PPKcEEbT0_S9_T_
1643:__ZN3WTF9HashTableIPKcNS_12KeyValuePairIS2_mEENS_24KeyValuePairKeyExtractorIS4_EENS_7PtrHashIS2_EENS_7HashMapIS2_mS8_NS_10HashTraitsIS2_EENSA_ImEEE18KeyValuePairTraitsESB_E6rehashEjPS4_
1644:__ZN3WTF7dataLogIJA41_cN3JSC15CollectionScopeEA2_cEEEvDpRKT_
1645:__ZN3JSC4Heap19willStartCollectionESt8optionalINS_15CollectionScopeEE
1646:__ZN3WTF7dataLogIJA38_cbA2_cEEEvDpRKT_
1647:__ZN3WTF7dataLogIJA36_cbA2_cEEEvDpRKT_
1648:__ZN3WTF17SharedTaskFunctorIFvvEZN3JSC4Heap13runBeginPhaseENS2_11GCConductorEE4__10E3runEv
1649:__ZN3JSC4Heap18resumeThePeripheryEv
1650:__ZN3JSC4Heap16resumeTheMutatorEv
1651:__ZN3JSC4Heap18handleNeedFinalizeEj
1652:__ZN3WTF22ScopedLambdaRefFunctorIFbvEZNS_10ParkingLot14compareAndParkIjjEENS2_10ParkResultEPKNS_6AtomicIT_EET0_EUlvE_E12implFunctionEPv
1653:__ZN3JSC4Heap14stopTheMutatorEv
1654:__ZN3JSC4Heap16stopThePeripheryENS_11GCConductorE
1655:__ZN3WTF7dataLogIJA31_cEEEvDpRKT_
1656:__ZN3JSC4Heap8finalizeEv
1657:__ZN3JSC4Heap24clearUnmarkedExecutablesEv
1658:__ZN3JSC4Heap18sweepSynchronouslyEv
1659:__ZN3WTF7dataLogIJA20_cbA13_cbA2_cEEEvDpRKT_
1660:__ZN3WTF7dataLogIJA30_cEEEvDpRKT_
1661:__ZN3WTF7dataLogIJA62_cEEEvDpRKT_
1662:__ZN3WTF6VectorIPN3JSC11SlotVisitorELm8ENS_15CrashOnOverflowELm16EE6appendEOS3_
1663:__ZN3WTF15SegmentedVectorIN3JSC11CellProfileELm64EE17deleteAllSegmentsEv
1664:__ZN3JSC4HeapD2Ev
1665:__ZN3JSC4Heap20lastChanceToFinalizeEv
1666:__ZN3WTF22ScopedLambdaRefFunctorIFlNS_10ParkingLot12UnparkResultEEZNS_13ConditionBase9notifyOneEvEUlS2_E_E12implFunctionEPvS2_
1667:__ZN3JSC4Heap22collectInMutatorThreadEv
1668:__ZN3JSC4Heap23finishRelinquishingConnEv
1669:__ZN3JSC4Heap32sweepNextLogicallyEmptyWeakBlockEv
1670:__ZN3WTF19ScopedLambdaFunctorIFvRN3JSC18CurrentThreadStateEEZNS1_4Heap22collectInMutatorThreadEvE3__0E12implFunctionEPvS3_
1671:__ZN3JSC4Heap34reportExtraMemoryAllocatedSlowCaseEm
1672:__ZN3JSC4Heap25collectIfNecessaryOrDeferEPNS_17GCDeferralContextE
1673:__ZN3JSC4Heap19stopIfNecessarySlowEv
1674:__ZN3JSC4Heap12collectAsyncESt8optionalINS_15CollectionScopeEE
1675:__ZN3JSC4Heap17requestCollectionESt8optionalINS_15CollectionScopeEE
1676:__ZN3WTF5DequeISt8optionalIN3JSC15CollectionScopeEELm0EE14expandCapacityEv
1677:__ZN3JSC4Heap11didAllocateEm
1678:__ZN3JSC4Heap35deprecatedReportExtraMemorySlowCaseEm
1679:__ZN3JSC4Heap26reportAbandonedObjectGraphEv
1680:__ZN3JSC4Heap8capacityEv
1681:__ZN3JSC4Heap12addReferenceEPNS_6JSCellEPNS_11ArrayBufferE
1682:__ZN3JSC23GCIncomingRefCountedSetINS_11ArrayBufferEE12addReferenceEPNS_6JSCellEPS1_
1683:__ZN3JSC20GCIncomingRefCountedINS_11ArrayBufferEE20addIncomingReferenceEPNS_6JSCellE
1684:__ZN3JSC4Heap18willStartIteratingEv
1685:__ZN3JSC4Heap18didFinishIteratingEv
1686:__ZN3JSC4Heap19completeAllJITPlansEv
1687:__ZN3JSC4Heap4sizeEv
1688:__ZN3JSC4Heap19deleteAllCodeBlocksENS_19DeleteAllCodeEffortE
1689:__ZN3JSC4Heap17preventCollectionEv
1690:__ZN3JSC4Heap27deleteAllUnlinkedCodeBlocksENS_19DeleteAllCodeEffortE
1691:__ZN3JSC4Heap17collectAllGarbageEv
1692:__ZN3JSC4Heap17waitForCollectionEy
1693:__ZN3JSC4Heap11collectSyncESt8optionalINS_15CollectionScopeEE
1694:__ZN3JSC4Heap17acquireAccessSlowEv
1695:__ZN3JSC4Heap17releaseAccessSlowEv
1696:__ZN3WTF7dataLogIJA75_cEEEvDpRKT_
1697:__ZN3WTF7dataLogIJA65_cEEEvDpRKT_
1698:__ZN3JSC4Heap19isCurrentThreadBusyEv
1699:__ZN3JSC4Heap12addFinalizerEPNS_6JSCellEPFvS2_E
1700:__ZN3JSC4Heap13addExecutableEPNS_14ExecutableBaseE
1701:__ZN3JSC4Heap26addLogicallyEmptyWeakBlockEPNS_9WeakBlockE
1702:__ZN3JSC4Heap20forEachCodeBlockImplERKN3WTF12ScopedLambdaIFbPNS_9CodeBlockEEEE
1703:__ZN3JSC12CodeBlockSet7iterateIN3WTF12ScopedLambdaIFbPNS_9CodeBlockEEEEEEvRKT_
1704:__ZN3JSC12CodeBlockSet7iterateIN3WTF12ScopedLambdaIFbPNS_9CodeBlockEEEEEEvRKNS2_14AbstractLockerERKT_
1705:__ZN3JSC4Heap20writeBarrierSlowPathEPKNS_6JSCellE
1706:__ZN3JSC4Heap24reportExtraMemoryVisitedEm
1707:__ZN3JSC4Heap39decrementDeferralDepthAndGCIfNeededSlowEv
1708:__ZN3JSC4Heap17registerWeakGCMapEPvNSt3__28functionIFvvEEE
1709:__ZN3WTF7HashMapIPvNSt3__28functionIFvvEEENS_7PtrHashIS1_EENS_10HashTraitsIS1_EENS8_IS5_EEE3addIS5_EENS_18HashTableAddResultINS_17HashTableIteratorIS1_NS_12KeyValuePairIS1_S5_EENS_24KeyValuePairKeyExtractorISG_EES7_NSB_18KeyValuePairTraitsES9_EEEERKS1_OT_
1710:__ZN3WTF9HashTableIPvNS_12KeyValuePairIS1_NSt3__28functionIFvvEEEEENS_24KeyValuePairKeyExtractorIS7_EENS_7PtrHashIS1_EENS_7HashMapIS1_S6_SB_NS_10HashTraitsIS1_EENSD_IS6_EEE18KeyValuePairTraitsESE_E6rehashEjPS7_
1711:__ZN3WTF9HashTableIPvNS_12KeyValuePairIS1_NSt3__28functionIFvvEEEEENS_24KeyValuePairKeyExtractorIS7_EENS_7PtrHashIS1_EENS_7HashMapIS1_S6_SB_NS_10HashTraitsIS1_EENSD_IS6_EEE18KeyValuePairTraitsESE_E8reinsertEOS7_
1712:__ZN3JSC4Heap19unregisterWeakGCMapEPv
1713:__ZN3WTF7HashMapIPvNSt3__28functionIFvvEEENS_7PtrHashIS1_EENS_10HashTraitsIS1_EENS8_IS5_EEE6removeERKS1_
1714:__ZN3JSC4Heap18addCoreConstraintsEv
1715:__ZN3WTF8FunctionIFdRN3JSC11SlotVisitorEEE15CallableWrapperIZNS1_4Heap18addCoreConstraintsEvE4__30E4callES3_
1716:__ZN3WTF8FunctionIFvRN3JSC11SlotVisitorERKNS1_15VisitingTimeoutEEE15CallableWrapperIZNS1_4Heap18addCoreConstraintsEvE4__29E4callES3_S6_
1717:__ZN3WTF8FunctionIFvRN3JSC11SlotVisitorERKNS1_15VisitingTimeoutEEE15CallableWrapperIZNS1_4Heap18addCoreConstraintsEvE4__28E4callES3_S6_
1718:__ZN3WTF8FunctionIFvRN3JSC11SlotVisitorERKNS1_15VisitingTimeoutEEE15CallableWrapperIZNS1_4Heap18addCoreConstraintsEvE4__27E4callES3_S6_
1719:__ZN3WTF8FunctionIFvRN3JSC11SlotVisitorERKNS1_15VisitingTimeoutEEE15CallableWrapperIZNS1_4Heap18addCoreConstraintsEvE4__26E4callES3_S6_
1720:__ZN3WTF8FunctionIFvRN3JSC11SlotVisitorERKNS1_15VisitingTimeoutEEE15CallableWrapperIZNS1_4Heap18addCoreConstraintsEvE4__24E4callES3_S6_
1721:__ZN3WTF8FunctionIFvRN3JSC11SlotVisitorERKNS1_15VisitingTimeoutEEE15CallableWrapperIZNS1_4Heap18addCoreConstraintsEvE4__23E4callES3_S6_
1722:__ZN3WTF8FunctionIFvRN3JSC11SlotVisitorERKNS1_15VisitingTimeoutEEE15CallableWrapperIZNS1_4Heap18addCoreConstraintsEvE4__22E4callES3_S6_
1723:__ZN3WTF8FunctionIFvRN3JSC11SlotVisitorERKNS1_15VisitingTimeoutEEE15CallableWrapperIZNS1_4Heap18addCoreConstraintsEvE4__21E4callES3_S6_
1724:__ZN3JSC4Heap21notifyIsSafeToCollectEv
1725:__ZNKSt3__210__function6__funcIZN3JSC4Heap21notifyIsSafeToCollectEvE4__31NS_9allocatorIS4_EEFvvEE7__cloneEv
1726:__ZNKSt3__210__function6__funcIZN3JSC4Heap21notifyIsSafeToCollectEvE4__31NS_9allocatorIS4_EEFvvEE7__cloneEPNS0_6__baseIS7_EE
1727:__ZNSt3__210__function6__funcIZN3JSC4Heap21notifyIsSafeToCollectEvE4__31NS_9allocatorIS4_EEFvvEEclEv
1728:__ZNKSt3__210__function6__funcIZN3JSC4Heap21notifyIsSafeToCollectEvE4__31NS_9allocatorIS4_EEFvvEE6targetERKSt9type_info
1729:__ZNKSt3__210__function6__funcIZN3JSC4Heap21notifyIsSafeToCollectEvE4__31NS_9allocatorIS4_EEFvvEE11target_typeEv
1730:__ZN3JSC4Heap15allowCollectionEv
1731:__ZN3JSC14heapHelperPoolEv
1732:__ZNSt3__217__call_once_proxyINS_5tupleIJOZN3JSC14heapHelperPoolEvE3__0EEEEEvPv
1733:__ZN3JSC12HeapProfilerD2Ev
1734:__ZN3JSC12HeapProfiler18mostRecentSnapshotEv
1735:__ZN3JSC12HeapProfiler14clearSnapshotsEv
1736:__ZN3JSC12HeapProfiler24setActiveSnapshotBuilderEPNS_19HeapSnapshotBuilderE
1737:__ZN3JSC12HeapSnapshotC2EPS0_
1738:__ZN3JSC12HeapSnapshot10appendNodeERKNS_16HeapSnapshotNodeE
1739:__ZN3JSC12HeapSnapshot9sweepCellEPNS_6JSCellE
1740:__ZN3JSC12HeapSnapshot11shrinkToFitEv
1741:__ZN3JSC12HeapSnapshot8finalizeEv
1742:__ZNSt3__26__sortIRZN3JSC12HeapSnapshot8finalizeEvE3__1PNS1_16HeapSnapshotNodeEEEvT0_S7_T_
1743:__ZNSt3__27__sort4IRZN3JSC12HeapSnapshot8finalizeEvE3__1PNS1_16HeapSnapshotNodeEEEjT0_S7_S7_S7_T_
1744:__ZNSt3__227__insertion_sort_incompleteIRZN3JSC12HeapSnapshot8finalizeEvE3__1PNS1_16HeapSnapshotNodeEEEbT0_S7_T_
1745:__ZN3JSC12HeapSnapshot11nodeForCellEPNS_6JSCellE
1746:__ZN3JSC12HeapSnapshot23nodeForObjectIdentifierEj
1747:__ZN3JSC19HeapSnapshotBuilderC2ERNS_12HeapProfilerE
1748:__ZN3JSC19HeapSnapshotBuilderD2Ev
1749:__ZN3JSC19HeapSnapshotBuilder13buildSnapshotEv
1750:__ZN3JSC19HeapSnapshotBuilder10appendNodeEPNS_6JSCellE
1751:__ZN3JSC19HeapSnapshotBuilder10appendEdgeEPNS_6JSCellES2_
1752:__ZN3WTF6VectorIN3JSC16HeapSnapshotEdgeELm0ENS_15CrashOnOverflowELm16EE6appendEOS2_
1753:__ZN3JSC19HeapSnapshotBuilder22appendPropertyNameEdgeEPNS_6JSCellES2_PN3WTF17UniquedStringImplE
1754:__ZN3JSC19HeapSnapshotBuilder22appendVariableNameEdgeEPNS_6JSCellES2_PN3WTF17UniquedStringImplE
1755:__ZN3JSC19HeapSnapshotBuilder15appendIndexEdgeEPNS_6JSCellES2_j
1756:__ZN3JSC19HeapSnapshotBuilder4jsonEv
1757:__ZN3JSC19HeapSnapshotBuilder4jsonENSt3__28functionIFbRKNS_16HeapSnapshotNodeEEEE
1758:__ZN3WTF7HashMapIPKcjNS_7PtrHashIS2_EENS_10HashTraitsIS2_EENS5_IjEEE9inlineSetIS2_iEENS_18HashTableAddResultINS_17HashTableIteratorIS2_NS_12KeyValuePairIS2_jEENS_24KeyValuePairKeyExtractorISD_EES4_NS8_18KeyValuePairTraitsES6_EEEEOT_OT0_
1759:__ZN3WTF7HashMapIPKcjNS_7PtrHashIS2_EENS_10HashTraitsIS2_EENS5_IjEEE3addIRjEENS_18HashTableAddResultINS_17HashTableIteratorIS2_NS_12KeyValuePairIS2_jEENS_24KeyValuePairKeyExtractorISE_EES4_NS8_18KeyValuePairTraitsES6_EEEERKS2_OT_
1760:__ZNSt3__26__sortIRZN3JSC19HeapSnapshotBuilder4jsonENS_8functionIFbRKNS1_16HeapSnapshotNodeEEEEE3__4PNS1_16HeapSnapshotEdgeEEEvT0_SD_T_
1761:__ZNSt3__27__sort5IRZN3JSC19HeapSnapshotBuilder4jsonENS_8functionIFbRKNS1_16HeapSnapshotNodeEEEEE3__4PNS1_16HeapSnapshotEdgeEEEjT0_SD_SD_SD_SD_T_
1762:__ZNSt3__227__insertion_sort_incompleteIRZN3JSC19HeapSnapshotBuilder4jsonENS_8functionIFbRKNS1_16HeapSnapshotNodeEEEEE3__4PNS1_16HeapSnapshotEdgeEEEbT0_SD_T_
1763:__ZNKSt3__210__function6__funcIZN3JSC19HeapSnapshotBuilder4jsonEvE3__0NS_9allocatorIS4_EEFbRKNS2_16HeapSnapshotNodeEEE7__cloneEv
1764:__ZNKSt3__210__function6__funcIZN3JSC19HeapSnapshotBuilder4jsonEvE3__0NS_9allocatorIS4_EEFbRKNS2_16HeapSnapshotNodeEEE7__cloneEPNS0_6__baseISA_EE
1765:__ZNKSt3__210__function6__funcIZN3JSC19HeapSnapshotBuilder4jsonEvE3__0NS_9allocatorIS4_EEFbRKNS2_16HeapSnapshotNodeEEE6targetERKSt9type_info
1766:__ZNKSt3__210__function6__funcIZN3JSC19HeapSnapshotBuilder4jsonEvE3__0NS_9allocatorIS4_EEFbRKNS2_16HeapSnapshotNodeEEE11target_typeEv
1767:__ZN3JSC18IncrementalSweeper6doWorkEv
1768:__ZN3JSC18IncrementalSweeper14sweepNextBlockEv
1769:__ZN3JSC18IncrementalSweeper13startSweepingEv
1770:__ZN3JSC18IncrementalSweeper12stopSweepingEv
1771:__ZN3JSC15LargeAllocation9tryCreateERNS_4HeapEmPNS_8SubspaceE
1772:__ZN3JSC15LargeAllocation20lastChanceToFinalizeEv
1773:__ZN3JSC15LargeAllocation5sweepEv
1774:__ZN3JSC15LargeAllocation7isEmptyEv
1775:__ZN3JSC15LargeAllocation7destroyEv
1776:__ZN3JSC14MachineThreadsC2Ev
1777:__ZN3JSC14MachineThreads12removeThreadEPv
1778:__ZNSt3__217__call_once_proxyINS_5tupleIJOZN3JSCL27activeMachineThreadsManagerEvE3__0EEEEEvPv
1779:__ZN3JSC27ActiveMachineThreadsManager3addEPNS_14MachineThreadsE
1780:__ZN3JSC14MachineThreads19removeThreadIfFoundEj
1781:__ZN3JSC14MachineThreadsD2Ev
1782:__ZN3JSC27ActiveMachineThreadsManager6removeEPNS_14MachineThreadsE
1783:__ZN3WTF7HashSetIPN3JSC14MachineThreadsENS_7PtrHashIS3_EENS_10HashTraitsIS3_EEE4takeERKS3_
1784:__ZN3JSC14MachineThreads16addCurrentThreadEv
1785:__ZN3JSC14MachineThreads13MachineThreadC2Ev
1786:__ZN3JSC14MachineThreads23tryCopyOtherThreadStackEPNS0_13MachineThreadEPvmPm
1787:__ZN3JSC14MachineThreads24tryCopyOtherThreadStacksERKN3WTF14AbstractLockerEPvmPm
1788:__ZN3JSC14MachineThreads23gatherConservativeRootsERNS_17ConservativeRootsERNS_17JITStubRoutineSetERNS_12CodeBlockSetEPNS_18CurrentThreadStateE
1789:__ZN3JSC26callWithCurrentThreadStateERKN3WTF12ScopedLambdaIFvRNS_18CurrentThreadStateEEEE
1790:__ZN3JSC14MarkStackArrayC2Ev
1791:__ZN3JSC14MarkStackArray10transferToERS0_
1792:__ZN3JSC14MarkStackArray10transferToERS0_m
1793:__ZN3JSC14MarkStackArray17donateSomeCellsToERS0_
1794:__ZN3JSC14MarkStackArray18stealSomeCellsFromERS0_m
1795:__ZN3JSC15MarkedAllocatorC2EPNS_4HeapEPNS_8SubspaceEm
1796:__ZN3JSC15MarkedAllocator10isPagedOutEd
1797:__ZN3JSC15MarkedAllocator21findEmptyBlockToStealEv
1798:__ZN3JSC15MarkedAllocator28tryAllocateWithoutCollectingEv
1799:__ZN3JSC15MarkedAllocator13tryAllocateInEPNS_11MarkedBlock6HandleE
1800:__ZN3JSC15MarkedAllocator8addBlockEPNS_11MarkedBlock6HandleE
1801:__ZN3JSC15MarkedAllocator16allocateSlowCaseEPNS_17GCDeferralContextE
1802:__ZN3JSC15MarkedAllocator20allocateSlowCaseImplEPNS_17GCDeferralContextEb
1803:__ZN3JSC15MarkedAllocator19tryAllocateSlowCaseEPNS_17GCDeferralContextE
1804:__ZN3JSC15MarkedAllocator11removeBlockEPNS_11MarkedBlock6HandleE
1805:__ZN3JSC15MarkedAllocator14stopAllocatingEv
1806:__ZN3JSC15MarkedAllocator20prepareForAllocationEv
1807:__ZN3JSC15MarkedAllocator20lastChanceToFinalizeEv
1808:__ZN3JSC15MarkedAllocator16resumeAllocatingEv
1809:__ZN3JSC15MarkedAllocator29beginMarkingForFullCollectionEv
1810:__ZN3JSC15MarkedAllocator10endMarkingEv
1811:__ZN3JSC15MarkedAllocator32snapshotUnsweptForEdenCollectionEv
1812:__ZN3JSC15MarkedAllocator32snapshotUnsweptForFullCollectionEv
1813:__ZN3JSC15MarkedAllocator16findBlockToSweepEv
1814:__ZN3JSC15MarkedAllocator5sweepEv
1815:__ZN3JSC15MarkedAllocator6shrinkEv
1816:__ZN3JSC11MarkedBlock9tryCreateERNS_4HeapE
1817:__ZN3JSC11MarkedBlock6HandleD2Ev
1818:__ZN3JSC11MarkedBlock6Handle15setIsFreeListedEv
1819:__ZN3JSC11MarkedBlock6Handle14stopAllocatingERKNS_8FreeListE
1820:__ZN3JSC11MarkedBlock6Handle20lastChanceToFinalizeEv
1821:__ZN3JSC11MarkedBlock6Handle5sweepENS1_9SweepModeE
1822:__ZNK3WTF6BitmapILm1024EjE7isEmptyEv
1823:__ZZN3JSC11MarkedBlock6Handle16specializedSweepILb1ELNS1_9EmptyModeE0ELNS1_9SweepModeE1ELNS1_20SweepDestructionModeE0ELNS1_12ScribbleModeE0ELNS1_18NewlyAllocatedModeE1ELNS1_9MarksModeE1EZZNS1_5sweepES4_ENK3__4clEvEUlRNS_2VMEPNS_6JSCellEE_EENS_8FreeListES3_S4_S5_S6_S7_S8_RKT6_ENKUlRN3WTF11PrintStreamEE_clESL_
1824:__ZN3WTF11PrintStream5printIJA7_cNS_10RawPointerEA20_cEEEvDpRKT_
1825:__ZN3WTF11PrintStream5printIJA21_cbA2_cEEEvDpRKT_
1826:__ZN3WTF11PrintStream5printIJA27_cjA2_cEEEvDpRKT_
1827:__ZN3WTF11PrintStream5printIJA26_cjA2_cEEEvDpRKT_
1828:__ZN3JSC11MarkedBlock6Handle16resumeAllocatingEv
1829:__ZN3JSC11MarkedBlock15aboutToMarkSlowEj
1830:__ZN3WTF6BitmapILm1024EjE13mergeAndClearERS1_
1831:__ZN3WTF6BitmapILm1024EjE11setAndClearERS1_
1832:__ZN3JSC11MarkedBlock6Handle14resetAllocatedEv
1833:__ZN3JSC11MarkedBlock10resetMarksEv
1834:__ZN3JSC11MarkedBlock13areMarksStaleEv
1835:__ZN3JSC11MarkedBlock8isMarkedEPKv
1836:__ZN3JSC11MarkedBlock6Handle18didConsumeFreeListEv
1837:__ZN3JSC11MarkedBlock9markCountEv
1838:__ZN3JSC11MarkedBlock6Handle7isEmptyEv
1839:__ZN3JSC11MarkedBlock14noteMarkedSlowEv
1840:__ZN3JSC11MarkedBlock6Handle17didAddToAllocatorEPNS_15MarkedAllocatorEm
1841:__ZN3JSC11MarkedBlock6Handle22didRemoveFromAllocatorEv
1842:__ZN3JSC11MarkedBlock6Handle6isLiveEPKNS_8HeapCellE
1843:__ZN3JSC11MarkedBlock6Handle9dumpStateERN3WTF11PrintStreamE
1844:__ZN3WTF11PrintStream9printImplINS_12CommaPrinterEJPKcA2_cS4_EEEvRKT_DpRKT0_
1845:__ZNSt3__217__call_once_proxyINS_5tupleIJOZN3JSC11MarkedSpace30initializeSizeClassForStepSizeEvE3__0EEEEEvPv
1846:__ZNSt3__217__call_once_proxyINS_5tupleIJOZN3JSC12_GLOBAL__N_111sizeClassesEvE4__21EEEEEvPv
1847:__ZZZN3JSC12_GLOBAL__N_111sizeClassesEvENK4__21clEvENKUlmE_clEm
1848:__ZN3JSC11MarkedSpaceC2EPNS_4HeapE
1849:__ZN3JSC15MarkedAllocatorD2Ev
1850:__ZN3JSC11MarkedSpaceD2Ev
1851:__ZN3JSC11MarkedSpace9freeBlockEPNS_11MarkedBlock6HandleE
1852:__ZN3JSC14MarkedBlockSetD2Ev
1853:__ZN3WTF7HashSetIPN3JSC11MarkedBlockENS_15MarkedBlockHashENS_10HashTraitsIS3_EEE6removeERKS3_
1854:__ZN3WTF9HashTableIPN3JSC11MarkedBlockES3_NS_17IdentityExtractorENS_15MarkedBlockHashENS_10HashTraitsIS3_EES7_E6rehashEjPS3_
1855:__ZN3JSC11MarkedSpace20lastChanceToFinalizeEv
1856:__ZN3JSC11MarkedSpace5sweepEv
1857:__ZN3JSC11MarkedSpace21sweepLargeAllocationsEv
1858:__ZN3JSC11MarkedSpace20prepareForAllocationEv
1859:__ZN3JSC11MarkedSpace13visitWeakSetsERNS_11SlotVisitorE
1860:__ZN3JSC11MarkedSpace12reapWeakSetsEv
1861:__ZN3JSC11MarkedSpace14stopAllocatingEv
1862:__ZN3JSC11MarkedSpace26prepareForConservativeScanEv
1863:__ZNSt3__26__sortIRZN3JSC11MarkedSpace26prepareForConservativeScanEvE3__8PPNS1_15LargeAllocationEEEvT0_S8_T_
1864:__ZNSt3__27__sort5IRZN3JSC11MarkedSpace26prepareForConservativeScanEvE3__8PPNS1_15LargeAllocationEEEjT0_S8_S8_S8_S8_T_
1865:__ZNSt3__227__insertion_sort_incompleteIRZN3JSC11MarkedSpace26prepareForConservativeScanEvE3__8PPNS1_15LargeAllocationEEEbT0_S8_T_
1866:__ZN3JSC11MarkedSpace17prepareForMarkingEv
1867:__ZN3JSC11MarkedSpace16resumeAllocatingEv
1868:__ZN3JSC11MarkedSpace10isPagedOutEd
1869:__ZN3JSC11MarkedSpace6shrinkEv
1870:__ZN3JSC11MarkedSpace12beginMarkingEv
1871:__ZN3JSC11MarkedSpace10endMarkingEv
1872:__ZN3JSC11MarkedSpace18willStartIteratingEv
1873:__ZN3JSC11MarkedSpace18didFinishIteratingEv
1874:__ZN3JSC11MarkedSpace4sizeEv
1875:__ZN3JSC11MarkedSpace8capacityEv
1876:__ZN3JSC11MarkedSpace16addActiveWeakSetEPNS_7WeakSetE
1877:__ZN3JSC11MarkedSpace11didAddBlockEPNS_11MarkedBlock6HandleE
1878:__ZN3WTF9HashTableIPN3JSC11MarkedBlockES3_NS_17IdentityExtractorENS_15MarkedBlockHashENS_10HashTraitsIS3_EES7_E3addERKS3_
1879:__ZN3JSC11MarkedSpace18didAllocateInBlockEPNS_11MarkedBlock6HandleE
1880:__ZN3JSC11MarkedSpace21findEmptyBlockToStealEv
1881:__ZN3JSC11MarkedSpace15snapshotUnsweptEv
1882:__ZN3JSC11MarkedSpace18addMarkedAllocatorERKN3WTF14AbstractLockerEPNS_8SubspaceEm
1883:__ZN3JSC17MarkingConstraintC2EN3WTF7CStringES2_NS1_8FunctionIFvRNS_11SlotVisitorERKNS_15VisitingTimeoutEEEENS_20ConstraintVolatilityE
1884:__ZN3JSC17MarkingConstraintC2EN3WTF7CStringES2_NS1_8FunctionIFvRNS_11SlotVisitorERKNS_15VisitingTimeoutEEEENS3_IFdS5_EEENS_20ConstraintVolatilityE
1885:__ZN3JSC17MarkingConstraintD2Ev
1886:__ZN3JSC17MarkingConstraint7executeERNS_11SlotVisitorERbN3WTF13MonotonicTimeE
1887:__ZN3JSC20MarkingConstraintSetC2Ev
1888:__ZN3JSC20MarkingConstraintSetD2Ev
1889:__ZN3JSC20MarkingConstraintSet15didStartMarkingEv
1890:__ZN3JSC20MarkingConstraintSet3addEN3WTF7CStringES2_NS1_8FunctionIFvRNS_11SlotVisitorERKNS_15VisitingTimeoutEEEENS_20ConstraintVolatilityE
1891:__ZN3JSC20MarkingConstraintSet3addEN3WTF7CStringES2_NS1_8FunctionIFvRNS_11SlotVisitorERKNS_15VisitingTimeoutEEEENS3_IFdS5_EEENS_20ConstraintVolatilityE
1892:__ZN3JSC20MarkingConstraintSet18executeConvergenceERNS_11SlotVisitorEN3WTF13MonotonicTimeE
1893:__ZN3JSC20MarkingConstraintSet22executeConvergenceImplERNS_11SlotVisitorEN3WTF13MonotonicTimeE
1894:__ZN3JSC20MarkingConstraintSet16ExecutionContext5drainERN3WTF9BitVectorE
1895:__ZNSt3__26__sortIRZN3JSC20MarkingConstraintSet22executeConvergenceImplERNS1_11SlotVisitorEN3WTF13MonotonicTimeEE3__0PPNS1_17MarkingConstraintEEEvT0_SC_T_
1896:__ZNSt3__27__sort3IRZN3JSC20MarkingConstraintSet22executeConvergenceImplERNS1_11SlotVisitorEN3WTF13MonotonicTimeEE3__0PPNS1_17MarkingConstraintEEEjT0_SC_SC_T_
1897:__ZNSt3__27__sort4IRZN3JSC20MarkingConstraintSet22executeConvergenceImplERNS1_11SlotVisitorEN3WTF13MonotonicTimeEE3__0PPNS1_17MarkingConstraintEEEjT0_SC_SC_SC_T_
1898:__ZNSt3__27__sort5IRZN3JSC20MarkingConstraintSet22executeConvergenceImplERNS1_11SlotVisitorEN3WTF13MonotonicTimeEE3__0PPNS1_17MarkingConstraintEEEjT0_SC_SC_SC_SC_T_
1899:__ZNSt3__227__insertion_sort_incompleteIRZN3JSC20MarkingConstraintSet22executeConvergenceImplERNS1_11SlotVisitorEN3WTF13MonotonicTimeEE3__0PPNS1_17MarkingConstraintEEEbT0_SC_T_
1900:__ZNK3WTF9BitVector5beginEv
1901:__ZN3JSC16MutatorSchedulerC2Ev
1902:__ZN3JSC16MutatorScheduler10shouldStopEv
1903:__ZN3JSC16MutatorScheduler12shouldResumeEv
1904:__ZN3JSC11SlotVisitorC2ERNS_4HeapEN3WTF7CStringE
1905:__ZN3JSC11SlotVisitorD2Ev
1906:__ZN3JSC11SlotVisitor15clearMarkStacksEv
1907:__ZN3JSC11SlotVisitor15didStartMarkingEv
1908:__ZN3JSC11SlotVisitor5resetEv
1909:__ZN3JSC11SlotVisitor6appendERNS_17ConservativeRootsE
1910:__ZN3JSC11SlotVisitor23appendJSCellOrAuxiliaryEPNS_8HeapCellE
1911:__ZZZN3JSC11SlotVisitor23appendJSCellOrAuxiliaryEPNS_8HeapCellEENK3__1clEPNS_6JSCellEENKUlPKcE_clES7_
1912:__ZN3JSC11SlotVisitor17appendToMarkStackEPNS_6JSCellE
1913:__ZN3WTF11PrintStream10atomicallyIZZZN3JSC11SlotVisitor23appendJSCellOrAuxiliaryEPNS2_8HeapCellEENK3__1clEPNS2_6JSCellEENKUlPKcE_clESA_EUlRS0_E_EEvRKT_
1914:__ZZZZN3JSC11SlotVisitor23appendJSCellOrAuxiliaryEPNS_8HeapCellEENK3__1clEPNS_6JSCellEENKUlPKcE_clES7_ENKUlRN3WTF11PrintStreamEE_clESB_
1915:__ZN3WTF11PrintStream10atomicallyIZNS0_5printIJA10_cSt8optionalIN3JSC15CollectionScopeEEA2_cEEEvDpRKT_EUlRS0_E_EEvRKT_
1916:__ZN3JSC11SlotVisitor10appendSlowEPNS_6JSCellEj
1917:__ZN3JSC11SlotVisitor16appendHiddenSlowEPNS_6JSCellEj
1918:__ZN3JSC11SlotVisitor13markAuxiliaryEPKv
1919:__ZN3JSC11SlotVisitor17visitAsConstraintEPKNS_6JSCellE
1920:__ZN3JSC11SlotVisitor19donateKnownParallelERNS_14MarkStackArrayES2_
1921:__ZN3JSC11SlotVisitor22updateMutatorIsStoppedERKN3WTF14AbstractLockerE
1922:__ZN3JSC11SlotVisitor22updateMutatorIsStoppedEv
1923:__ZN3JSC11SlotVisitor25optimizeForStoppedMutatorEv
1924:__ZN3JSC11SlotVisitor5drainEN3WTF13MonotonicTimeE
1925:__ZN3WTF7dataLogIJA55_cEEEvDpRKT_
1926:__ZZN3JSC11SlotVisitor5drainEN3WTF13MonotonicTimeEENK3__3clERNS_14MarkStackArrayE
1927:__ZN3JSC11SlotVisitor16mergeOpaqueRootsEv
1928:__ZN3JSC11SlotVisitor16mergeIfNecessaryEv
1929:__ZN3JSC11SlotVisitor26performIncrementOfDrainingEm
1930:__ZZN3JSC11SlotVisitor26performIncrementOfDrainingEmENK3__7clERNS_14MarkStackArrayE
1931:__ZN3JSC11SlotVisitor9donateAllEv
1932:__ZN3JSC11SlotVisitor19didReachTerminationEv
1933:__ZN3JSC11SlotVisitor15drainFromSharedENS0_15SharedDrainModeEN3WTF13MonotonicTimeE
1934:__ZN3JSC11SlotVisitor15drainInParallelEN3WTF13MonotonicTimeE
1935:__ZN3WTF7dataLogIJA56_cEEEvDpRKT_
1936:__ZN3JSC11SlotVisitor24drainInParallelPassivelyEN3WTF13MonotonicTimeE
1937:__ZN3JSC11SlotVisitor13addOpaqueRootEPv
1938:__ZNK3JSC11SlotVisitor18containsOpaqueRootEPv
1939:__ZN3JSC11SlotVisitor25addWeakReferenceHarvesterEPNS_22WeakReferenceHarvesterE
1940:__ZN3JSC11SlotVisitor25addUnconditionalFinalizerEPNS_22UnconditionalFinalizerE
1941:__ZN3JSC11SlotVisitor7didRaceERKNS_12VisitRaceKeyE
1942:__ZN3WTF9toCStringIJA16_cN3JSC12VisitRaceKeyEA2_cEEENS_7CStringEDpRKT_
1943:__ZNK3JSC25SpaceTimeMutatorScheduler5stateEv
1944:__ZN3JSC25SpaceTimeMutatorScheduler15beginCollectionEv
1945:__ZN3JSC25SpaceTimeMutatorScheduler7didStopEv
1946:__ZN3JSC25SpaceTimeMutatorScheduler10willResumeEv
1947:__ZN3JSC25SpaceTimeMutatorScheduler21didExecuteConstraintsEv
1948:__ZN3JSC25SpaceTimeMutatorScheduler10timeToStopEv
1949:__ZN3JSC25SpaceTimeMutatorScheduler12timeToResumeEv
1950:__ZN3JSC25SpaceTimeMutatorScheduler3logEv
1951:__ZN3JSC25SpaceTimeMutatorScheduler13endCollectionEv
1952:__ZN3JSC25SpaceTimeMutatorSchedulerC2ERNS_4HeapE
1953:__ZNK3JSC35StochasticSpaceTimeMutatorScheduler5stateEv
1954:__ZN3JSC35StochasticSpaceTimeMutatorScheduler15beginCollectionEv
1955:__ZN3JSC35StochasticSpaceTimeMutatorScheduler7didStopEv
1956:__ZN3JSC35StochasticSpaceTimeMutatorScheduler10willResumeEv
1957:__ZN3JSC35StochasticSpaceTimeMutatorScheduler19didReachTerminationEv
1958:__ZN3JSC35StochasticSpaceTimeMutatorScheduler21didExecuteConstraintsEv
1959:__ZN3JSC35StochasticSpaceTimeMutatorScheduler27synchronousDrainingDidStallEv
1960:__ZN3JSC35StochasticSpaceTimeMutatorScheduler10timeToStopEv
1961:__ZN3JSC35StochasticSpaceTimeMutatorScheduler12timeToResumeEv
1962:__ZN3JSC35StochasticSpaceTimeMutatorScheduler3logEv
1963:__ZN3JSC35StochasticSpaceTimeMutatorScheduler13endCollectionEv
1964:__ZN3JSC35StochasticSpaceTimeMutatorSchedulerC2ERNS_4HeapE
1965:__ZN3JSC20StopIfNecessaryTimer6doWorkEv
1966:__ZN3JSC20StopIfNecessaryTimer12scheduleSoonEv
1967:__ZN3JSC8SubspaceD2Ev
1968:__ZN3JSC8SubspaceD0Ev
1969:__ZN3JSC8Subspace11finishSweepERNS_11MarkedBlock6HandleENS2_9SweepModeE
1970:__ZN3JSC8Subspace7destroyERNS_2VMEPNS_6JSCellE
1971:__ZN3JSC8SubspaceC2EN3WTF7CStringERNS_4HeapENS_19AllocatorAttributesE
1972:__ZN3JSC8Subspace8allocateEm
1973:__ZN3JSC8Subspace15tryAllocateSlowEPNS_17GCDeferralContextEm
1974:__ZN3JSC8Subspace16allocatorForSlowEm
1975:__ZN3WTF7dataLogIJA68_cEEEvDpRKT_
1976:__ZN3WTF7dataLogIJA28_cmA2_cEEEvDpRKT_
1977:__ZN3JSC8Subspace8allocateEPNS_17GCDeferralContextEm
1978:__ZN3JSC8Subspace11tryAllocateEm
1979:__ZN3JSC8Subspace11tryAllocateEPNS_17GCDeferralContextEm
1980:__ZNK3JSC39SynchronousStopTheWorldMutatorScheduler5stateEv
1981:__ZN3JSC39SynchronousStopTheWorldMutatorScheduler15beginCollectionEv
1982:__ZN3JSC39SynchronousStopTheWorldMutatorScheduler10timeToStopEv
1983:__ZN3JSC39SynchronousStopTheWorldMutatorScheduler12timeToResumeEv
1984:__ZN3JSC39SynchronousStopTheWorldMutatorScheduler13endCollectionEv
1985:__ZNK3JSC12VisitRaceKey4dumpERN3WTF11PrintStreamE
1986:__ZN3JSC17weakClearSlowCaseERPNS_8WeakImplE
1987:__ZN3JSC9WeakBlock6createERNS_4HeapENS_13CellContainerE
1988:__ZN3JSC9WeakBlock20lastChanceToFinalizeEv
1989:__ZN3JSC9WeakBlock5sweepEv
1990:__ZN3JSC9WeakBlock5visitERNS_11SlotVisitorE
1991:__ZN3JSC9WeakBlock16specializedVisitINS_15LargeAllocationEEEvRT_RNS_11SlotVisitorE
1992:__ZN3JSC9WeakBlock16specializedVisitINS_11MarkedBlockEEEvRT_RNS_11SlotVisitorE
1993:__ZN3JSC9WeakBlock4reapEv
1994:__ZN3JSC7WeakSetD2Ev
1995:__ZN3JSC7WeakSet5sweepEv
1996:__ZN3JSC7WeakSet6shrinkEv
1997:__ZN3JSC7WeakSet13findAllocatorEv
1998:__ZN9Inspector15AsyncStackTraceD2Ev
1999:__ZNK9Inspector15AsyncStackTrace20buildInspectorObjectEv
2000:__ZN9Inspector8Protocol7Console10StackTrace7BuilderILi0EE13setCallFramesEN3WTF6RefPtrINS0_5ArrayINS1_9CallFrameEEEEE
2001:__ZN9Inspector8Protocol7Console10StackTrace12setTruncatedEb
2002:__ZN9Inspector8Protocol7Console10StackTrace25setTopCallFrameIsBoundaryEb
2003:__ZN9Inspector8Protocol7Console10StackTrace19setParentStackTraceEN3WTF6RefPtrIS2_EE
2004:__ZN9Inspector14ConsoleMessageC2EN3JSC13MessageSourceENS1_11MessageTypeENS1_12MessageLevelERKN3WTF6StringEm
2005:__ZN9Inspector14ConsoleMessage20autogenerateMetadataEPN3JSC9ExecStateE
2006:__ZN9Inspector14ConsoleMessageC2EN3JSC13MessageSourceENS1_11MessageTypeENS1_12MessageLevelERKN3WTF6StringEONS5_3RefINS_15ScriptCallStackEEEm
2007:__ZN9Inspector14ConsoleMessageC2EN3JSC13MessageSourceENS1_11MessageTypeENS1_12MessageLevelERKN3WTF6StringEONS5_3RefINS_15ScriptArgumentsEEEPNS1_9ExecStateEm
2008:__ZN9Inspector14ConsoleMessageD2Ev
2009:__ZN9Inspector14ConsoleMessage13addToFrontendERNS_25ConsoleFrontendDispatcherERNS_21InjectedScriptManagerEb
2010:__ZN9Inspector8Protocol7Console14ConsoleMessage7BuilderILi0EE9setSourceENS2_6SourceE
2011:__ZN9Inspector8Protocol7Console14ConsoleMessage7BuilderILi1EE8setLevelENS2_5LevelE
2012:__ZN9Inspector8Protocol7Console14ConsoleMessage7BuilderILi3EE7setTextERKN3WTF6StringE
2013:__ZN9Inspector8Protocol7Console14ConsoleMessage7setTypeENS2_4TypeE
2014:__ZN9Inspector8Protocol7Console14ConsoleMessage7setLineEi
2015:__ZN9Inspector8Protocol7Console14ConsoleMessage9setColumnEi
2016:__ZN9Inspector8Protocol7Console14ConsoleMessage6setUrlERKN3WTF6StringE
2017:__ZN9Inspector8Protocol7Console14ConsoleMessage14setRepeatCountEi
2018:__ZN9Inspector8Protocol7Console14ConsoleMessage19setNetworkRequestIdERKN3WTF6StringE
2019:__ZN9Inspector8Protocol7Console14ConsoleMessage13setParametersEN3WTF6RefPtrINS0_5ArrayINS0_7Runtime12RemoteObjectEEEEE
2020:__ZN9Inspector8Protocol7Console14ConsoleMessage13setStackTraceEN3WTF6RefPtrINS0_5ArrayINS1_9CallFrameEEEEE
2021:__ZN9Inspector8Protocol5ArrayINS0_7Runtime12RemoteObjectEED0Ev
2022:__ZNK9Inspector14ConsoleMessage7isEqualEPS0_
2023:__ZN9Inspector22ContentSearchUtilities11lineEndingsERKN3WTF6StringE
2024:__ZN9Inspector22ContentSearchUtilities17createSearchRegexERKN3WTF6StringEbb
2025:__ZN9Inspector22ContentSearchUtilities19searchInTextByLinesERKN3WTF6StringES4_bb
2026:__ZN3WTF6VectorINSt3__24pairImNS_6StringEEELm0ENS_15CrashOnOverflowELm16EE14appendSlowCaseIS4_EEvOT_
2027:__ZN9Inspector8Protocol12GenericTypes11SearchMatch7BuilderILi0EE13setLineNumberEd
2028:__ZN9Inspector8Protocol12GenericTypes11SearchMatch7BuilderILi1EE14setLineContentERKN3WTF6StringE
2029:__ZNK3WTF12StringAppendINS0_IPKcNS_6StringEEES2_EcvS3_Ev
2030:__ZN3JSC4Yarr15BytecodePatternD2Ev
2031:__ZN3JSC4Yarr14CharacterClassD2Ev
2032:__ZN3WTF6VectorINSt3__210unique_ptrIN3JSC4Yarr18PatternAlternativeENS1_14default_deleteIS5_EEEELm0ENS_15CrashOnOverflowELm16EED2Ev
2033:__ZN3WTF25tryMakeStringFromAdaptersINS_17StringTypeAdapterINS_12StringAppendIPKcNS_6StringEEEEEJNS1_IS4_EEEEES5_T_DpT0_
2034:__ZN3WTF21makeStringAccumulatorItNS_17StringTypeAdapterINS_12StringAppendIPKcNS_6StringEEEEEJNS1_IS4_EEEEEvPT_T0_DpT1_
2035:__ZN9Inspector18IdentifiersFactory9requestIdEm
2036:__ZN9Inspector14InjectedScriptD2Ev
2037:__ZN9Inspector14InjectedScriptD0Ev
2038:__ZN9Inspector14InjectedScriptC2Ev
2039:__ZN9Inspector14InjectedScriptC2EN10Deprecated12ScriptObjectEPNS_20InspectorEnvironmentE
2040:__ZN9Inspector14InjectedScript8evaluateERN3WTF6StringERKS2_S5_bbbbPNS1_6RefPtrINS_8Protocol7Runtime12RemoteObjectEEEPNS7_9OptOutputIbEEPNSC_IiEE
2041:__ZN9Inspector14InjectedScript14callFunctionOnERN3WTF6StringERKS2_S5_S5_bbPNS1_6RefPtrINS_8Protocol7Runtime12RemoteObjectEEEPNS7_9OptOutputIbEE
2042:__ZN9Inspector14InjectedScript19evaluateOnCallFrameERN3WTF6StringEN3JSC7JSValueERKS2_S7_S7_bbbbPNS1_6RefPtrINS_8Protocol7Runtime12RemoteObjectEEEPNS9_9OptOutputIbEEPNSE_IiEE
2043:__ZN9Inspector14InjectedScript18getFunctionDetailsERN3WTF6StringERKS2_PNS1_6RefPtrINS_8Protocol8Debugger15FunctionDetailsEEE
2044:__ZN9Inspector14InjectedScript15functionDetailsERN3WTF6StringEN3JSC7JSValueEPNS1_6RefPtrINS_8Protocol8Debugger15FunctionDetailsEEE
2045:__ZN9Inspector14InjectedScript13getPropertiesERN3WTF6StringERKS2_bbPNS1_6RefPtrINS_8Protocol5ArrayINS7_7Runtime18PropertyDescriptorEEEEE
2046:__ZN9Inspector14InjectedScript24getDisplayablePropertiesERN3WTF6StringERKS2_bPNS1_6RefPtrINS_8Protocol5ArrayINS7_7Runtime18PropertyDescriptorEEEEE
2047:__ZN9Inspector14InjectedScript21getInternalPropertiesERN3WTF6StringERKS2_bPNS1_6RefPtrINS_8Protocol5ArrayINS7_7Runtime26InternalPropertyDescriptorEEEEE
2048:__ZN9Inspector14InjectedScript20getCollectionEntriesERN3WTF6StringERKS2_S5_iiPNS1_6RefPtrINS_8Protocol5ArrayINS7_7Runtime15CollectionEntryEEEEE
2049:__ZN9Inspector14InjectedScript10saveResultERN3WTF6StringERKS2_PNS_8Protocol9OptOutputIiEE
2050:__ZNK9Inspector14InjectedScript14wrapCallFramesEN3JSC7JSValueE
2051:__ZNK9Inspector14InjectedScript10wrapObjectEN3JSC7JSValueERKN3WTF6StringEb
2052:__ZNK9Inspector14InjectedScript9wrapTableEN3JSC7JSValueES2_
2053:__ZNK9Inspector14InjectedScript12previewValueEN3JSC7JSValueE
2054:__ZN9Inspector14InjectedScript17setExceptionValueEN3JSC7JSValueE
2055:__ZN9Inspector14InjectedScript19clearExceptionValueEv
2056:__ZN9Inspector14InjectedScript13releaseObjectERKN3WTF6StringE
2057:__ZN9Inspector14InjectedScript18releaseObjectGroupERKN3WTF6StringE
2058:__ZN9Inspector18InjectedScriptBaseD2Ev
2059:__ZN9Inspector18InjectedScriptBaseD0Ev
2060:__ZN9Inspector18InjectedScriptBaseC2ERKN3WTF6StringE
2061:__ZN9Inspector18InjectedScriptBaseC2ERKN3WTF6StringEN10Deprecated12ScriptObjectEPNS_20InspectorEnvironmentE
2062:__ZNK9Inspector18InjectedScriptBase31hasAccessToInspectedScriptStateEv
2063:__ZNK9Inspector18InjectedScriptBase20injectedScriptObjectEv
2064:__ZNK9Inspector18InjectedScriptBase27callFunctionWithEvalEnabledERN10Deprecated18ScriptFunctionCallERb
2065:__ZN9Inspector18InjectedScriptBase8makeCallERN10Deprecated18ScriptFunctionCallEPN3WTF6RefPtrINS_14InspectorValueEEE
2066:__ZN9Inspector18InjectedScriptBase12makeEvalCallERN3WTF6StringERN10Deprecated18ScriptFunctionCallEPNS1_6RefPtrINS_8Protocol7Runtime12RemoteObjectEEEPNS8_9OptOutputIbEEPNSD_IiEE
2067:__ZN9Inspector18InjectedScriptHostD2Ev
2068:__ZN9Inspector18InjectedScriptHostD0Ev
2069:__ZN9Inspector18InjectedScriptHost7subtypeEPN3JSC9ExecStateENS1_7JSValueE
2070:__ZN9Inspector18InjectedScriptHost19isHTMLAllCollectionERN3JSC2VMENS1_7JSValueE
2071:__ZN9Inspector18InjectedScriptHost7wrapperEPN3JSC9ExecStateEPNS1_14JSGlobalObjectE
2072:__ZN9Inspector21InjectedScriptManagerD2Ev
2073:__ZN9Inspector21InjectedScriptManagerD0Ev
2074:__ZN9Inspector21InjectedScriptManager10disconnectEv
2075:__ZN9Inspector21InjectedScriptManager22discardInjectedScriptsEv
2076:__ZN9Inspector21InjectedScriptManagerC2ERNS_20InspectorEnvironmentEON3WTF3RefINS_18InjectedScriptHostEEE
2077:__ZN9Inspector14InjectedScriptC2ERKS0_
2078:__ZN9Inspector21InjectedScriptManager17injectedScriptForEPN3JSC9ExecStateE
2079:__ZN9Inspector21InjectedScriptManager19injectedScriptIdForEPN3JSC9ExecStateE
2080:__ZN9Inspector21InjectedScriptManager20createInjectedScriptERKN3WTF6StringEPN3JSC9ExecStateEi
2081:__ZN3WTF7HashMapIiN9Inspector14InjectedScriptENS_7IntHashIjEENS_10HashTraitsIiEENS5_IS2_EEE9inlineSetIRKiRS2_EENS_18HashTableAddResultINS_17HashTableIteratorIiNS_12KeyValuePairIiS2_EENS_24KeyValuePairKeyExtractorISG_EES4_NS8_18KeyValuePairTraitsES6_EEEEOT_OT0_
2082:__ZN3WTF9HashTableIiNS_12KeyValuePairIiN9Inspector14InjectedScriptEEENS_24KeyValuePairKeyExtractorIS4_EENS_7IntHashIjEENS_7HashMapIiS3_S8_NS_10HashTraitsIiEENSA_IS3_EEE18KeyValuePairTraitsESB_E6rehashEjPS4_
2083:__ZN3JSC6StrongINS_7UnknownEEaSERKS2_
2084:__ZN3WTF9HashTableIiNS_12KeyValuePairIiN9Inspector14InjectedScriptEEENS_24KeyValuePairKeyExtractorIS4_EENS_7IntHashIjEENS_7HashMapIiS3_S8_NS_10HashTraitsIiEENSA_IS3_EEE18KeyValuePairTraitsESB_E8reinsertEOS4_
2085:__ZN9Inspector21InjectedScriptManager25injectedScriptForObjectIdERKN3WTF6StringE
2086:__ZNK3WTF7HashMapIiN9Inspector14InjectedScriptENS_7IntHashIjEENS_10HashTraitsIiEENS5_IS2_EEE3getERKi
2087:__ZN9Inspector21InjectedScriptManager18releaseObjectGroupERKN3WTF6StringE
2088:__ZN9Inspector21InjectedScriptManager19clearExceptionValueEv
2089:__ZN9Inspector13AgentRegistryD2Ev
2090:__ZN9Inspector13AgentRegistry6appendENSt3__210unique_ptrINS_18InspectorAgentBaseENS1_14default_deleteIS3_EEEE
2091:__ZN9Inspector13AgentRegistry27didCreateFrontendAndBackendEPNS_14FrontendRouterEPNS_17BackendDispatcherE
2092:__ZN9Inspector13AgentRegistry29willDestroyFrontendAndBackendENS_16DisconnectReasonE
2093:__ZN9Inspector13AgentRegistry13discardValuesEv
2094:__ZN9Inspector29SupplementalBackendDispatcherD2Ev
2095:__ZN9Inspector29SupplementalBackendDispatcherC2ERNS_17BackendDispatcherE
2096:__ZN9Inspector17BackendDispatcher19reportProtocolErrorESt8optionalIlENS0_15CommonErrorCodeERKN3WTF6StringE
2097:__ZN9Inspector17BackendDispatcher17sendPendingErrorsEv
2098:__ZN3WTF6VectorINSt3__25tupleIJN9Inspector17BackendDispatcher15CommonErrorCodeENS_6StringEEEELm0ENS_15CrashOnOverflowELm16EE6appendEOS7_
2099:__ZN3WTF6VectorINSt3__25tupleIJN9Inspector17BackendDispatcher15CommonErrorCodeENS_6StringEEEELm0ENS_15CrashOnOverflowELm16EE15reserveCapacityEm
2100:__ZN9Inspector17BackendDispatcher12sendResponseElON3WTF6RefPtrINS_15InspectorObjectEEE
2101:__ZN9Inspector17BackendDispatcher6createEON3WTF3RefINS_14FrontendRouterEEE
2102:__ZN9Inspector17BackendDispatcher27registerDispatcherForDomainERKN3WTF6StringEPNS_29SupplementalBackendDispatcherE
2103:__ZN3WTF7HashMapINS_6StringEPN9Inspector29SupplementalBackendDispatcherENS_10StringHashENS_10HashTraitsIS1_EENS6_IS4_EEE9inlineSetIRKS1_RS4_EENS_18HashTableAddResultINS_17HashTableIteratorIS1_NS_12KeyValuePairIS1_S4_EENS_24KeyValuePairKeyExtractorISH_EES5_NS9_18KeyValuePairTraitsES7_EEEEOT_OT0_
2104:__ZN3WTF9HashTableINS_6StringENS_12KeyValuePairIS1_PN9Inspector29SupplementalBackendDispatcherEEENS_24KeyValuePairKeyExtractorIS6_EENS_10StringHashENS_7HashMapIS1_S5_S9_NS_10HashTraitsIS1_EENSB_IS5_EEE18KeyValuePairTraitsESC_E6rehashEjPS6_
2105:__ZN9Inspector17BackendDispatcher8dispatchERKN3WTF6StringE
2106:__ZN9Inspector17BackendDispatcher19reportProtocolErrorENS0_15CommonErrorCodeERKN3WTF6StringE
2107:__ZN9Inspector17BackendDispatcher10getIntegerEPNS_15InspectorObjectERKN3WTF6StringEPb
2108:__ZN9InspectorL13castToIntegerERNS_14InspectorValueERi
2109:__ZN9Inspector17BackendDispatcher16getPropertyValueIiEET_PNS_15InspectorObjectERKN3WTF6StringEPbS2_NSt3__28functionIFbRNS_14InspectorValueERS2_EEEPKc
2110:__ZNKSt3__210__function6__funcIPFbRN9Inspector14InspectorValueERiENS_9allocatorIS7_EES6_E7__cloneEv
2111:__ZNKSt3__210__function6__funcIPFbRN9Inspector14InspectorValueERiENS_9allocatorIS7_EES6_E7__cloneEPNS0_6__baseIS6_EE
2112:__ZNSt3__210__function6__funcIPFbRN9Inspector14InspectorValueERiENS_9allocatorIS7_EES6_EclES4_S5_
2113:__ZNKSt3__210__function6__funcIPFbRN9Inspector14InspectorValueERiENS_9allocatorIS7_EES6_E6targetERKSt9type_info
2114:__ZNKSt3__210__function6__funcIPFbRN9Inspector14InspectorValueERiENS_9allocatorIS7_EES6_E11target_typeEv
2115:__ZN9Inspector17BackendDispatcher9getStringEPNS_15InspectorObjectERKN3WTF6StringEPb
2116:__ZN9Inspector17BackendDispatcher16getPropertyValueIN3WTF6StringEEET_PNS_15InspectorObjectERKS3_PbS4_NSt3__28functionIFbRNS_14InspectorValueERS4_EEEPKc
2117:__ZNKSt3__210__function6__funcIMN9Inspector14InspectorValueEKFbRN3WTF6StringEENS_9allocatorIS8_EEFbRS3_S6_EE7__cloneEv
2118:__ZNKSt3__210__function6__funcIMN9Inspector14InspectorValueEKFbRN3WTF6StringEENS_9allocatorIS8_EEFbRS3_S6_EE7__cloneEPNS0_6__baseISC_EE
2119:__ZNSt3__210__function6__funcIMN9Inspector14InspectorValueEKFbRN3WTF6StringEENS_9allocatorIS8_EEFbRS3_S6_EEclESB_S6_
2120:__ZNKSt3__210__function6__funcIMN9Inspector14InspectorValueEKFbRN3WTF6StringEENS_9allocatorIS8_EEFbRS3_S6_EE6targetERKSt9type_info
2121:__ZNKSt3__210__function6__funcIMN9Inspector14InspectorValueEKFbRN3WTF6StringEENS_9allocatorIS8_EEFbRS3_S6_EE11target_typeEv
2122:__ZN9Inspector17BackendDispatcher10getBooleanEPNS_15InspectorObjectERKN3WTF6StringEPb
2123:__ZN9Inspector17BackendDispatcher16getPropertyValueIbEET_PNS_15InspectorObjectERKN3WTF6StringEPbS2_NSt3__28functionIFbRNS_14InspectorValueERS2_EEEPKc
2124:__ZNKSt3__210__function6__funcIMN9Inspector14InspectorValueEKFbRbENS_9allocatorIS6_EEFbRS3_S4_EE7__cloneEv
2125:__ZNKSt3__210__function6__funcIMN9Inspector14InspectorValueEKFbRbENS_9allocatorIS6_EEFbRS3_S4_EE7__cloneEPNS0_6__baseISA_EE
2126:__ZNKSt3__210__function6__funcIMN9Inspector14InspectorValueEKFbRbENS_9allocatorIS6_EEFbRS3_S4_EE6targetERKSt9type_info
2127:__ZNKSt3__210__function6__funcIMN9Inspector14InspectorValueEKFbRbENS_9allocatorIS6_EEFbRS3_S4_EE11target_typeEv
2128:__ZN9Inspector17BackendDispatcher9getObjectEPNS_15InspectorObjectERKN3WTF6StringEPb
2129:__ZN9Inspector17BackendDispatcher16getPropertyValueIN3WTF6RefPtrINS_15InspectorObjectEEEEET_PS4_RKNS2_6StringEPbS6_NSt3__28functionIFbRNS_14InspectorValueERS6_EEEPKc
2130:__ZNKSt3__210__function6__funcIMN9Inspector14InspectorValueEFbRN3WTF6RefPtrINS2_15InspectorObjectEEEENS_9allocatorISA_EEFbRS3_S8_EE7__cloneEv
2131:__ZNKSt3__210__function6__funcIMN9Inspector14InspectorValueEFbRN3WTF6RefPtrINS2_15InspectorObjectEEEENS_9allocatorISA_EEFbRS3_S8_EE7__cloneEPNS0_6__baseISE_EE
2132:__ZNKSt3__210__function6__funcIMN9Inspector14InspectorValueEFbRN3WTF6RefPtrINS2_15InspectorObjectEEEENS_9allocatorISA_EEFbRS3_S8_EE6targetERKSt9type_info
2133:__ZNKSt3__210__function6__funcIMN9Inspector14InspectorValueEFbRN3WTF6RefPtrINS2_15InspectorObjectEEEENS_9allocatorISA_EEFbRS3_S8_EE11target_typeEv
2134:__ZN9Inspector17BackendDispatcher8getArrayEPNS_15InspectorObjectERKN3WTF6StringEPb
2135:__ZN9Inspector17BackendDispatcher16getPropertyValueIN3WTF6RefPtrINS_14InspectorArrayEEEEET_PNS_15InspectorObjectERKNS2_6StringEPbS6_NSt3__28functionIFbRNS_14InspectorValueERS6_EEEPKc
2136:__ZNKSt3__210__function6__funcIMN9Inspector14InspectorValueEFbRN3WTF6RefPtrINS2_14InspectorArrayEEEENS_9allocatorISA_EEFbRS3_S8_EE7__cloneEv
2137:__ZNKSt3__210__function6__funcIMN9Inspector14InspectorValueEFbRN3WTF6RefPtrINS2_14InspectorArrayEEEENS_9allocatorISA_EEFbRS3_S8_EE7__cloneEPNS0_6__baseISE_EE
2138:__ZNKSt3__210__function6__funcIMN9Inspector14InspectorValueEFbRN3WTF6RefPtrINS2_14InspectorArrayEEEENS_9allocatorISA_EEFbRS3_S8_EE6targetERKSt9type_info
2139:__ZNKSt3__210__function6__funcIMN9Inspector14InspectorValueEFbRN3WTF6RefPtrINS2_14InspectorArrayEEEENS_9allocatorISA_EEFbRS3_S8_EE11target_typeEv
2140:__ZN9Inspector14FrontendRouter6createEv
2141:__ZN9Inspector14FrontendRouter15connectFrontendEPNS_15FrontendChannelE
2142:__ZN9Inspector14FrontendRouter18disconnectFrontendEPNS_15FrontendChannelE
2143:__ZNK9Inspector14FrontendRouter9sendEventERKN3WTF6StringE
2144:__ZN9Inspector19InspectorObjectBaseD2Ev
2145:__ZN9Inspector19InspectorObjectBaseD0Ev
2146:__ZN9Inspector19InspectorObjectBase8asObjectERN3WTF6RefPtrINS_15InspectorObjectEEE
2147:__ZNK9Inspector19InspectorObjectBase9writeJSONERN3WTF13StringBuilderE
2148:__ZN9Inspector12_GLOBAL__N_117doubleQuoteStringERKN3WTF6StringERNS1_13StringBuilderE
2149:__ZN9Inspector14InspectorValueD2Ev
2150:__ZN9Inspector14InspectorValueD0Ev
2151:__ZNK9Inspector14InspectorValue9writeJSONERN3WTF13StringBuilderE
2152:__ZN9Inspector18InspectorArrayBaseD2Ev
2153:__ZNK9Inspector18InspectorArrayBase9writeJSONERN3WTF13StringBuilderE
2154:__ZN9Inspector14InspectorValue4nullEv
2155:__ZN9Inspector14InspectorValue6createEb
2156:__ZN9Inspector14InspectorValue6createEi
2157:__ZN9Inspector14InspectorValue6createEd
2158:__ZN9Inspector14InspectorValue6createERKN3WTF6StringE
2159:__ZN9Inspector14InspectorValue6createEPKc
2160:__ZN9Inspector14InspectorValue9parseJSONERKN3WTF6StringERNS1_6RefPtrIS0_EE
2161:__ZN9Inspector12_GLOBAL__N_110buildValueEPKtS2_PS2_i
2162:__ZN9Inspector12_GLOBAL__N_110parseTokenEPKtS2_PS2_S3_
2163:__ZN9Inspector12_GLOBAL__N_112decodeStringEPKtS2_RN3WTF6StringE
2164:__ZNK9Inspector14InspectorValue12toJSONStringEv
2165:__ZNK9Inspector14InspectorValue9asBooleanERb
2166:__ZNK9Inspector14InspectorValue9asIntegerERi
2167:__ZNK9Inspector14InspectorValue9asIntegerERj
2168:__ZNK9Inspector14InspectorValue8asStringERN3WTF6StringE
2169:__ZNK9Inspector19InspectorObjectBase10getBooleanERKN3WTF6StringERb
2170:__ZNK9Inspector19InspectorObjectBase8getValueERKN3WTF6StringERNS1_6RefPtrINS_14InspectorValueEEE
2171:__ZNK9Inspector19InspectorObjectBase9getStringERKN3WTF6StringERS2_
2172:__ZNK9Inspector19InspectorObjectBase9getObjectERKN3WTF6StringERNS1_6RefPtrINS_15InspectorObjectEEE
2173:__ZNK9Inspector19InspectorObjectBase8getArrayERKN3WTF6StringERNS1_6RefPtrINS_14InspectorArrayEEE
2174:__ZN9Inspector18InspectorArrayBaseC2Ev
2175:__ZNK9Inspector18InspectorArrayBase3getEm
2176:__ZN9Inspector15InspectorObject6createEv
2177:__ZN9Inspector14InspectorArray6createEv
2178:__ZN9Inspector27JSGlobalObjectConsoleClientD2Ev
2179:__ZN9Inspector27JSGlobalObjectConsoleClientD0Ev
2180:__ZN9Inspector27JSGlobalObjectConsoleClient23messageWithTypeAndLevelEN3JSC11MessageTypeENS1_12MessageLevelEPNS1_9ExecStateEON3WTF3RefINS_15ScriptArgumentsEEE
2181:__ZN9Inspector27JSGlobalObjectConsoleClient5countEPN3JSC9ExecStateEON3WTF3RefINS_15ScriptArgumentsEEE
2182:__ZN9Inspector27JSGlobalObjectConsoleClient7profileEPN3JSC9ExecStateERKN3WTF6StringE
2183:__ZN9Inspector27JSGlobalObjectConsoleClient10profileEndEPN3JSC9ExecStateERKN3WTF6StringE
2184:__ZN9Inspector27JSGlobalObjectConsoleClient16takeHeapSnapshotEPN3JSC9ExecStateERKN3WTF6StringE
2185:__ZN9Inspector27JSGlobalObjectConsoleClient4timeEPN3JSC9ExecStateERKN3WTF6StringE
2186:__ZN9Inspector27JSGlobalObjectConsoleClient7timeEndEPN3JSC9ExecStateERKN3WTF6StringE
2187:__ZN9Inspector27JSGlobalObjectConsoleClient9timeStampEPN3JSC9ExecStateEON3WTF3RefINS_15ScriptArgumentsEEE
2188:__ZN9Inspector27JSGlobalObjectConsoleClient17warnUnimplementedERKN3WTF6StringE
2189:__ZNK3WTF12StringAppendINS_6StringEPKcEcvS1_Ev
2190:__ZN3WTF25tryMakeStringFromAdaptersINS_17StringTypeAdapterINS_6StringEEEJNS1_IPKcEEEEES2_T_DpT0_
2191:__ZN9Inspector27JSGlobalObjectConsoleClient18stopConsoleProfileEv
2192:__ZN3WTF10makeStringIJPKcNS_6StringES2_EEES3_DpT_
2193:__ZN3WTF25tryMakeStringFromAdaptersINS_17StringTypeAdapterIPKcEEJNS1_INS_6StringEEES4_EEES5_T_DpT0_
2194:__ZN9Inspector27JSGlobalObjectConsoleClient19startConsoleProfileEv
2195:__ZN9Inspector27JSGlobalObjectConsoleClientC2EPNS_21InspectorConsoleAgentEPNS_22InspectorDebuggerAgentEPNS_28InspectorScriptProfilerAgentE
2196:__ZN9Inspector33JSGlobalObjectInspectorControllerD2Ev
2197:__ZN9Inspector33JSGlobalObjectInspectorControllerD0Ev
2198:__ZNK9Inspector33JSGlobalObjectInspectorController22developerExtrasEnabledEv
2199:__ZNK9Inspector33JSGlobalObjectInspectorController15evaluateHandlerEv
2200:__ZN9Inspector33JSGlobalObjectInspectorController19frontendInitializedEv
2201:__ZN9Inspector33JSGlobalObjectInspectorController18executionStopwatchEv
2202:__ZN9Inspector33JSGlobalObjectInspectorController17scriptDebugServerEv
2203:__ZN9Inspector33JSGlobalObjectInspectorController2vmEv
2204:__ZN9Inspector33JSGlobalObjectInspectorControllerC2ERN3JSC14JSGlobalObjectE
2205:__ZN9Inspector33JSGlobalObjectInspectorController21globalObjectDestroyedEv
2206:__ZN9Inspector33JSGlobalObjectInspectorController15connectFrontendEPNS_15FrontendChannelEb
2207:__ZN9Inspector33JSGlobalObjectInspectorController18disconnectFrontendEPNS_15FrontendChannelE
2208:__ZN9Inspector33JSGlobalObjectInspectorController5pauseEv
2209:__ZN9Inspector31JSGlobalObjectScriptDebugServerD0Ev
2210:__ZN9Inspector31JSGlobalObjectScriptDebugServer14attachDebuggerEv
2211:__ZN9Inspector31JSGlobalObjectScriptDebugServer14detachDebuggerEb
2212:__ZN9Inspector31JSGlobalObjectScriptDebugServer23runEventLoopWhilePausedEv
2213:__ZN9Inspector20JSInjectedScriptHost7destroyEPN3JSC6JSCellE
2214:__ZN9Inspector20JSInjectedScriptHostC2ERN3JSC2VMEPNS1_9StructureEON3WTF3RefINS_18InjectedScriptHostEEE
2215:__ZN9Inspector20JSInjectedScriptHost15createPrototypeERN3JSC2VMEPNS1_14JSGlobalObjectE
2216:__ZNK9Inspector20JSInjectedScriptHost8evaluateEPN3JSC9ExecStateE
2217:__ZN9Inspector20JSInjectedScriptHost26evaluateWithScopeExtensionEPN3JSC9ExecStateE
2218:__ZN9Inspector20JSInjectedScriptHost23internalConstructorNameEPN3JSC9ExecStateE
2219:__ZN9Inspector20JSInjectedScriptHost19isHTMLAllCollectionEPN3JSC9ExecStateE
2220:__ZN9Inspector20JSInjectedScriptHost7subtypeEPN3JSC9ExecStateE
2221:__ZN9Inspector20JSInjectedScriptHost15functionDetailsEPN3JSC9ExecStateE
2222:__ZN9Inspector20JSInjectedScriptHost21getInternalPropertiesEPN3JSC9ExecStateE
2223:__ZN9InspectorL25constructInternalPropertyEPN3JSC9ExecStateERKN3WTF6StringENS0_7JSValueE
2224:__ZN3JSC8JSObject15setIndexQuicklyERNS_2VMEjNS_7JSValueE
2225:__ZN9Inspector20JSInjectedScriptHost16proxyTargetValueEPN3JSC9ExecStateE
2226:__ZN9Inspector20JSInjectedScriptHost11weakMapSizeEPN3JSC9ExecStateE
2227:__ZN9Inspector20JSInjectedScriptHost14weakMapEntriesEPN3JSC9ExecStateE
2228:__ZN9Inspector20JSInjectedScriptHost11weakSetSizeEPN3JSC9ExecStateE
2229:__ZN9Inspector20JSInjectedScriptHost14weakSetEntriesEPN3JSC9ExecStateE
2230:__ZN9Inspector20JSInjectedScriptHost15iteratorEntriesEPN3JSC9ExecStateE
2231:__ZN9Inspector29JSInjectedScriptHostPrototype14finishCreationERN3JSC2VMEPNS1_14JSGlobalObjectE
2232:__ZN9InspectorL44jsInjectedScriptHostPrototypeFunctionSubtypeEPN3JSC9ExecStateE
2233:__ZN9InspectorL52jsInjectedScriptHostPrototypeFunctionFunctionDetailsEPN3JSC9ExecStateE
2234:__ZN9InspectorL58jsInjectedScriptHostPrototypeFunctionGetInternalPropertiesEPN3JSC9ExecStateE
2235:__ZN9InspectorL60jsInjectedScriptHostPrototypeFunctionInternalConstructorNameEPN3JSC9ExecStateE
2236:__ZN9InspectorL56jsInjectedScriptHostPrototypeFunctionIsHTMLAllCollectionEPN3JSC9ExecStateE
2237:__ZN9InspectorL53jsInjectedScriptHostPrototypeFunctionProxyTargetValueEPN3JSC9ExecStateE
2238:__ZN9InspectorL48jsInjectedScriptHostPrototypeFunctionWeakMapSizeEPN3JSC9ExecStateE
2239:__ZN9InspectorL51jsInjectedScriptHostPrototypeFunctionWeakMapEntriesEPN3JSC9ExecStateE
2240:__ZN9InspectorL48jsInjectedScriptHostPrototypeFunctionWeakSetSizeEPN3JSC9ExecStateE
2241:__ZN9InspectorL51jsInjectedScriptHostPrototypeFunctionWeakSetEntriesEPN3JSC9ExecStateE
2242:__ZN9InspectorL52jsInjectedScriptHostPrototypeFunctionIteratorEntriesEPN3JSC9ExecStateE
2243:__ZN9InspectorL63jsInjectedScriptHostPrototypeFunctionEvaluateWithScopeExtensionEPN3JSC9ExecStateE
2244:__ZN9InspectorL46jsInjectedScriptHostPrototypeAttributeEvaluateEPN3JSC9ExecStateE
2245:__ZN9Inspector21JSJavaScriptCallFrame7destroyEPN3JSC6JSCellE
2246:__ZNK3WTF10RefCountedIN9Inspector19JavaScriptCallFrameEE5derefEv
2247:__ZN3WTF14derefIfNotNullIN3JSC17DebuggerCallFrameEEEvPT_
2248:__ZN9Inspector21JSJavaScriptCallFrame15createPrototypeERN3JSC2VMEPNS1_14JSGlobalObjectE
2249:__ZN9Inspector21JSJavaScriptCallFrame26evaluateWithScopeExtensionEPN3JSC9ExecStateE
2250:__ZN9Inspector21JSJavaScriptCallFrame17scopeDescriptionsEPN3JSC9ExecStateE
2251:__ZN9Inspector4toJSEPN3JSC9ExecStateEPNS0_14JSGlobalObjectEPNS_19JavaScriptCallFrameE
2252:__ZNK9Inspector21JSJavaScriptCallFrame12functionNameEPN3JSC9ExecStateE
2253:__ZNK9Inspector21JSJavaScriptCallFrame10scopeChainEPN3JSC9ExecStateE
2254:__ZNK9Inspector21JSJavaScriptCallFrame4typeEPN3JSC9ExecStateE
2255:__ZN9Inspector30JSJavaScriptCallFramePrototype14finishCreationERN3JSC2VMEPNS1_14JSGlobalObjectE
2256:__ZN9InspectorL64jsJavaScriptCallFramePrototypeFunctionEvaluateWithScopeExtensionEPN3JSC9ExecStateE
2257:__ZN9InspectorL55jsJavaScriptCallFramePrototypeFunctionScopeDescriptionsEPN3JSC9ExecStateE
2258:__ZN9InspectorL36jsJavaScriptCallFrameAttributeCallerEPN3JSC9ExecStateE
2259:__ZN9InspectorL38jsJavaScriptCallFrameAttributeSourceIDEPN3JSC9ExecStateE
2260:__ZN9InspectorL34jsJavaScriptCallFrameAttributeLineEPN3JSC9ExecStateE
2261:__ZN9InspectorL36jsJavaScriptCallFrameAttributeColumnEPN3JSC9ExecStateE
2262:__ZN9InspectorL42jsJavaScriptCallFrameAttributeFunctionNameEPN3JSC9ExecStateE
2263:__ZN9InspectorL40jsJavaScriptCallFrameAttributeScopeChainEPN3JSC9ExecStateE
2264:__ZN9InspectorL40jsJavaScriptCallFrameAttributeThisObjectEPN3JSC9ExecStateE
2265:__ZN9InspectorL34jsJavaScriptCallFrameAttributeTypeEPN3JSC9ExecStateE
2266:__ZN9InspectorL34jsJavaScriptCallFrameIsTailDeletedEPN3JSC9ExecStateE
2267:__ZN9Inspector19JavaScriptCallFrameC2EON3WTF3RefIN3JSC17DebuggerCallFrameEEE
2268:__ZN9Inspector19JavaScriptCallFrame6callerEv
2269:__ZN9Inspector19JavaScriptCallFrameD2Ev
2270:__ZN9Inspector27PerGlobalObjectWrapperWorld10getWrapperEPN3JSC14JSGlobalObjectE
2271:__ZN9Inspector27PerGlobalObjectWrapperWorld10addWrapperEPN3JSC14JSGlobalObjectEPNS1_8JSObjectE
2272:__ZN3WTF7HashMapIPN3JSC14JSGlobalObjectENS1_6StrongINS1_8JSObjectEEENS_7PtrHashIS3_EENS_10HashTraitsIS3_EENS9_IS6_EEE3addIRS6_EENS_18HashTableAddResultINS_17HashTableIteratorIS3_NS_12KeyValuePairIS3_S6_EENS_24KeyValuePairKeyExtractorISI_EES8_NSC_18KeyValuePairTraitsESA_EEEERKS3_OT_
2273:__ZN3WTF9HashTableIPN3JSC14JSGlobalObjectENS_12KeyValuePairIS3_NS1_6StrongINS1_8JSObjectEEEEENS_24KeyValuePairKeyExtractorIS8_EENS_7PtrHashIS3_EENS_7HashMapIS3_S7_SC_NS_10HashTraitsIS3_EENSE_IS7_EEE18KeyValuePairTraitsESF_E6rehashEjPS8_
2274:__ZN3JSC6StrongINS_8JSObjectEEaSERKS2_
2275:__ZN3WTF9HashTableIPN3JSC14JSGlobalObjectENS_12KeyValuePairIS3_NS1_6StrongINS1_8JSObjectEEEEENS_24KeyValuePairKeyExtractorIS8_EENS_7PtrHashIS3_EENS_7HashMapIS3_S7_SC_NS_10HashTraitsIS3_EENSE_IS7_EEE18KeyValuePairTraitsESF_E8reinsertEOS8_
2276:__ZN9Inspector27PerGlobalObjectWrapperWorld16clearAllWrappersEv
2277:__ZN9Inspector15ScriptArgumentsC2EPN3JSC9ExecStateERN3WTF6VectorIN10Deprecated11ScriptValueELm0ENS4_15CrashOnOverflowELm16EEE
2278:__ZN9Inspector15ScriptArguments11createEmptyEPN3JSC9ExecStateE
2279:__ZN9Inspector15ScriptArgumentsD2Ev
2280:__ZNK9Inspector15ScriptArguments10argumentAtEm
2281:__ZNK9Inspector15ScriptArguments11globalStateEv
2282:__ZN9Inspector15ScriptArguments24getFirstArgumentAsStringERN3WTF6StringE
2283:__ZNK9Inspector15ScriptArguments7isEqualEPS0_
2284:__ZN9Inspector15ScriptCallFrameC2ERKN3WTF6StringES4_mjj
2285:__ZN9Inspector15ScriptCallFrameD2Ev
2286:__ZNK9Inspector15ScriptCallFrame7isEqualERKS0_
2287:__ZNK9Inspector15ScriptCallFrame8isNativeEv
2288:__ZNK9Inspector15ScriptCallFrame20buildInspectorObjectEv
2289:__ZN9Inspector8Protocol7Console9CallFrame7BuilderILi0EE15setFunctionNameERKN3WTF6StringE
2290:__ZN9Inspector8Protocol7Console9CallFrame7BuilderILi1EE6setUrlERKN3WTF6StringE
2291:__ZN9Inspector8Protocol7Console9CallFrame7BuilderILi3EE11setScriptIdERKN3WTF6StringE
2292:__ZN9Inspector8Protocol7Console9CallFrame7BuilderILi7EE13setLineNumberEi
2293:__ZN9Inspector8Protocol7Console9CallFrame7BuilderILi15EE15setColumnNumberEi
2294:__ZN9Inspector15ScriptCallStack6createEv
2295:__ZN9Inspector15ScriptCallStack6createERN3WTF6VectorINS_15ScriptCallFrameELm0ENS1_15CrashOnOverflowELm16EEE
2296:__ZN9Inspector15ScriptCallStackD2Ev
2297:__ZNK9Inspector15ScriptCallStack2atEm
2298:__ZNK9Inspector15ScriptCallStack23firstNonNativeCallFrameEv
2299:__ZN3WTF6VectorIN9Inspector15ScriptCallFrameELm0ENS_15CrashOnOverflowELm16EE15reserveCapacityEm
2300:__ZNK9Inspector15ScriptCallStack7isEqualEPS0_
2301:__ZNK9Inspector15ScriptCallStack19buildInspectorArrayEv
2302:__ZN9Inspector21createScriptCallStackEPN3JSC9ExecStateEm
2303:__ZNK9Inspector28CreateScriptCallStackFunctorclERN3JSC12StackVisitorE
2304:__ZN3WTF6VectorIN9Inspector15ScriptCallFrameELm0ENS_15CrashOnOverflowELm16EE6appendEOS2_
2305:__ZN9Inspector31createScriptCallStackForConsoleEPN3JSC9ExecStateEm
2306:__ZN9Inspector21createScriptArgumentsEPN3JSC9ExecStateEj
2307:__ZN3WTF6VectorIN10Deprecated11ScriptValueELm0ENS_15CrashOnOverflowELm16EE6appendEOS2_
2308:__ZN3WTF6VectorIN10Deprecated11ScriptValueELm0ENS_15CrashOnOverflowELm16EE14appendSlowCaseIS2_EEvOT_
2309:__ZN3WTF11VectorMoverILb0EN10Deprecated11ScriptValueEE4moveEPS2_S4_S4_
2310:__ZN9Inspector17ScriptDebugServerD2Ev
2311:__ZN9Inspector17ScriptDebugServer12sourceParsedEPN3JSC9ExecStateEPNS1_14SourceProviderEiRKN3WTF6StringE
2312:__ZN9Inspector17ScriptDebugServer19handleBreakpointHitEPN3JSC14JSGlobalObjectERKNS1_10BreakpointE
2313:__ZNK9Inspector17ScriptDebugServer36handleExceptionInBreakpointConditionEPN3JSC9ExecStateEPNS1_9ExceptionE
2314:__ZN9Inspector17ScriptDebugServer11handlePauseEPN3JSC14JSGlobalObjectENS1_8Debugger14ReasonForPauseE
2315:__ZN9Inspector17ScriptDebugServer34notifyDoneProcessingDebuggerEventsEv
2316:__ZN9Inspector17ScriptDebugServer16dispatchDidPauseEPNS_19ScriptDebugListenerE
2317:__ZN9Inspector17ScriptDebugServer27dispatchFunctionToListenersERKN3WTF7HashSetIPNS_19ScriptDebugListenerENS1_7PtrHashIS4_EENS1_10HashTraitsIS4_EEEEMS0_FvS4_E
2318:__ZN9Inspector17ScriptDebugServer19dispatchDidContinueEPNS_19ScriptDebugListenerE
2319:__ZN3WTF12copyToVectorINS_7HashSetIPN9Inspector19ScriptDebugListenerENS_7PtrHashIS4_EENS_10HashTraitsIS4_EEEENS_6VectorIS4_Lm0ENS_15CrashOnOverflowELm16EEEEEvRKT_RT0_
2320:__ZN9Inspector17ScriptDebugServer22exceptionOrCaughtValueEPN3JSC9ExecStateE
2321:__ZN9Inspector17ScriptDebugServer24evaluateBreakpointActionERKNS_22ScriptBreakpointActionE
2322:__ZN9Inspector17ScriptDebugServer27dispatchBreakpointActionLogEPN3JSC9ExecStateERKN3WTF6StringE
2323:__ZN9Inspector17ScriptDebugServer29dispatchBreakpointActionSoundEPN3JSC9ExecStateEi
2324:__ZN9Inspector17ScriptDebugServer29dispatchBreakpointActionProbeEPN3JSC9ExecStateERKNS_22ScriptBreakpointActionENS1_7JSValueE
2325:__ZN9Inspector17ScriptDebugServer27dispatchFailedToParseSourceERKN3WTF7HashSetIPNS_19ScriptDebugListenerENS1_7PtrHashIS4_EENS1_10HashTraitsIS4_EEEEPN3JSC14SourceProviderEiRKNS1_6StringE
2326:__ZN9Inspector17ScriptDebugServer22dispatchDidParseSourceERKN3WTF7HashSetIPNS_19ScriptDebugListenerENS1_7PtrHashIS4_EENS1_10HashTraitsIS4_EEEEPN3JSC14SourceProviderEb
2327:__ZN9Inspector19ScriptDebugListener6ScriptD2Ev
2328:__ZN3WTF7HashMapImNS_6VectorIN9Inspector22ScriptBreakpointActionELm0ENS_15CrashOnOverflowELm16EEENS_7IntHashImEENS_10HashTraitsImEENS8_IS5_EEED2Ev
2329:__ZN9Inspector17ScriptDebugServerC2ERN3JSC2VME
2330:__ZN9Inspector17ScriptDebugServer20setBreakpointActionsEmRKNS_16ScriptBreakpointE
2331:__ZN3WTF7HashMapImNS_6VectorIN9Inspector22ScriptBreakpointActionELm0ENS_15CrashOnOverflowELm16EEENS_7IntHashImEENS_10HashTraitsImEENS8_IS5_EEE9inlineSetIRKmRKS5_EENS_18HashTableAddResultINS_17HashTableIteratorImNS_12KeyValuePairImS5_EENS_24KeyValuePairKeyExtractorISK_EES7_NSB_18KeyValuePairTraitsES9_EEEEOT_OT0_
2332:__ZN3WTF9HashTableImNS_12KeyValuePairImNS_6VectorIN9Inspector22ScriptBreakpointActionELm0ENS_15CrashOnOverflowELm16EEEEENS_24KeyValuePairKeyExtractorIS7_EENS_7IntHashImEENS_7HashMapImS6_SB_NS_10HashTraitsImEENSD_IS6_EEE18KeyValuePairTraitsESE_E6rehashEjPS7_
2333:__ZN3WTF6VectorIN9Inspector22ScriptBreakpointActionELm0ENS_15CrashOnOverflowELm16EEaSERKS4_
2334:__ZN3WTF6VectorIN9Inspector22ScriptBreakpointActionELm0ENS_15CrashOnOverflowELm16EE15reserveCapacityEm
2335:__ZN3WTF9HashTableImNS_12KeyValuePairImNS_6VectorIN9Inspector22ScriptBreakpointActionELm0ENS_15CrashOnOverflowELm16EEEEENS_24KeyValuePairKeyExtractorIS7_EENS_7IntHashImEENS_7HashMapImS6_SB_NS_10HashTraitsImEENSD_IS6_EEE18KeyValuePairTraitsESE_E8reinsertEOS7_
2336:__ZN9Inspector17ScriptDebugServer23removeBreakpointActionsEm
2337:__ZN3WTF7HashMapImNS_6VectorIN9Inspector22ScriptBreakpointActionELm0ENS_15CrashOnOverflowELm16EEENS_7IntHashImEENS_10HashTraitsImEENS8_IS5_EEE6removeERKm
2338:__ZN9Inspector17ScriptDebugServer23getActionsForBreakpointEm
2339:__ZN9Inspector17ScriptDebugServer22clearBreakpointActionsEv
2340:__ZN9Inspector17ScriptDebugServer11addListenerEPNS_19ScriptDebugListenerE
2341:__ZN9Inspector17ScriptDebugServer14removeListenerEPNS_19ScriptDebugListenerEb
2342:__ZN9Inspector14InspectorAgentD2Ev
2343:__ZN9Inspector14InspectorAgentD0Ev
2344:__ZN9Inspector14InspectorAgent29willDestroyFrontendAndBackendENS_16DisconnectReasonE
2345:__ZN9Inspector14InspectorAgent6enableERN3WTF6StringE
2346:__ZN9Inspector14InspectorAgent7disableERN3WTF6StringE
2347:__ZN9Inspector14InspectorAgent11initializedERN3WTF6StringE
2348:__ZThn8_N9Inspector14InspectorAgent6enableERN3WTF6StringE
2349:__ZThn8_N9Inspector14InspectorAgent7disableERN3WTF6StringE
2350:__ZThn8_N9Inspector14InspectorAgent11initializedERN3WTF6StringE
2351:__ZThn8_N9Inspector14InspectorAgentD1Ev
2352:__ZThn8_N9Inspector14InspectorAgentD0Ev
2353:__ZN9Inspector14InspectorAgent7inspectEON3WTF6RefPtrINS_8Protocol7Runtime12RemoteObjectEEEONS2_INS_15InspectorObjectEEE
2354:__ZN9Inspector18InspectorAgentBaseD2Ev
2355:__ZN9Inspector14InspectorAgentC2ERNS_12AgentContextE
2356:__ZN9Inspector21InspectorConsoleAgentD2Ev
2357:__ZN9Inspector21InspectorConsoleAgent29willDestroyFrontendAndBackendENS_16DisconnectReasonE
2358:__ZN9Inspector21InspectorConsoleAgent13discardValuesEv
2359:__ZN9Inspector21InspectorConsoleAgent6enableERN3WTF6StringE
2360:__ZN9Inspector21InspectorConsoleAgent7disableERN3WTF6StringE
2361:__ZN9Inspector21InspectorConsoleAgent13clearMessagesERN3WTF6StringE
2362:__ZThn8_N9Inspector21InspectorConsoleAgent6enableERN3WTF6StringE
2363:__ZThn8_N9Inspector21InspectorConsoleAgent7disableERN3WTF6StringE
2364:__ZThn8_N9Inspector21InspectorConsoleAgent13clearMessagesERN3WTF6StringE
2365:__ZThn8_N9Inspector21InspectorConsoleAgentD1Ev
2366:__ZN9Inspector21InspectorConsoleAgentC2ERNS_12AgentContextEPNS_18InspectorHeapAgentE
2367:__ZN9Inspector21InspectorConsoleAgent19addMessageToConsoleENSt3__210unique_ptrINS_14ConsoleMessageENS1_14default_deleteIS3_EEEE
2368:__ZN9Inspector21InspectorConsoleAgent17addConsoleMessageENSt3__210unique_ptrINS_14ConsoleMessageENS1_14default_deleteIS3_EEEE
2369:__ZN9Inspector21InspectorConsoleAgent11startTimingERKN3WTF6StringE
2370:__ZN3WTF7HashMapINS_6StringEdNS_10StringHashENS_10HashTraitsIS1_EENS3_IdEEE3addIdEENS_18HashTableAddResultINS_17HashTableIteratorIS1_NS_12KeyValuePairIS1_dEENS_24KeyValuePairKeyExtractorISB_EES2_NS6_18KeyValuePairTraitsES4_EEEERKS1_OT_
2371:__ZN3WTF9HashTableINS_6StringENS_12KeyValuePairIS1_dEENS_24KeyValuePairKeyExtractorIS3_EENS_10StringHashENS_7HashMapIS1_dS6_NS_10HashTraitsIS1_EENS8_IdEEE18KeyValuePairTraitsES9_E6rehashEjPS3_
2372:__ZN9Inspector21InspectorConsoleAgent10stopTimingERKN3WTF6StringEONS1_3RefINS_15ScriptCallStackEEE
2373:__ZN3WTFplINS_6StringEEENS_12StringAppendIS1_T_EERKS1_S3_
2374:__ZNK3WTF12StringAppendINS_6StringES1_EcvS1_Ev
2375:__ZN3WTF25tryMakeStringFromAdaptersINS_17StringTypeAdapterINS_6StringEEEJS3_EEES2_T_DpT0_
2376:__ZN9Inspector21InspectorConsoleAgent16takeHeapSnapshotERKN3WTF6StringE
2377:__ZN9Inspector21InspectorConsoleAgent5countEPN3JSC9ExecStateEON3WTF3RefINS_15ScriptArgumentsEEE
2378:__ZN3WTF10makeStringIJcNS_6StringEEEES1_DpT_
2379:__ZN3WTF7HashMapINS_6StringEjNS_10StringHashENS_10HashTraitsIS1_EENS3_IjEEE3addIiEENS_18HashTableAddResultINS_17HashTableIteratorIS1_NS_12KeyValuePairIS1_jEENS_24KeyValuePairKeyExtractorISB_EES2_NS6_18KeyValuePairTraitsES4_EEEERKS1_OT_
2380:__ZN3WTF10makeStringIJNS_6StringEPKcS1_EEES1_DpT_
2381:__ZN3WTF25tryMakeStringFromAdaptersINS_17StringTypeAdapterINS_6StringEEEJNS1_IPKcEES3_EEES2_T_DpT0_
2382:__ZN3WTF25tryMakeStringFromAdaptersINS_17StringTypeAdapterIcEEJNS1_INS_6StringEEEEEES3_T_DpT0_
2383:__ZN9Inspector22InspectorDebuggerAgentD2Ev
2384:__ZN9Inspector22InspectorDebuggerAgent29willDestroyFrontendAndBackendENS_16DisconnectReasonE
2385:__ZN9Inspector22InspectorDebuggerAgent6enableERN3WTF6StringE
2386:__ZN9Inspector22InspectorDebuggerAgent7disableERN3WTF6StringE
2387:__ZN9Inspector22InspectorDebuggerAgent23setAsyncStackTraceDepthERN3WTF6StringEi
2388:__ZN9Inspector22InspectorDebuggerAgent20setBreakpointsActiveERN3WTF6StringEb
2389:__ZN9Inspector22InspectorDebuggerAgent18setBreakpointByUrlERN3WTF6StringEiPKS2_S5_PKiPKNS_15InspectorObjectEPS2_RNS1_6RefPtrINS_8Protocol5ArrayINSD_8Debugger8LocationEEEEE
2390:__ZN9Inspector22InspectorDebuggerAgent13setBreakpointERN3WTF6StringERKNS_15InspectorObjectEPS5_PS2_RNS1_6RefPtrINS_8Protocol8Debugger8LocationEEE
2391:__ZN9Inspector22InspectorDebuggerAgent16removeBreakpointERN3WTF6StringERKS2_
2392:__ZN9Inspector22InspectorDebuggerAgent24continueUntilNextRunLoopERN3WTF6StringE
2393:__ZN9Inspector22InspectorDebuggerAgent18continueToLocationERN3WTF6StringERKNS_15InspectorObjectE
2394:__ZN9Inspector22InspectorDebuggerAgent15searchInContentERN3WTF6StringERKS2_S5_PKbS7_RNS1_6RefPtrINS_8Protocol5ArrayINS9_12GenericTypes11SearchMatchEEEEE
2395:__ZN9Inspector22InspectorDebuggerAgent15getScriptSourceERN3WTF6StringERKS2_PS2_
2396:__ZN9Inspector22InspectorDebuggerAgent18getFunctionDetailsERN3WTF6StringERKS2_RNS1_6RefPtrINS_8Protocol8Debugger15FunctionDetailsEEE
2397:__ZN9Inspector22InspectorDebuggerAgent5pauseERN3WTF6StringE
2398:__ZN9Inspector22InspectorDebuggerAgent6resumeERN3WTF6StringE
2399:__ZN9Inspector22InspectorDebuggerAgent8stepOverERN3WTF6StringE
2400:__ZN9Inspector22InspectorDebuggerAgent8stepIntoERN3WTF6StringE
2401:__ZN9Inspector22InspectorDebuggerAgent7stepOutERN3WTF6StringE
2402:__ZN9Inspector22InspectorDebuggerAgent20setPauseOnExceptionsERN3WTF6StringERKS2_
2403:__ZN9Inspector22InspectorDebuggerAgent20setPauseOnAssertionsERN3WTF6StringEb
2404:__ZN9Inspector22InspectorDebuggerAgent19evaluateOnCallFrameERN3WTF6StringERKS2_S5_PS4_PKbS8_S8_S8_S8_RNS1_6RefPtrINS_8Protocol7Runtime12RemoteObjectEEEPNSA_9OptOutputIbEEPNSF_IiEE
2405:__ZN9Inspector22InspectorDebuggerAgent6enableEv
2406:__ZN9Inspector22InspectorDebuggerAgent7disableEb
2407:__ZN9Inspector22InspectorDebuggerAgent8didPauseERN3JSC9ExecStateENS1_7JSValueES4_
2408:__ZN9Inspector22InspectorDebuggerAgent11didContinueEv
2409:__ZN9Inspector22InspectorDebuggerAgent21sourceMapURLForScriptERKNS_19ScriptDebugListener6ScriptE
2410:__ZN9Inspector22InspectorDebuggerAgent14didParseSourceEmRKNS_19ScriptDebugListener6ScriptE
2411:__ZN9Inspector22InspectorDebuggerAgent19failedToParseSourceERKN3WTF6StringES4_iiS4_
2412:__ZN9Inspector22InspectorDebuggerAgent21breakpointActionSoundEi
2413:__ZN9Inspector22InspectorDebuggerAgent21breakpointActionProbeERN3JSC9ExecStateERKNS_22ScriptBreakpointActionEjjNS1_7JSValueE
2414:__ZThn8_N9Inspector22InspectorDebuggerAgentD1Ev
2415:__ZThn8_N9Inspector22InspectorDebuggerAgent14didParseSourceEmRKNS_19ScriptDebugListener6ScriptE
2416:__ZThn8_N9Inspector22InspectorDebuggerAgent19failedToParseSourceERKN3WTF6StringES4_iiS4_
2417:__ZThn8_N9Inspector22InspectorDebuggerAgent8didPauseERN3JSC9ExecStateENS1_7JSValueES4_
2418:__ZThn8_N9Inspector22InspectorDebuggerAgent11didContinueEv
2419:__ZThn8_N9Inspector22InspectorDebuggerAgent21breakpointActionSoundEi
2420:__ZThn8_N9Inspector22InspectorDebuggerAgent21breakpointActionProbeERN3JSC9ExecStateERKNS_22ScriptBreakpointActionEjjNS1_7JSValueE
2421:__ZThn12_N9Inspector22InspectorDebuggerAgent6enableERN3WTF6StringE
2422:__ZThn12_N9Inspector22InspectorDebuggerAgent7disableERN3WTF6StringE
2423:__ZThn12_N9Inspector22InspectorDebuggerAgent23setAsyncStackTraceDepthERN3WTF6StringEi
2424:__ZThn12_N9Inspector22InspectorDebuggerAgent20setBreakpointsActiveERN3WTF6StringEb
2425:__ZThn12_N9Inspector22InspectorDebuggerAgent18setBreakpointByUrlERN3WTF6StringEiPKS2_S5_PKiPKNS_15InspectorObjectEPS2_RNS1_6RefPtrINS_8Protocol5ArrayINSD_8Debugger8LocationEEEEE
2426:__ZThn12_N9Inspector22InspectorDebuggerAgent13setBreakpointERN3WTF6StringERKNS_15InspectorObjectEPS5_PS2_RNS1_6RefPtrINS_8Protocol8Debugger8LocationEEE
2427:__ZThn12_N9Inspector22InspectorDebuggerAgent16removeBreakpointERN3WTF6StringERKS2_
2428:__ZThn12_N9Inspector22InspectorDebuggerAgent24continueUntilNextRunLoopERN3WTF6StringE
2429:__ZThn12_N9Inspector22InspectorDebuggerAgent18continueToLocationERN3WTF6StringERKNS_15InspectorObjectE
2430:__ZThn12_N9Inspector22InspectorDebuggerAgent8stepOverERN3WTF6StringE
2431:__ZThn12_N9Inspector22InspectorDebuggerAgent8stepIntoERN3WTF6StringE
2432:__ZThn12_N9Inspector22InspectorDebuggerAgent7stepOutERN3WTF6StringE
2433:__ZThn12_N9Inspector22InspectorDebuggerAgent5pauseERN3WTF6StringE
2434:__ZThn12_N9Inspector22InspectorDebuggerAgent6resumeERN3WTF6StringE
2435:__ZThn12_N9Inspector22InspectorDebuggerAgent15searchInContentERN3WTF6StringERKS2_S5_PKbS7_RNS1_6RefPtrINS_8Protocol5ArrayINS9_12GenericTypes11SearchMatchEEEEE
2436:__ZThn12_N9Inspector22InspectorDebuggerAgent15getScriptSourceERN3WTF6StringERKS2_PS2_
2437:__ZThn12_N9Inspector22InspectorDebuggerAgent18getFunctionDetailsERN3WTF6StringERKS2_RNS1_6RefPtrINS_8Protocol8Debugger15FunctionDetailsEEE
2438:__ZThn12_N9Inspector22InspectorDebuggerAgent20setPauseOnExceptionsERN3WTF6StringERKS2_
2439:__ZThn12_N9Inspector22InspectorDebuggerAgent20setPauseOnAssertionsERN3WTF6StringEb
2440:__ZThn12_N9Inspector22InspectorDebuggerAgent19evaluateOnCallFrameERN3WTF6StringERKS2_S5_PS4_PKbS8_S8_S8_S8_RNS1_6RefPtrINS_8Protocol7Runtime12RemoteObjectEEEPNSA_9OptOutputIbEEPNSF_IiEE
2441:__ZThn12_N9Inspector22InspectorDebuggerAgentD1Ev
2442:__ZN9InspectorL30objectGroupForBreakpointActionERKNS_22ScriptBreakpointActionE
2443:__ZN9Inspector8Protocol8Debugger11ProbeSample7BuilderILi0EE10setProbeIdEi
2444:__ZN9Inspector8Protocol8Debugger11ProbeSample7BuilderILi1EE10setBatchIdEi
2445:__ZN9Inspector8Protocol8Debugger11ProbeSample7BuilderILi5EE11setSampleIdEi
2446:__ZN9Inspector8Protocol8Debugger11ProbeSample7BuilderILi7EE12setTimestampEd
2447:__ZN9Inspector8Protocol8Debugger11ProbeSample7BuilderILi15EE10setPayloadEN3WTF6RefPtrINS0_7Runtime12RemoteObjectEEE
2448:__ZN3WTF10makeStringIJNS_6StringES1_EEES1_DpT_
2449:__ZN3WTF7HashMapImN9Inspector19ScriptDebugListener6ScriptENS_7IntHashImEENS_10HashTraitsImEENS6_IS3_EEE9inlineSetIRKmRKS3_EENS_18HashTableAddResultINS_17HashTableIteratorImNS_12KeyValuePairImS3_EENS_24KeyValuePairKeyExtractorISI_EES5_NS9_18KeyValuePairTraitsES7_EEEEOT_OT0_
2450:__ZN9Inspector22InspectorDebuggerAgent29breakpointActionsFromProtocolERN3WTF6StringERNS1_6RefPtrINS_14InspectorArrayEEEPNS1_6VectorINS_22ScriptBreakpointActionELm0ENS1_15CrashOnOverflowELm16EEE
2451:__ZN9Inspector22InspectorDebuggerAgent16didSetBreakpointERKN3JSC10BreakpointERKN3WTF6StringERKNS_16ScriptBreakpointE
2452:__ZN9InspectorL21buildDebuggerLocationERKN3JSC10BreakpointE
2453:__ZN9Inspector8Protocol8Debugger8Location15setColumnNumberEi
2454:__ZN3WTF7HashMapINS_6StringENS_6VectorImLm0ENS_15CrashOnOverflowELm16EEENS_10StringHashENS_10HashTraitsIS1_EENS6_IS4_EEE9inlineSetIRKS1_S4_EENS_18HashTableAddResultINS_17HashTableIteratorIS1_NS_12KeyValuePairIS1_S4_EENS_24KeyValuePairKeyExtractorISG_EES5_NS9_18KeyValuePairTraitsES7_EEEEOT_OT0_
2455:__ZN3WTF7HashMapImNS_6StringENS_7IntHashImEENS_10HashTraitsImEENS4_IS1_EEE9inlineSetIRKmRKS1_EENS_18HashTableAddResultINS_17HashTableIteratorImNS_12KeyValuePairImS1_EENS_24KeyValuePairKeyExtractorISG_EES3_NS7_18KeyValuePairTraitsES5_EEEEOT_OT0_
2456:__ZN3WTF9HashTableImNS_12KeyValuePairImNS_6StringEEENS_24KeyValuePairKeyExtractorIS3_EENS_7IntHashImEENS_7HashMapImS2_S7_NS_10HashTraitsImEENS9_IS2_EEE18KeyValuePairTraitsESA_E6rehashEjPS3_
2457:__ZN3WTF9HashTableINS_6StringENS_12KeyValuePairIS1_NS_6VectorImLm0ENS_15CrashOnOverflowELm16EEEEENS_24KeyValuePairKeyExtractorIS6_EENS_10StringHashENS_7HashMapIS1_S5_S9_NS_10HashTraitsIS1_EENSB_IS5_EEE18KeyValuePairTraitsESC_E6rehashEjPS6_
2458:__ZN3WTF9HashTableINS_6StringENS_12KeyValuePairIS1_NS_6VectorImLm0ENS_15CrashOnOverflowELm16EEEEENS_24KeyValuePairKeyExtractorIS6_EENS_10StringHashENS_7HashMapIS1_S5_S9_NS_10HashTraitsIS1_EENSB_IS5_EEE18KeyValuePairTraitsESC_E8reinsertEOS6_
2459:__ZN3WTF6VectorIN9Inspector22ScriptBreakpointActionELm0ENS_15CrashOnOverflowELm16EE6appendEOS2_
2460:__ZN3WTF9HashTableImNS_12KeyValuePairImN9Inspector19ScriptDebugListener6ScriptEEENS_24KeyValuePairKeyExtractorIS5_EENS_7IntHashImEENS_7HashMapImS4_S9_NS_10HashTraitsImEENSB_IS4_EEE18KeyValuePairTraitsESC_E6rehashEjPS5_
2461:__ZN9Inspector19ScriptDebugListener6ScriptaSERKS1_
2462:__ZN3WTF9HashTableImNS_12KeyValuePairImN9Inspector19ScriptDebugListener6ScriptEEENS_24KeyValuePairKeyExtractorIS5_EENS_7IntHashImEENS_7HashMapImS4_S9_NS_10HashTraitsImEENSB_IS4_EEE18KeyValuePairTraitsESC_E8reinsertEOS5_
2463:__ZN9Inspector22InspectorDebuggerAgent26buildBreakpointPauseReasonEm
2464:__ZN9Inspector22InspectorDebuggerAgent25buildExceptionPauseReasonEN3JSC7JSValueERKNS_14InjectedScriptE
2465:__ZN9Inspector8Protocol8Debugger21BreakpointPauseReason7BuilderILi0EE15setBreakpointIdERKN3WTF6StringE
2466:__ZN9Inspector22InspectorDebuggerAgent29clearInspectorBreakpointStateEv
2467:__ZN3WTF16copyKeysToVectorINS_6StringENS_6VectorImLm0ENS_15CrashOnOverflowELm16EEENS_10StringHashENS_10HashTraitsIS1_EENS6_IS4_EENS2_IS1_Lm0ES3_Lm16EEEEEvRKNS_7HashMapIT_T0_T1_T2_T3_EERT4_
2468:__ZN9Inspector22InspectorDebuggerAgent28clearDebuggerBreakpointStateEv
2469:__ZN3WTF6VectorINS_6StringELm0ENS_15CrashOnOverflowELm16EE6resizeEm
2470:__ZNK3WTF12StringAppendINS_12ASCIILiteralENS_6StringEEcvS2_Ev
2471:__ZN3WTF25tryMakeStringFromAdaptersINS_17StringTypeAdapterINS_12ASCIILiteralEEEJNS1_INS_6StringEEEEEES4_T_DpT0_
2472:__ZN9Inspector22InspectorDebuggerAgent12assertPausedERN3WTF6StringE
2473:__ZNKSt3__210__function6__funcIZN9Inspector22InspectorDebuggerAgent19registerIdleHandlerEvE3__0NS_9allocatorIS4_EEFvvEE7__cloneEv
2474:__ZNKSt3__210__function6__funcIZN9Inspector22InspectorDebuggerAgent19registerIdleHandlerEvE3__0NS_9allocatorIS4_EEFvvEE7__cloneEPNS0_6__baseIS7_EE
2475:__ZNSt3__210__function6__funcIZN9Inspector22InspectorDebuggerAgent19registerIdleHandlerEvE3__0NS_9allocatorIS4_EEFvvEEclEv
2476:__ZNKSt3__210__function6__funcIZN9Inspector22InspectorDebuggerAgent19registerIdleHandlerEvE3__0NS_9allocatorIS4_EEFvvEE6targetERKSt9type_info
2477:__ZNKSt3__210__function6__funcIZN9Inspector22InspectorDebuggerAgent19registerIdleHandlerEvE3__0NS_9allocatorIS4_EEFvvEE11target_typeEv
2478:__ZN9Inspector22InspectorDebuggerAgent13didBecomeIdleEv
2479:__ZN9InspectorL13parseLocationERN3WTF6StringERKNS_15InspectorObjectERmRjS7_
2480:__ZN3WTF7HashMapINS_6StringENS_6RefPtrIN9Inspector15InspectorObjectEEENS_10StringHashENS_10HashTraitsIS1_EENS7_IS5_EEE6removeERKS1_
2481:__ZN3WTF7HashMapINS_6StringENS_6VectorImLm0ENS_15CrashOnOverflowELm16EEENS_10StringHashENS_10HashTraitsIS1_EENS6_IS4_EEE4takeERKS1_
2482:__ZN3WTF7HashMapImNS_6StringENS_7IntHashImEENS_10HashTraitsImEENS4_IS1_EEE6removeERKm
2483:__ZN3WTF7HashMapINS_6StringENS_6VectorImLm0ENS_15CrashOnOverflowELm16EEENS_10StringHashENS_10HashTraitsIS1_EENS6_IS4_EEE6removeENS_24HashTableIteratorAdapterINS_9HashTableIS1_NS_12KeyValuePairIS1_S4_EENS_24KeyValuePairKeyExtractorISD_EES5_NS9_18KeyValuePairTraitsES7_EESD_EE
2484:__ZN3WTF9HashTableINS_6StringENS_12KeyValuePairIS1_NS_6RefPtrIN9Inspector15InspectorObjectEEEEENS_24KeyValuePairKeyExtractorIS7_EENS_10StringHashENS_7HashMapIS1_S6_SA_NS_10HashTraitsIS1_EENSC_IS6_EEE18KeyValuePairTraitsESD_E34removeWithoutEntryConsistencyCheckENS_17HashTableIteratorIS1_S7_S9_SA_SG_SD_EE
2485:__ZN3WTFplINS_6StringEcS1_EENS_12StringAppendINS2_IT_T0_EET1_EERKS5_S6_
2486:__ZN3WTFplINS_12StringAppendINS_6StringEcEES2_cEENS1_INS1_IT_T0_EET1_EERKS6_S7_
2487:__ZN3WTFplINS_12StringAppendINS1_INS_6StringEcEES2_EEcS2_EENS1_INS1_IT_T0_EET1_EERKS7_S8_
2488:__ZNK3WTF12StringAppendINS0_INS0_INS0_INS_6StringEcEES1_EEcEES1_EcvS1_Ev
2489:__ZN9Inspector16ScriptBreakpointC2EiiRKN3WTF6StringERNS1_6VectorINS_22ScriptBreakpointActionELm0ENS1_15CrashOnOverflowELm16EEEbj
2490:__ZN3WTF25tryMakeStringFromAdaptersINS_17StringTypeAdapterINS_12StringAppendINS2_INS2_INS_6StringEcEES3_EEcEEEEJNS1_IS3_EEEEES3_T_DpT0_
2491:__ZN3WTF12StringAppendINS0_INS_6StringEcEES1_E7writeToEPt
2492:__ZN3WTF7HashMapINS_6StringENS_6VectorImLm0ENS_15CrashOnOverflowELm16EEENS_10StringHashENS_10HashTraitsIS1_EENS6_IS4_EEED2Ev
2493:__ZN9Inspector22InspectorDebuggerAgentC2ERNS_12AgentContextE
2494:__ZN9Inspector18InspectorHeapAgentD2Ev
2495:__ZN9Inspector18InspectorHeapAgentD0Ev
2496:__ZN9Inspector18InspectorHeapAgent29willDestroyFrontendAndBackendENS_16DisconnectReasonE
2497:__ZN9Inspector18InspectorHeapAgent6enableERN3WTF6StringE
2498:__ZN9Inspector18InspectorHeapAgent7disableERN3WTF6StringE
2499:__ZN9Inspector18InspectorHeapAgent2gcERN3WTF6StringE
2500:__ZN9Inspector18InspectorHeapAgent8snapshotERN3WTF6StringEPdPS2_
2501:__ZN9Inspector18InspectorHeapAgent13startTrackingERN3WTF6StringE
2502:__ZN9Inspector18InspectorHeapAgent12stopTrackingERN3WTF6StringE
2503:__ZN9Inspector18InspectorHeapAgent10getPreviewERN3WTF6StringEiPNS_8Protocol9OptOutputIS2_EERNS1_6RefPtrINS4_8Debugger15FunctionDetailsEEERNS8_INS4_7Runtime13ObjectPreviewEEE
2504:__ZN9Inspector18InspectorHeapAgent15getRemoteObjectERN3WTF6StringEiPKS2_RNS1_6RefPtrINS_8Protocol7Runtime12RemoteObjectEEE
2505:__ZN9Inspector18InspectorHeapAgent18willGarbageCollectEv
2506:__ZN9Inspector18InspectorHeapAgent17didGarbageCollectEN3JSC15CollectionScopeE
2507:__ZN9Inspector18InspectorHeapAgent29dispatchGarbageCollectedEventENS_8Protocol4Heap17GarbageCollection4TypeEdd
2508:__ZThn8_N9Inspector18InspectorHeapAgent6enableERN3WTF6StringE
2509:__ZThn8_N9Inspector18InspectorHeapAgent7disableERN3WTF6StringE
2510:__ZThn8_N9Inspector18InspectorHeapAgent2gcERN3WTF6StringE
2511:__ZThn8_N9Inspector18InspectorHeapAgent8snapshotERN3WTF6StringEPdPS2_
2512:__ZThn8_N9Inspector18InspectorHeapAgent13startTrackingERN3WTF6StringE
2513:__ZThn8_N9Inspector18InspectorHeapAgent12stopTrackingERN3WTF6StringE
2514:__ZThn8_N9Inspector18InspectorHeapAgent10getPreviewERN3WTF6StringEiPNS_8Protocol9OptOutputIS2_EERNS1_6RefPtrINS4_8Debugger15FunctionDetailsEEERNS8_INS4_7Runtime13ObjectPreviewEEE
2515:__ZThn8_N9Inspector18InspectorHeapAgent15getRemoteObjectERN3WTF6StringEiPKS2_RNS1_6RefPtrINS_8Protocol7Runtime12RemoteObjectEEE
2516:__ZThn8_N9Inspector18InspectorHeapAgentD1Ev
2517:__ZThn8_N9Inspector18InspectorHeapAgentD0Ev
2518:__ZThn12_N9Inspector18InspectorHeapAgentD1Ev
2519:__ZThn12_N9Inspector18InspectorHeapAgentD0Ev
2520:__ZThn12_N9Inspector18InspectorHeapAgent18willGarbageCollectEv
2521:__ZThn12_N9Inspector18InspectorHeapAgent17didGarbageCollectEN3JSC15CollectionScopeE
2522:__ZN3JSC4Heap11addObserverEPNS_12HeapObserverE
2523:__ZN9Inspector8Protocol4Heap17GarbageCollection7BuilderILi0EE7setTypeENS2_4TypeE
2524:__ZN9Inspector8Protocol4Heap17GarbageCollection7BuilderILi1EE12setStartTimeEd
2525:__ZN9Inspector8Protocol4Heap17GarbageCollection7BuilderILi3EE10setEndTimeEd
2526:__ZN9Inspector18InspectorHeapAgent27nodeForHeapObjectIdentifierERN3WTF6StringEj
2527:__ZNKSt3__210__function6__funcIZN9Inspector18InspectorHeapAgent8snapshotERN3WTF6StringEPdPS5_E3__0NS_9allocatorIS9_EEFbRKN3JSC16HeapSnapshotNodeEEE7__cloneEv
2528:__ZNKSt3__210__function6__funcIZN9Inspector18InspectorHeapAgent8snapshotERN3WTF6StringEPdPS5_E3__0NS_9allocatorIS9_EEFbRKN3JSC16HeapSnapshotNodeEEE7__cloneEPNS0_6__baseISG_EE
2529:__ZNSt3__210__function6__funcIZN9Inspector18InspectorHeapAgent8snapshotERN3WTF6StringEPdPS5_E3__0NS_9allocatorIS9_EEFbRKN3JSC16HeapSnapshotNodeEEEclESF_
2530:__ZNKSt3__210__function6__funcIZN9Inspector18InspectorHeapAgent8snapshotERN3WTF6StringEPdPS5_E3__0NS_9allocatorIS9_EEFbRKN3JSC16HeapSnapshotNodeEEE6targetERKSt9type_info
2531:__ZNKSt3__210__function6__funcIZN9Inspector18InspectorHeapAgent8snapshotERN3WTF6StringEPdPS5_E3__0NS_9allocatorIS9_EEFbRKN3JSC16HeapSnapshotNodeEEE11target_typeEv
2532:__ZN9Inspector18InspectorHeapAgentC2ERNS_12AgentContextE
2533:__ZN9Inspector21InspectorRuntimeAgent29willDestroyFrontendAndBackendENS_16DisconnectReasonE
2534:__ZN9Inspector21InspectorRuntimeAgent6enableERN3WTF6StringE
2535:__ZN9Inspector21InspectorRuntimeAgent7disableERN3WTF6StringE
2536:__ZN9Inspector21InspectorRuntimeAgent5parseERN3WTF6StringERKS2_PNS_8Protocol7Runtime15SyntaxErrorTypeEPNS6_9OptOutputIS2_EERNS1_6RefPtrINS7_10ErrorRangeEEE
2537:__ZN9Inspector21InspectorRuntimeAgent8evaluateERN3WTF6StringERKS2_PS4_PKbS8_PKiS8_S8_S8_RNS1_6RefPtrINS_8Protocol7Runtime12RemoteObjectEEEPNSC_9OptOutputIbEEPNSH_IiEE
2538:__ZN9Inspector21InspectorRuntimeAgent14callFunctionOnERN3WTF6StringERKS2_S5_PKNS_14InspectorArrayEPKbSA_SA_RNS1_6RefPtrINS_8Protocol7Runtime12RemoteObjectEEEPNSC_9OptOutputIbEE
2539:__ZN9Inspector21InspectorRuntimeAgent13releaseObjectERN3WTF6StringERKS2_
2540:__ZN9Inspector21InspectorRuntimeAgent13getPropertiesERN3WTF6StringERKS2_PKbS7_RNS1_6RefPtrINS_8Protocol5ArrayINS9_7Runtime18PropertyDescriptorEEEEERNS8_INSA_INSB_26InternalPropertyDescriptorEEEEE
2541:__ZN9Inspector21InspectorRuntimeAgent24getDisplayablePropertiesERN3WTF6StringERKS2_PKbRNS1_6RefPtrINS_8Protocol5ArrayINS9_7Runtime18PropertyDescriptorEEEEERNS8_INSA_INSB_26InternalPropertyDescriptorEEEEE
2542:__ZN9Inspector21InspectorRuntimeAgent20getCollectionEntriesERN3WTF6StringERKS2_PS4_PKiS8_RNS1_6RefPtrINS_8Protocol5ArrayINSA_7Runtime15CollectionEntryEEEEE
2543:__ZN9Inspector21InspectorRuntimeAgent10saveResultERN3WTF6StringERKNS_15InspectorObjectEPKiPNS_8Protocol9OptOutputIiEE
2544:__ZN9Inspector21InspectorRuntimeAgent18releaseObjectGroupERN3WTF6StringERKS2_
2545:__ZN9Inspector21InspectorRuntimeAgent36getRuntimeTypesForVariablesAtOffsetsERN3WTF6StringERKNS_14InspectorArrayERNS1_6RefPtrINS_8Protocol5ArrayINS8_7Runtime15TypeDescriptionEEEEE
2546:__ZN9Inspector21InspectorRuntimeAgent18enableTypeProfilerERN3WTF6StringE
2547:__ZN9Inspector21InspectorRuntimeAgent19disableTypeProfilerERN3WTF6StringE
2548:__ZN9Inspector21InspectorRuntimeAgent25enableControlFlowProfilerERN3WTF6StringE
2549:__ZN9Inspector21InspectorRuntimeAgent26disableControlFlowProfilerERN3WTF6StringE
2550:__ZN9Inspector21InspectorRuntimeAgent14getBasicBlocksERN3WTF6StringERKS2_RNS1_6RefPtrINS_8Protocol5ArrayINS7_7Runtime10BasicBlockEEEEE
2551:__ZThn8_N9Inspector21InspectorRuntimeAgent5parseERN3WTF6StringERKS2_PNS_8Protocol7Runtime15SyntaxErrorTypeEPNS6_9OptOutputIS2_EERNS1_6RefPtrINS7_10ErrorRangeEEE
2552:__ZThn8_N9Inspector21InspectorRuntimeAgent8evaluateERN3WTF6StringERKS2_PS4_PKbS8_PKiS8_S8_S8_RNS1_6RefPtrINS_8Protocol7Runtime12RemoteObjectEEEPNSC_9OptOutputIbEEPNSH_IiEE
2553:__ZThn8_N9Inspector21InspectorRuntimeAgent14callFunctionOnERN3WTF6StringERKS2_S5_PKNS_14InspectorArrayEPKbSA_SA_RNS1_6RefPtrINS_8Protocol7Runtime12RemoteObjectEEEPNSC_9OptOutputIbEE
2554:__ZThn8_N9Inspector21InspectorRuntimeAgent13getPropertiesERN3WTF6StringERKS2_PKbS7_RNS1_6RefPtrINS_8Protocol5ArrayINS9_7Runtime18PropertyDescriptorEEEEERNS8_INSA_INSB_26InternalPropertyDescriptorEEEEE
2555:__ZThn8_N9Inspector21InspectorRuntimeAgent24getDisplayablePropertiesERN3WTF6StringERKS2_PKbRNS1_6RefPtrINS_8Protocol5ArrayINS9_7Runtime18PropertyDescriptorEEEEERNS8_INSA_INSB_26InternalPropertyDescriptorEEEEE
2556:__ZThn8_N9Inspector21InspectorRuntimeAgent20getCollectionEntriesERN3WTF6StringERKS2_PS4_PKiS8_RNS1_6RefPtrINS_8Protocol5ArrayINSA_7Runtime15CollectionEntryEEEEE
2557:__ZThn8_N9Inspector21InspectorRuntimeAgent10saveResultERN3WTF6StringERKNS_15InspectorObjectEPKiPNS_8Protocol9OptOutputIiEE
2558:__ZThn8_N9Inspector21InspectorRuntimeAgent13releaseObjectERN3WTF6StringERKS2_
2559:__ZThn8_N9Inspector21InspectorRuntimeAgent18releaseObjectGroupERN3WTF6StringERKS2_
2560:__ZThn8_N9Inspector21InspectorRuntimeAgent6enableERN3WTF6StringE
2561:__ZThn8_N9Inspector21InspectorRuntimeAgent7disableERN3WTF6StringE
2562:__ZThn8_N9Inspector21InspectorRuntimeAgent36getRuntimeTypesForVariablesAtOffsetsERN3WTF6StringERKNS_14InspectorArrayERNS1_6RefPtrINS_8Protocol5ArrayINS8_7Runtime15TypeDescriptionEEEEE
2563:__ZThn8_N9Inspector21InspectorRuntimeAgent18enableTypeProfilerERN3WTF6StringE
2564:__ZThn8_N9Inspector21InspectorRuntimeAgent19disableTypeProfilerERN3WTF6StringE
2565:__ZThn8_N9Inspector21InspectorRuntimeAgent25enableControlFlowProfilerERN3WTF6StringE
2566:__ZThn8_N9Inspector21InspectorRuntimeAgent26disableControlFlowProfilerERN3WTF6StringE
2567:__ZThn8_N9Inspector21InspectorRuntimeAgent14getBasicBlocksERN3WTF6StringERKS2_RNS1_6RefPtrINS_8Protocol5ArrayINS7_7Runtime10BasicBlockEEEEE
2568:__ZThn8_N9Inspector21InspectorRuntimeAgentD1Ev
2569:__ZNKSt3__210__function6__funcIZN9Inspector21InspectorRuntimeAgent34setControlFlowProfilerEnabledStateEbE3__1NS_9allocatorIS4_EEFvvEE7__cloneEv
2570:__ZNKSt3__210__function6__funcIZN9Inspector21InspectorRuntimeAgent34setControlFlowProfilerEnabledStateEbE3__1NS_9allocatorIS4_EEFvvEE7__cloneEPNS0_6__baseIS7_EE
2571:__ZNSt3__210__function6__funcIZN9Inspector21InspectorRuntimeAgent34setControlFlowProfilerEnabledStateEbE3__1NS_9allocatorIS4_EEFvvEEclEv
2572:__ZNKSt3__210__function6__funcIZN9Inspector21InspectorRuntimeAgent34setControlFlowProfilerEnabledStateEbE3__1NS_9allocatorIS4_EEFvvEE6targetERKSt9type_info
2573:__ZNKSt3__210__function6__funcIZN9Inspector21InspectorRuntimeAgent34setControlFlowProfilerEnabledStateEbE3__1NS_9allocatorIS4_EEFvvEE11target_typeEv
2574:__ZNKSt3__210__function6__funcIZN9Inspector21InspectorRuntimeAgent27setTypeProfilerEnabledStateEbE3__0NS_9allocatorIS4_EEFvvEE7__cloneEv
2575:__ZNKSt3__210__function6__funcIZN9Inspector21InspectorRuntimeAgent27setTypeProfilerEnabledStateEbE3__0NS_9allocatorIS4_EEFvvEE7__cloneEPNS0_6__baseIS7_EE
2576:__ZNSt3__210__function6__funcIZN9Inspector21InspectorRuntimeAgent27setTypeProfilerEnabledStateEbE3__0NS_9allocatorIS4_EEFvvEEclEv
2577:__ZNKSt3__210__function6__funcIZN9Inspector21InspectorRuntimeAgent27setTypeProfilerEnabledStateEbE3__0NS_9allocatorIS4_EEFvvEE6targetERKSt9type_info
2578:__ZNKSt3__210__function6__funcIZN9Inspector21InspectorRuntimeAgent27setTypeProfilerEnabledStateEbE3__0NS_9allocatorIS4_EEFvvEE11target_typeEv
2579:__ZN9Inspector8Protocol7Runtime10BasicBlock7BuilderILi0EE14setStartOffsetEi
2580:__ZN9Inspector8Protocol7Runtime10BasicBlock7BuilderILi1EE12setEndOffsetEi
2581:__ZN9Inspector8Protocol7Runtime10BasicBlock7BuilderILi3EE14setHasExecutedEb
2582:__ZN9Inspector8Protocol7Runtime10BasicBlock7BuilderILi7EE17setExecutionCountEi
2583:__ZN9Inspector8Protocol7Runtime15TypeDescription7BuilderILi0EE10setIsValidEb
2584:__ZN9Inspector8Protocol7Runtime15TypeDescription22setLeastCommonAncestorERKN3WTF6StringE
2585:__ZN9Inspector8Protocol7Runtime15TypeDescription13setStructuresEN3WTF6RefPtrINS0_5ArrayINS1_20StructureDescriptionEEEEE
2586:__ZN9Inspector8Protocol7Runtime15TypeDescription10setTypeSetEN3WTF6RefPtrINS1_7TypeSetEEE
2587:__ZN9Inspector8Protocol7Runtime15TypeDescription14setIsTruncatedEb
2588:__ZN9Inspector21InspectorRuntimeAgentC2ERNS_12AgentContextE
2589:__ZN9Inspector28InspectorScriptProfilerAgentD2Ev
2590:__ZN9Inspector28InspectorScriptProfilerAgentD0Ev
2591:__ZN9Inspector28InspectorScriptProfilerAgent29willDestroyFrontendAndBackendENS_16DisconnectReasonE
2592:__ZN9Inspector28InspectorScriptProfilerAgent13startTrackingERN3WTF6StringEPKb
2593:__ZN9Inspector28InspectorScriptProfilerAgent12stopTrackingERN3WTF6StringE
2594:__ZNK9Inspector28InspectorScriptProfilerAgent18isAlreadyProfilingEv
2595:__ZN9Inspector28InspectorScriptProfilerAgent18willEvaluateScriptEv
2596:__ZN9Inspector28InspectorScriptProfilerAgent17didEvaluateScriptEdN3JSC15ProfilingReasonE
2597:__ZThn8_N9Inspector28InspectorScriptProfilerAgent13startTrackingERN3WTF6StringEPKb
2598:__ZThn8_N9Inspector28InspectorScriptProfilerAgent12stopTrackingERN3WTF6StringE
2599:__ZThn8_N9Inspector28InspectorScriptProfilerAgentD1Ev
2600:__ZThn8_N9Inspector28InspectorScriptProfilerAgentD0Ev
2601:__ZThn12_N9Inspector28InspectorScriptProfilerAgentD1Ev
2602:__ZThn12_N9Inspector28InspectorScriptProfilerAgentD0Ev
2603:__ZThn12_NK9Inspector28InspectorScriptProfilerAgent18isAlreadyProfilingEv
2604:__ZThn12_N9Inspector28InspectorScriptProfilerAgent18willEvaluateScriptEv
2605:__ZThn12_N9Inspector28InspectorScriptProfilerAgent17didEvaluateScriptEdN3JSC15ProfilingReasonE
2606:__ZN9Inspector28InspectorScriptProfilerAgent8addEventEddN3JSC15ProfilingReasonE
2607:__ZN9Inspector28InspectorScriptProfilerAgentC2ERNS_12AgentContextE
2608:__ZN9Inspector26JSGlobalObjectConsoleAgentD0Ev
2609:__ZN9Inspector26JSGlobalObjectConsoleAgent23setMonitoringXHREnabledERN3WTF6StringEb
2610:__ZThn8_N9Inspector26JSGlobalObjectConsoleAgent23setMonitoringXHREnabledERN3WTF6StringEb
2611:__ZThn8_N9Inspector26JSGlobalObjectConsoleAgentD0Ev
2612:__ZN9Inspector27JSGlobalObjectDebuggerAgentD0Ev
2613:__ZN9Inspector27JSGlobalObjectDebuggerAgent21injectedScriptForEvalERN3WTF6StringEPKi
2614:__ZN9Inspector27JSGlobalObjectDebuggerAgent19breakpointActionLogERN3JSC9ExecStateERKN3WTF6StringE
2615:__ZThn8_N9Inspector27JSGlobalObjectDebuggerAgentD0Ev
2616:__ZThn8_N9Inspector27JSGlobalObjectDebuggerAgent19breakpointActionLogERN3JSC9ExecStateERKN3WTF6StringE
2617:__ZThn12_N9Inspector27JSGlobalObjectDebuggerAgentD0Ev
2618:__ZN9Inspector27JSGlobalObjectDebuggerAgentC2ERNS_14JSAgentContextEPNS_21InspectorConsoleAgentE
2619:__ZN9Inspector26JSGlobalObjectRuntimeAgentD2Ev
2620:__ZN9Inspector26JSGlobalObjectRuntimeAgentD0Ev
2621:__ZN9Inspector26JSGlobalObjectRuntimeAgent21injectedScriptForEvalERN3WTF6StringEPKi
2622:__ZThn8_N9Inspector26JSGlobalObjectRuntimeAgentD1Ev
2623:__ZThn8_N9Inspector26JSGlobalObjectRuntimeAgentD0Ev
2624:__ZN9Inspector26JSGlobalObjectRuntimeAgentC2ERNS_14JSAgentContextE
2625:__ZN9Inspector15RemoteInspector9singletonEv
2626:__ZN9Inspector24RemoteControllableTargetD2Ev
2627:__ZNK9Inspector22RemoteInspectionTarget20remoteControlAllowedEv
2628:__ZNK9Inspector22RemoteInspectionTarget3urlEv
2629:__ZN9Inspector22RemoteInspectionTarget34pauseWaitingForAutomaticInspectionEv
2630:__ZN9Inspector22RemoteInspectionTarget30unpauseForInitializedInspectorEv
2631:__ZN9Inspector22RemoteInspectionTarget25setRemoteDebuggingAllowedEb
2632:__ZN9Inspector15RemoteInspector29nextAvailableTargetIdentifierEv
2633:__ZN9Inspector15RemoteInspector14registerTargetEPNS_24RemoteControllableTargetE
2634:__ZN3WTF7HashMapIjPN9Inspector24RemoteControllableTargetENS_7IntHashIjEENS_10HashTraitsIjEENS6_IS3_EEE9inlineSetIRKjRS3_EENS_18HashTableAddResultINS_17HashTableIteratorIjNS_12KeyValuePairIjS3_EENS_24KeyValuePairKeyExtractorISH_EES5_NS9_18KeyValuePairTraitsES7_EEEEOT_OT0_
2635:__ZN9Inspector15RemoteInspector16unregisterTargetEPNS_24RemoteControllableTargetE
2636:__ZN3WTF7HashMapIjPN9Inspector24RemoteControllableTargetENS_7IntHashIjEENS_10HashTraitsIjEENS6_IS3_EEE6removeERKj
2637:__ZN3WTF7HashMapIjNS_6RefPtrIN9Inspector24RemoteConnectionToTargetEEENS_7IntHashIjEENS_10HashTraitsIjEENS7_IS4_EEE4takeERKj
2638:__ZN3WTF9HashTableIjNS_12KeyValuePairIjNS_6RefPtrIN9Inspector24RemoteConnectionToTargetEEEEENS_24KeyValuePairKeyExtractorIS6_EENS_7IntHashIjEENS_7HashMapIjS5_SA_NS_10HashTraitsIjEENSC_IS5_EEE18KeyValuePairTraitsESD_E6rehashEjPS6_
2639:__ZN9Inspector15RemoteInspector12updateTargetEPNS_24RemoteControllableTargetE
2640:__ZN9Inspector15RemoteInspector14setupCompletedEj
2641:__ZN9Inspector15RemoteInspector29waitingForAutomaticInspectionEj
2642:__ZN3JSC10CLoopStackC2ERNS_2VME
2643:__ZN3JSC10CLoopStackD2Ev
2644:__ZN3JSC10CLoopStack4growEPNS_8RegisterE
2645:__ZN3JSC10CLoopStack23gatherConservativeRootsERNS_17ConservativeRootsERNS_17JITStubRoutineSetERNS_12CodeBlockSetE
2646:__ZN3JSC10CLoopStack13sanitizeStackEv
2647:__ZN3JSC10CLoopStack23setSoftReservedZoneSizeEm
2648:__ZNK3JSC10CLoopStack15isSafeToRecurseEv
2649:__ZN3JSC9ExecState14initGlobalExecEPS0_PNS_8JSCalleeE
2650:__ZNK3JSC9ExecState29callSiteBitsAreBytecodeOffsetEv
2651:__ZNK3JSC9ExecState13callSiteIndexEv
2652:__ZN3JSC9ExecState13setCurrentVPCEPNS_11InstructionE
2653:__ZN3JSC9ExecState14bytecodeOffsetEv
2654:__ZN3JSC9ExecState10codeOriginEv
2655:__ZN3JSC9ExecState18topOfFrameInternalEv
2656:__ZN3JSC9ExecState19vmEntryGlobalObjectEv
2657:__ZN3JSC9ExecState19vmEntryGlobalObjectERNS_2VME
2658:__ZN3JSC9ExecState28wasmAwareLexicalGlobalObjectERNS_2VME
2659:__ZN3JSC9ExecState15isAnyWasmCalleeEv
2660:__ZN3JSC9ExecState11callerFrameERPNS_12VMEntryFrameE
2661:__ZN3JSC9ExecState18callerSourceOriginEv
2662:__ZN3JSC9ExecState20friendlyFunctionNameEv
2663:__ZN3JSC4evalEPNS_9ExecStateE
2664:__ZN3JSC19DirectEvalCodeCache6tryGetERKN3WTF6StringENS_13CallSiteIndexE
2665:__ZN3JSC11Interpreter7executeEPNS_14EvalExecutableEPNS_9ExecStateENS_7JSValueEPNS_7JSScopeE
2666:__ZN3JSC13sizeOfVarargsEPNS_9ExecStateENS_7JSValueEj
2667:__ZN3JSC28sizeFrameForForwardArgumentsEPNS_9ExecStateERNS_2VMEj
2668:__ZN3JSC19sizeFrameForVarargsEPNS_9ExecStateERNS_2VMENS_7JSValueEjj
2669:__ZN3JSC11loadVarargsEPNS_9ExecStateENS_15VirtualRegisterENS_7JSValueEjj
2670:__ZN3JSC27setupVarargsFrameAndSetThisEPNS_9ExecStateES1_NS_7JSValueES2_jj
2671:__ZN3JSC36setupForwardArgumentsFrameAndSetThisEPNS_9ExecStateES1_NS_7JSValueEj
2672:__ZN3JSC11Interpreter13getStackTraceERN3WTF6VectorINS_10StackFrameELm0ENS1_15CrashOnOverflowELm16EEEmm
2673:__ZNK3JSC20GetStackTraceFunctorclERNS_12StackVisitorE
2674:__ZN3JSC10StackFrameC2EOS0_
2675:__ZN3WTF6VectorIN3JSC10StackFrameELm0ENS_15CrashOnOverflowELm16EE14appendSlowCaseIS2_EEvOT_
2676:__ZN3JSC10StackFrameC2ERNS_2VMEPNS_6JSCellEPNS_9CodeBlockEj
2677:__ZN3WTF6VectorIN3JSC10StackFrameELm0ENS_15CrashOnOverflowELm16EE15reserveCapacityEm
2678:__ZN3JSC11Interpreter18stackTraceAsStringERNS_2VMERKN3WTF6VectorINS_10StackFrameELm0ENS3_15CrashOnOverflowELm16EEE
2679:__ZN3JSC11Interpreter6unwindERNS_2VMERPNS_9ExecStateEPNS_9ExceptionENS_11UnwindStartE
2680:__ZNK3JSC13UnwindFunctorclERNS_12StackVisitorE
2681:__ZN3JSC11Interpreter35notifyDebuggerOfExceptionToBeThrownERNS_2VMEPNS_9ExecStateEPNS_9ExceptionE
2682:__ZN3JSC11Interpreter14executeProgramERKNS_10SourceCodeEPNS_9ExecStateEPNS_8JSObjectE
2683:__ZN3JSC23jsSingleCharacterStringEPNS_9ExecStateEt
2684:__ZN3WTF6VectorIN3JSC9JSONPDataELm0ENS_15CrashOnOverflowELm16EED2Ev
2685:__ZN3JSC11Interpreter11executeCallEPNS_9ExecStateEPNS_8JSObjectENS_8CallTypeERKNS_8CallDataENS_7JSValueERKNS_7ArgListE
2686:__ZN3JSC11Interpreter16executeConstructEPNS_9ExecStateEPNS_8JSObjectENS_13ConstructTypeERKNS_13ConstructDataERKNS_7ArgListENS_7JSValueE
2687:__ZN3JSC11Interpreter20prepareForRepeatCallEPNS_18FunctionExecutableEPNS_9ExecStateEPNS_14ProtoCallFrameEPNS_10JSFunctionEiPNS_7JSScopeERKNS_7ArgListE
2688:__ZN3JSC11Interpreter7executeERNS_16CallFrameClosureE
2689:__ZN3JSC11Interpreter7executeEPNS_23ModuleProgramExecutableEPNS_9ExecStateEPNS_19JSModuleEnvironmentE
2690:__ZN3JSC11Interpreter5debugEPNS_9ExecStateENS_13DebugHookTypeE
2691:__ZN3JSC14ProtoCallFrame4initEPNS_9CodeBlockEPNS_8JSObjectENS_7JSValueEiPS5_
2692:__ZN3JSC13ShadowChickenC2Ev
2693:__ZN3JSC13ShadowChickenD2Ev
2694:__ZN3JSC13ShadowChicken3logERNS_2VMEPNS_9ExecStateERKNS0_6PacketE
2695:__ZN3JSC13ShadowChicken6updateERNS_2VMEPNS_9ExecStateE
2696:__ZN3WTF6VectorIN3JSC13ShadowChicken5FrameELm0ENS_15CrashOnOverflowELm16EE14expandCapacityEmPS3_
2697:__ZN3WTF6VectorIN3JSC13ShadowChicken5FrameELm0ENS_15CrashOnOverflowELm16EE6resizeEm
2698:__ZN3JSC13ShadowChicken13visitChildrenERNS_11SlotVisitorE
2699:__ZN3JSC13ShadowChicken16functionsOnStackEPNS_9ExecStateE
2700:__ZN3JSC12StackVisitorC2EPNS_9ExecStateEPNS_2VME
2701:__ZN3JSC12StackVisitor9readFrameEPNS_9ExecStateE
2702:__ZN3JSC12StackVisitor13gotoNextFrameEv
2703:__ZNK3JSC12StackVisitor5Frame11isWasmFrameEv
2704:__ZNK3JSC12StackVisitor5Frame8codeTypeEv
2705:__ZNK3JSC12StackVisitor5Frame12functionNameEv
2706:__ZNK3JSC12StackVisitor5Frame9sourceURLEv
2707:__ZNK3JSC12StackVisitor5Frame8toStringEv
2708:__ZNK3JSC12StackVisitor5Frame20computeLineAndColumnERjS2_
2709:__ZN3JSC12StackVisitor5Frame8sourceIDEv
2710:__ZN3JSC12StackVisitor5Frame15createArgumentsEv
2711:__ZNK3JSC12StackVisitor5Frame4dumpERN3WTF11PrintStreamENS2_8IndenterENSt3__28functionIFvS4_EEE
2712:__ZN3WTF11PrintStream10atomicallyIZNS0_5printIJNS_8IndenterEA18_cmA2_cNS_10RawPointerES5_EEEvDpRKT_EUlRS0_E_EEvRKT_
2713:__ZN3WTF11PrintStream10atomicallyIZNS0_5printIJNS_8IndenterEA17_cjA5_cmA2_cEEEvDpRKT_EUlRS0_E_EEvRKT_
2714:__ZN3JSC7JITCode9dfgCommonEv
2715:__ZN3JSC18JITCodeWithCodeRefD2Ev
2716:__ZN3JSC18JITCodeWithCodeRef25executableAddressAtOffsetEm
2717:__ZN3JSC18JITCodeWithCodeRef8offsetOfEPv
2718:__ZN3JSC18JITCodeWithCodeRef4sizeEv
2719:__ZN3JSC18JITCodeWithCodeRef8containsEPv
2720:__ZN3JSC13DirectJITCodeD0Ev
2721:__ZN3JSC13DirectJITCode14addressForCallENS_14ArityCheckModeE
2722:__ZN3JSC13NativeJITCode14addressForCallENS_14ArityCheckModeE
2723:__ZN3JSC7JITCode7executeEPNS_2VMEPNS_14ProtoCallFrameE
2724:__ZN3JSC13DirectJITCodeC2ENS_21MacroAssemblerCodeRefENS_21MacroAssemblerCodePtrENS_7JITCode7JITTypeE
2725:__ZN3JSC13NativeJITCodeC2ENS_21MacroAssemblerCodeRefENS_7JITCode7JITTypeE
2726:__ZN3WTF13printInternalERNS_11PrintStreamEN3JSC7JITCode7JITTypeE
2727:__ZN3JSC13genericUnwindEPNS_2VMEPNS_9ExecStateENS_11UnwindStartE
2728:__ZN12GlobalObject24moduleLoaderImportModuleEPN3JSC14JSGlobalObjectEPNS0_9ExecStateEPNS0_14JSModuleLoaderEPNS0_8JSStringERKNS0_12SourceOriginE
2729:__ZN12GlobalObject19moduleLoaderResolveEPN3JSC14JSGlobalObjectEPNS0_9ExecStateEPNS0_14JSModuleLoaderENS0_7JSValueES7_S7_
2730:__ZN12GlobalObject17moduleLoaderFetchEPN3JSC14JSGlobalObjectEPNS0_9ExecStateEPNS0_14JSModuleLoaderENS0_7JSValueES7_
2731:__ZL28fillBufferWithContentsOfFileP8_IO_FILERN3WTF6VectorIcLm0ENS1_15CrashOnOverflowELm16EEE
2732:__ZL20extractDirectoryNameRKN3WTF6StringE
2733:__ZN10ModuleNameC2ERKN3WTF6StringE
2734:__ZL11resolvePathRK13DirectoryNameRK10ModuleName
2735:__ZN6WorkerC2ER7Workers
2736:__ZNSt3__217__call_once_proxyINS_5tupleIJOZN6Worker13currentWorkerEvE3__1EEEEEvPv
2737:__ZN3WTF14ThreadSpecificIP6WorkerLNS_13CanBeGCThreadE0EEcvPS2_Ev
2738:__ZN3WTF5DequeINS_6RefPtrI7MessageEELm0EE10destroyAllEv
2739:__ZN3WTF14ThreadSpecificIP6WorkerLNS_13CanBeGCThreadE0EE7destroyEPv
2740:__ZN6WorkerD2Ev
2741:__ZN3WTF5DequeINS_6RefPtrI7MessageEELm0EE14expandCapacityEv
2742:__ZN6Worker7dequeueEv
2743:__ZN7Workers6reportEN3WTF6StringE
2744:__ZN7Workers12tryGetReportEv
2745:__ZN7Workers9getReportEv
2746:__ZNSt3__217__call_once_proxyINS_5tupleIJOZN7Workers9singletonEvE3__2EEEEEvPv
2747:__Z7jscmainiPPc
2748:__ZN12_GLOBAL__N_17jscExitEi
2749:__ZN11CommandLineC2EiPPc
2750:__ZL26startTimeoutThreadIfNeededv
2751:__ZN11CommandLineC2ERKS_
2752:__ZN12GlobalObject14finishCreationERN3JSC2VMERKN3WTF6VectorINS3_6StringELm0ENS3_15CrashOnOverflowELm16EEE
2753:__ZL28fillBufferWithContentsOfFileRKN3WTF6StringERNS_6VectorIcLm0ENS_15CrashOnOverflowELm16EEE
2754:__ZL9jscSourceIN3WTF6VectorIcLm0ENS0_15CrashOnOverflowELm16EEEEN3JSC10SourceCodeERKT_RKNS4_12SourceOriginERKNS0_6StringE
2755:__ZL14checkExceptionP12GlobalObjectbbN3JSC7JSValueERKN3WTF6StringEbbRb
2756:__ZL14runInteractiveP12GlobalObject
2757:__ZN11CommandLineD2Ev
2758:__ZL13dumpExceptionP12GlobalObjectN3JSC7JSValueE
2759:__ZNKSt3__210__function6__funcIZL14runWithScriptsP12GlobalObjectRKN3WTF6VectorI6ScriptLm0ENS4_15CrashOnOverflowELm16EEERKNS4_6StringEbbbE3__9NS_9allocatorISE_EEFxPN3JSC9ExecStateEEE7__cloneEv
2760:__ZNKSt3__210__function6__funcIZL14runWithScriptsP12GlobalObjectRKN3WTF6VectorI6ScriptLm0ENS4_15CrashOnOverflowELm16EEERKNS4_6StringEbbbE3__9NS_9allocatorISE_EEFxPN3JSC9ExecStateEEE7__cloneEPNS0_6__baseISK_EE
2761:__ZNSt3__210__function6__funcIZL14runWithScriptsP12GlobalObjectRKN3WTF6VectorI6ScriptLm0ENS4_15CrashOnOverflowELm16EEERKNS4_6StringEbbbE3__9NS_9allocatorISE_EEFxPN3JSC9ExecStateEEEclEOSJ_
2762:__ZNKSt3__210__function6__funcIZL14runWithScriptsP12GlobalObjectRKN3WTF6VectorI6ScriptLm0ENS4_15CrashOnOverflowELm16EEERKNS4_6StringEbbbE3__9NS_9allocatorISE_EEFxPN3JSC9ExecStateEEE6targetERKSt9type_info
2763:__ZNKSt3__210__function6__funcIZL14runWithScriptsP12GlobalObjectRKN3WTF6VectorI6ScriptLm0ENS4_15CrashOnOverflowELm16EEERKNS4_6StringEbbbE3__9NS_9allocatorISE_EEFxPN3JSC9ExecStateEEE11target_typeEv
2764:__ZNKSt3__210__function6__funcIZL14runWithScriptsP12GlobalObjectRKN3WTF6VectorI6ScriptLm0ENS4_15CrashOnOverflowELm16EEERKNS4_6StringEbbbE3__8NS_9allocatorISE_EEFxPN3JSC9ExecStateEEE7__cloneEv
2765:__ZNKSt3__210__function6__funcIZL14runWithScriptsP12GlobalObjectRKN3WTF6VectorI6ScriptLm0ENS4_15CrashOnOverflowELm16EEERKNS4_6StringEbbbE3__8NS_9allocatorISE_EEFxPN3JSC9ExecStateEEE7__cloneEPNS0_6__baseISK_EE
2766:__ZNSt3__210__function6__funcIZL14runWithScriptsP12GlobalObjectRKN3WTF6VectorI6ScriptLm0ENS4_15CrashOnOverflowELm16EEERKNS4_6StringEbbbE3__8NS_9allocatorISE_EEFxPN3JSC9ExecStateEEEclEOSJ_
2767:__ZNKSt3__210__function6__funcIZL14runWithScriptsP12GlobalObjectRKN3WTF6VectorI6ScriptLm0ENS4_15CrashOnOverflowELm16EEERKNS4_6StringEbbbE3__8NS_9allocatorISE_EEFxPN3JSC9ExecStateEEE6targetERKSt9type_info
2768:__ZNKSt3__210__function6__funcIZL14runWithScriptsP12GlobalObjectRKN3WTF6VectorI6ScriptLm0ENS4_15CrashOnOverflowELm16EEERKNS4_6StringEbbbE3__8NS_9allocatorISE_EEFxPN3JSC9ExecStateEEE11target_typeEv
2769:__ZL13functionDebugPN3JSC9ExecStateE
2770:__ZN12GlobalObject11addFunctionERN3JSC2VMEPNS0_8JSObjectEPKcPFxPNS0_9ExecStateEEj
2771:__ZL16functionDescribePN3JSC9ExecStateE
2772:__ZL21functionDescribeArrayPN3JSC9ExecStateE
2773:__ZL19functionPrintStdOutPN3JSC9ExecStateE
2774:__ZL19functionPrintStdErrPN3JSC9ExecStateE
2775:__ZL12functionQuitPN3JSC9ExecStateE
2776:__ZL13functionAbortPN3JSC9ExecStateE
2777:__ZL18functionGCAndSweepPN3JSC9ExecStateE
2778:__ZL14functionFullGCPN3JSC9ExecStateE
2779:__ZL14functionEdenGCPN3JSC9ExecStateE
2780:__ZL24functionForceGCSlowPathsPN3JSC9ExecStateE
2781:__ZL16functionHeapSizePN3JSC9ExecStateE
2782:__ZL17functionAddressOfPN3JSC9ExecStateE
2783:__ZL23functionGetGetterSetterPN3JSC9ExecStateE
2784:__ZL15functionVersionPN3JSC9ExecStateE
2785:__ZL11functionRunPN3JSC9ExecStateE
2786:__ZL17functionRunStringPN3JSC9ExecStateE
2787:__ZL12functionLoadPN3JSC9ExecStateE
2788:__ZL18functionLoadStringPN3JSC9ExecStateE
2789:__ZL16functionReadFilePN3JSC9ExecStateE
2790:__ZL19functionCheckSyntaxPN3JSC9ExecStateE
2791:__ZL20functionSleepSecondsPN3JSC9ExecStateE
2792:__ZL16functionJSCStackPN3JSC9ExecStateE
2793:__ZL16functionReadlinePN3JSC9ExecStateE
2794:__ZL19functionPreciseTimePN3JSC9ExecStateE
2795:__ZL27functionNeverInlineFunctionPN3JSC9ExecStateE
2796:__ZL13functionNoDFGPN3JSC9ExecStateE
2797:__ZL13functionNoFTLPN3JSC9ExecStateE
2798:__ZL24functionNoOSRExitFuzzingPN3JSC9ExecStateE
2799:__ZL27functionNumberOfDFGCompilesPN3JSC9ExecStateE
2800:__ZL18functionJSCOptionsPN3JSC9ExecStateE
2801:__ZL30functionOptimizeNextInvocationPN3JSC9ExecStateE
2802:__ZL32functionReoptimizationRetryCountPN3JSC9ExecStateE
2803:__ZL27functionTransferArrayBufferPN3JSC9ExecStateE
2804:__ZL28functionFailNextNewCodeBlockPN3JSC9ExecStateE
2805:__ZL37functionShadowChickenFunctionsOnStackPN3JSC9ExecStateE
2806:__ZL49functionSetGlobalConstRedeclarationShouldNotThrowPN3JSC9ExecStateE
2807:__ZL18functionCreateRootPN3JSC9ExecStateE
2808:__ZN12GlobalObject24addConstructableFunctionERN3JSC2VMEPKcPFxPNS0_9ExecStateEEj
2809:__ZL21functionCreateElementPN3JSC9ExecStateE
2810:__ZL18functionGetElementPN3JSC9ExecStateE
2811:__ZL22functionSetElementRootPN3JSC9ExecStateE
2812:__ZL26functionCreateSimpleObjectPN3JSC9ExecStateE
2813:__ZL22functionGetHiddenValuePN3JSC9ExecStateE
2814:__ZL22functionSetHiddenValuePN3JSC9ExecStateE
2815:__ZL14functionFalse1PN3JSC9ExecStateE
2816:__ZL15functionIsInt32PN3JSC9ExecStateE
2817:__ZL16functionIdentityPN3JSC9ExecStateE
2818:__ZL19functionEffectful42PN3JSC9ExecStateE
2819:__ZL23functionMakeMasqueraderPN3JSC9ExecStateE
2820:__ZL27functionHasCustomPropertiesPN3JSC9ExecStateE
2821:__ZL19functionCreateProxyPN3JSC9ExecStateE
2822:__ZL26functionCreateRuntimeArrayPN3JSC9ExecStateE
2823:__ZL26functionCreateImpureGetterPN3JSC9ExecStateE
2824:__ZL32functionCreateCustomGetterObjectPN3JSC9ExecStateE
2825:__ZL30functionCreateDOMJITNodeObjectPN3JSC9ExecStateE
2826:__ZL32functionCreateDOMJITGetterObjectPN3JSC9ExecStateE
2827:__ZL39functionCreateDOMJITGetterComplexObjectPN3JSC9ExecStateE
2828:__ZL34functionCreateDOMJITFunctionObjectPN3JSC9ExecStateE
2829:__ZL21functionCreateBuiltinPN3JSC9ExecStateE
2830:__ZL26functionCreateGlobalObjectPN3JSC9ExecStateE
2831:__ZL31functionSetImpureGetterDelegatePN3JSC9ExecStateE
2832:__ZL32functionDumpTypesForAllVariablesPN3JSC9ExecStateE
2833:__ZL29functionFindTypeForExpressionPN3JSC9ExecStateE
2834:__ZL21functionReturnTypeForPN3JSC9ExecStateE
2835:__ZL37functionDumpBasicBlockExecutionRangesPN3JSC9ExecStateE
2836:__ZL29functionHasBasicBlockExecutedPN3JSC9ExecStateE
2837:__ZL32functionBasicBlockExecutionCountPN3JSC9ExecStateE
2838:__ZL27functionEnableExceptionFuzzPN3JSC9ExecStateE
2839:__ZL23functionDrainMicrotasksPN3JSC9ExecStateE
2840:__ZL21functionGetRandomSeedPN3JSC9ExecStateE
2841:__ZL21functionSetRandomSeedPN3JSC9ExecStateE
2842:__ZL14functionIsRopePN3JSC9ExecStateE
2843:__ZL26functionCallerSourceOriginPN3JSC9ExecStateE
2844:__ZL29functionGlobalObjectForObjectPN3JSC9ExecStateE
2845:__ZL23functionIs32BitPlatformPN3JSC9ExecStateE
2846:__ZL18functionLoadModulePN3JSC9ExecStateE
2847:__ZL25functionCheckModuleSyntaxPN3JSC9ExecStateE
2848:__ZL28functionGenerateHeapSnapshotPN3JSC9ExecStateE
2849:__ZL30functionResetSuperSamplerStatePN3JSC9ExecStateE
2850:__ZL26functionEnsureArrayStoragePN3JSC9ExecStateE
2851:__ZL20functionMaxArgumentsPN3JSC9ExecStateE
2852:__ZL22functionAsyncTestStartPN3JSC9ExecStateE
2853:__ZL23functionAsyncTestPassedPN3JSC9ExecStateE
2854:__ZL25functionDollarCreateRealmPN3JSC9ExecStateE
2855:__ZL31functionDollarDetachArrayBufferPN3JSC9ExecStateE
2856:__ZL24functionDollarEvalScriptPN3JSC9ExecStateE
2857:__ZL24functionDollarAgentStartPN3JSC9ExecStateE
2858:__ZL35functionDollarAgentReceiveBroadcastPN3JSC9ExecStateE
2859:__ZL25functionDollarAgentReportPN3JSC9ExecStateE
2860:__ZL24functionDollarAgentSleepPN3JSC9ExecStateE
2861:__ZL28functionDollarAgentBroadcastPN3JSC9ExecStateE
2862:__ZL28functionDollarAgentGetReportPN3JSC9ExecStateE
2863:__ZL21functionWaitForReportPN3JSC9ExecStateE
2864:__ZL20functionHeapCapacityPN3JSC9ExecStateE
2865:__ZL23functionFlashHeapAccessPN3JSC9ExecStateE
2866:__ZNSt3__210__function6__funcIZL24functionDollarAgentStartPN3JSC9ExecStateEE3__5NS_9allocatorIS5_EEFvvEED2Ev
2867:__ZNSt3__210__function6__funcIZL24functionDollarAgentStartPN3JSC9ExecStateEE3__5NS_9allocatorIS5_EEFvvEED0Ev
2868:__ZNKSt3__210__function6__funcIZL24functionDollarAgentStartPN3JSC9ExecStateEE3__5NS_9allocatorIS5_EEFvvEE7__cloneEv
2869:__ZNKSt3__210__function6__funcIZL24functionDollarAgentStartPN3JSC9ExecStateEE3__5NS_9allocatorIS5_EEFvvEE7__cloneEPNS0_6__baseIS8_EE
2870:__ZNSt3__210__function6__funcIZL24functionDollarAgentStartPN3JSC9ExecStateEE3__5NS_9allocatorIS5_EEFvvEE7destroyEv
2871:__ZNSt3__210__function6__funcIZL24functionDollarAgentStartPN3JSC9ExecStateEE3__5NS_9allocatorIS5_EEFvvEE18destroy_deallocateEv
2872:__ZNSt3__210__function6__funcIZL24functionDollarAgentStartPN3JSC9ExecStateEE3__5NS_9allocatorIS5_EEFvvEEclEv
2873:__ZNKSt3__210__function6__funcIZL24functionDollarAgentStartPN3JSC9ExecStateEE3__5NS_9allocatorIS5_EEFvvEE6targetERKSt9type_info
2874:__ZNKSt3__210__function6__funcIZL24functionDollarAgentStartPN3JSC9ExecStateEE3__5NS_9allocatorIS5_EEFvvEE11target_typeEv
2875:__ZN3JSC12throwVMErrorEPNS_9ExecStateERNS_10ThrowScopeEPKc
2876:__ZN3WTF8toStringIJA14_cNS_6StringEA2_ciEEES2_DpRKT_
2877:__ZNKSt3__210__function6__funcIZL18functionLoadModulePN3JSC9ExecStateEE3__7NS_9allocatorIS5_EEFxS4_EE7__cloneEv
2878:__ZNKSt3__210__function6__funcIZL18functionLoadModulePN3JSC9ExecStateEE3__7NS_9allocatorIS5_EEFxS4_EE7__cloneEPNS0_6__baseIS8_EE
2879:__ZNSt3__210__function6__funcIZL18functionLoadModulePN3JSC9ExecStateEE3__7NS_9allocatorIS5_EEFxS4_EEclEOS4_
2880:__ZNKSt3__210__function6__funcIZL18functionLoadModulePN3JSC9ExecStateEE3__7NS_9allocatorIS5_EEFxS4_EE6targetERKSt9type_info
2881:__ZNKSt3__210__function6__funcIZL18functionLoadModulePN3JSC9ExecStateEE3__7NS_9allocatorIS5_EEFxS4_EE11target_typeEv
2882:__ZN12_GLOBAL__N_112ImpureGetter13visitChildrenEPN3JSC6JSCellERNS1_11SlotVisitorE
2883:__ZN12_GLOBAL__N_112ImpureGetter18getOwnPropertySlotEPN3JSC8JSObjectEPNS1_9ExecStateENS1_12PropertyNameERNS1_12PropertySlotE
2884:__ZN12_GLOBAL__N_120DOMJITFunctionObject12safeFunctionEPN3JSC9ExecStateE
2885:__ZN12_GLOBAL__N_119DOMJITGetterComplex12customGetterEPN3JSC9ExecStateExNS1_12PropertyNameE
2886:__ZN12_GLOBAL__N_119DOMJITGetterComplex23functionEnableExceptionEPN3JSC9ExecStateE
2887:__ZN12_GLOBAL__N_112DOMJITGetter6createERN3JSC2VMEPNS1_9StructureE
2888:__ZN12_GLOBAL__N_112DOMJITGetter12customGetterEPN3JSC9ExecStateExNS1_12PropertyNameE
2889:__ZN12_GLOBAL__N_112CustomGetter18getOwnPropertySlotEPN3JSC8JSObjectEPNS1_9ExecStateENS1_12PropertyNameERNS1_12PropertySlotE
2890:__ZN12_GLOBAL__N_112CustomGetter12customGetterEPN3JSC9ExecStateExNS1_12PropertyNameE
2891:__ZN12_GLOBAL__N_112CustomGetter19customGetterAcessorEPN3JSC9ExecStateExNS1_12PropertyNameE
2892:__ZN3WTF6VectorIiLm0ENS_15CrashOnOverflowELm16EE6appendEOi
2893:__ZN12_GLOBAL__N_112RuntimeArray7destroyEPN3JSC6JSCellE
2894:__ZN12_GLOBAL__N_112RuntimeArray3putEPN3JSC6JSCellEPNS1_9ExecStateENS1_12PropertyNameENS1_7JSValueERNS1_15PutPropertySlotE
2895:__ZN12_GLOBAL__N_112RuntimeArray18getOwnPropertySlotEPN3JSC8JSObjectEPNS1_9ExecStateENS1_12PropertyNameERNS1_12PropertySlotE
2896:__ZN12_GLOBAL__N_112RuntimeArray25getOwnPropertySlotByIndexEPN3JSC8JSObjectEPNS1_9ExecStateEjRNS1_12PropertySlotE
2897:__ZN12_GLOBAL__N_112RuntimeArray12lengthGetterEPN3JSC9ExecStateExNS1_12PropertyNameE
2898:__ZN12_GLOBAL__N_112SimpleObject13visitChildrenEPN3JSC6JSCellERNS1_11SlotVisitorE
2899:__ZN12_GLOBAL__N_14Root13visitChildrenEPN3JSC6JSCellERNS1_11SlotVisitorE
2900:__ZN12_GLOBAL__N_118ElementHandleOwner26isReachableFromOpaqueRootsEN3JSC6HandleINS1_7UnknownEEEPvRNS1_11SlotVisitorE
2901:__ZN3WTF6VectorIcLm256ENS_15CrashOnOverflowELm16EE14expandCapacityEmPc
2902:__ZNK23FunctionJSCStackFunctorclERN3JSC12StackVisitorE
2903:__ZN3WTF8FunctionIFvPvEE15CallableWrapperIZL16functionReadFilePN3JSC9ExecStateEE3__4E4callES1_
2904:__ZL13printInternalPN3JSC9ExecStateEP8_IO_FILE
2905:__ZL17timeoutThreadMainPv
2906:__ZN3WTF7dataLogIJA17_cNS_7SecondsEA11_cEEEvDpRKT_
2907:__ZN11CommandLine14parseArgumentsEiPPc
2908:__ZL19printUsageStatementb
2909:__ZN3WTF6VectorINS_6StringELm0ENS_15CrashOnOverflowELm16EE14appendSlowCaseIRPcEEvOT_
2910:_main
2911:__Z14jsc_new_globalv
2912:_jsc_eval
2913:__ZN3WTFplINS_6StringEPKcS1_EENS_12StringAppendINS4_IT_T0_EET1_EERKS7_S8_
2914:__ZNK3WTF12StringAppendINS0_INS_6StringEPKcEES1_EcvS1_Ev
2915:__ZN3WTF25tryMakeStringFromAdaptersINS_17StringTypeAdapterINS_12StringAppendINS_6StringEPKcEEEEJNS1_IS3_EEEEES3_T_DpT0_
2916:__ZN3WTF21makeStringAccumulatorItNS_17StringTypeAdapterINS_12StringAppendINS_6StringEPKcEEEEJNS1_IS3_EEEEEvPT_T0_DpT1_
2917:__ZN3JSC5CLoop10initializeEv
2918:__ZN3JSC5LLInt10initializeEv
2919:__ZN3JSC5LLInt13setEntrypointERNS_2VMEPNS_9CodeBlockE
2920:_llint_replace
2921:_llint_stack_check
2922:_llint_slow_path_new_object
2923:_llint_slow_path_new_array
2924:__ZN3JSC29constructArrayNegativeIndexedEPNS_9ExecStateEPNS_22ArrayAllocationProfileEPNS_14JSGlobalObjectEPKNS_7JSValueEjS6_
2925:_llint_slow_path_new_array_with_size
2926:_llint_slow_path_new_array_buffer
2927:__ZN3JSC14constructArrayEPNS_9ExecStateEPNS_22ArrayAllocationProfileEPNS_14JSGlobalObjectEPKNS_7JSValueEjS6_
2928:_llint_slow_path_new_regexp
2929:_llint_slow_path_instanceof
2930:_llint_slow_path_instanceof_custom
2931:_llint_slow_path_try_get_by_id
2932:_llint_slow_path_get_by_id
2933:__ZN3WTF7HashMapIPN3JSC9StructureENS_3BagINS1_45LLIntPrototypeLoadAdaptiveStructureWatchpointEEENS_7PtrHashIS3_EENS_10HashTraitsIS3_EENS9_IS6_EEE3addIS6_EENS_18HashTableAddResultINS_17HashTableIteratorIS3_NS_12KeyValuePairIS3_S6_EENS_24KeyValuePairKeyExtractorISH_EES8_NSC_18KeyValuePairTraitsESA_EEEERKS3_OT_
2934:_llint_slow_path_put_by_id
2935:__ZN3JSC8JSObject17putDirectInternalILNS0_7PutModeE0EEEbRNS_2VMENS_12PropertyNameENS_7JSValueEjRNS_15PutPropertySlotE
2936:__ZNK3JSC9Structure14prototypeChainERNS_2VMEPNS_14JSGlobalObjectE
2937:__ZN3JSC14StructureChain14finishCreationERNS_2VMEPNS_9StructureE
2938:_llint_slow_path_del_by_id
2939:_llint_slow_path_get_by_val
2940:_llint_slow_path_put_by_val
2941:_llint_slow_path_put_by_val_direct
2942:_llint_slow_path_del_by_val
2943:_llint_slow_path_put_by_index
2944:_llint_slow_path_put_getter_by_id
2945:_llint_slow_path_put_setter_by_id
2946:_llint_slow_path_put_getter_setter_by_id
2947:__ZN3JSC12GetterSetterC2ERNS_2VMEPNS_14JSGlobalObjectE
2948:_llint_slow_path_put_getter_by_val
2949:_llint_slow_path_put_setter_by_val
2950:_llint_slow_path_jtrue
2951:_llint_slow_path_jfalse
2952:_llint_slow_path_jless
2953:__ZN3WTF16codePointCompareEPKNS_10StringImplES2_
2954:_llint_slow_path_jnless
2955:_llint_slow_path_jgreater
2956:_llint_slow_path_jngreater
2957:_llint_slow_path_jlesseq
2958:_llint_slow_path_jnlesseq
2959:_llint_slow_path_jgreatereq
2960:_llint_slow_path_jngreatereq
2961:_llint_slow_path_switch_imm
2962:_llint_slow_path_switch_char
2963:_llint_slow_path_switch_string
2964:_llint_slow_path_new_func
2965:_llint_slow_path_new_generator_func
2966:_llint_slow_path_new_async_func
2967:_llint_slow_path_new_func_exp
2968:_llint_slow_path_new_generator_func_exp
2969:_llint_slow_path_new_async_func_exp
2970:_llint_slow_path_set_function_name
2971:_llint_slow_path_call
2972:__ZN3JSC5LLInt9setUpCallEPNS_9ExecStateEPNS_11InstructionENS_22CodeSpecializationKindENS_7JSValueEPNS_17LLIntCallLinkInfoE
2973:_llint_slow_path_construct
2974:_llint_slow_path_size_frame_for_varargs
2975:_llint_slow_path_size_frame_for_forward_arguments
2976:_llint_slow_path_call_varargs
2977:__ZN3JSC5LLInt12varargsSetupEPNS_9ExecStateEPNS_11InstructionENS_22CodeSpecializationKindENS0_16SetArgumentsWithE
2978:_llint_slow_path_call_eval
2979:_llint_slow_path_throw
2980:_llint_slow_path_handle_traps
2981:_llint_slow_path_debug
2982:_llint_slow_path_handle_exception
2983:_llint_slow_path_get_from_scope
2984:__ZN3JSC15CommonSlowPaths26tryCacheGetFromScopeGlobalEPNS_9ExecStateERNS_2VMEPNS_11InstructionEPNS_8JSObjectERNS_12PropertySlotERKNS_10IdentifierE
2985:_llint_slow_path_put_to_scope
2986:__ZN3JSC15CommonSlowPaths24tryCachePutToScopeGlobalEPNS_9ExecStateEPNS_9CodeBlockEPNS_11InstructionEPNS_8JSObjectENS_10GetPutInfoERNS_15PutPropertySlotERKNS_10IdentifierE
2987:_llint_slow_path_check_if_exception_is_uncatchable_and_notify_profiler
2988:_llint_slow_path_log_shadow_chicken_prologue
2989:_llint_slow_path_log_shadow_chicken_tail
2990:_llint_throw_stack_overflow_error
2991:_llint_stack_check_at_vm_entry
2992:_llint_write_barrier_slow
2993:_vmEntryToJavaScript
2994:_vmEntryToNative
2995:_vmEntryRecord
2996:__ZN3JSC5CLoop7executeENS_8OpcodeIDEPvPNS_2VMEPNS_14ProtoCallFrameEb
2997:__ZN3JSC5LexerIhEC2EPNS_2VMENS_19JSParserBuiltinModeENS_18JSParserScriptModeE
2998:__ZN3JSC5LexerIhED2Ev
2999:__ZN3JSC5LexerIhE7setCodeERKNS_10SourceCodeEPNS_11ParserArenaE
3000:__ZN3JSC11ParserArena15identifierArenaEv
3001:__ZN3JSC15IdentifierArenaC2Ev
3002:__ZN3WTF15SegmentedVectorIN3JSC10IdentifierELm64EE17deleteAllSegmentsEv
3003:__ZN3JSC5LexerIhE3lexEPNS_7JSTokenEjb
3004:__ZN3WTF6VectorIhLm0ENS_15CrashOnOverflowELm16EE14expandCapacityEmPh
3005:__ZN3JSC5LexerIhE19parseStringSlowCaseILb0EEENS1_17StringParseResultEPNS_11JSTokenDataEb
3006:__ZN3JSC5LexerIhE19parseStringSlowCaseILb1EEENS1_17StringParseResultEPNS_11JSTokenDataEb
3007:__ZN3JSCL20isNonLatin1IdentPartEi
3008:__ZN3JSC5LexerIhE23parseIdentifierSlowCaseILb0EEENS_11JSTokenTypeEPNS_11JSTokenDataEjb
3009:__ZN3JSC5LexerIhE23parseIdentifierSlowCaseILb1EEENS_11JSTokenTypeEPNS_11JSTokenDataEjb
3010:__ZNK3JSC5LexerIhE23invalidCharacterMessageEv
3011:__ZN3WTF6VectorItLm0ENS_15CrashOnOverflowELm16EE6appendIhEEvPKT_m
3012:__ZN3JSC5LexerIhE18parseUnicodeEscapeEv
3013:__ZN3JSCL21isNonLatin1IdentStartEt
3014:__ZN3WTF6VectorItLm0ENS_15CrashOnOverflowELm16EE14expandCapacityEmPt
3015:__ZN3WTF6VectorItLm0ENS_15CrashOnOverflowELm16EE6appendItEEvPKT_m
3016:__ZN3JSC5LexerIhE8append16EPKhm
3017:__ZN3JSC5LexerIhE8record16Eh
3018:__ZN3JSC5LexerIhE16nextTokenIsColonEv
3019:__ZN3JSC5LexerIhE10scanRegExpEPNS_7JSTokenEt
3020:__ZN3WTF10makeStringIJPKcNS_10StringViewES2_EEENS_6StringEDpT_
3021:__ZN3JSC10Identifier20createLCharFromUCharEPNS_2VMEPKti
3022:__ZN3WTF25tryMakeStringFromAdaptersINS_17StringTypeAdapterIPKcEEJNS1_INS_10StringViewEEES4_EEENS_6StringET_DpT0_
3023:__ZN3JSC5LexerIhE18scanTemplateStringEPNS_7JSTokenENS1_19RawStringsBuildModeE
3024:__ZN3JSC5LexerIhE5clearEv
3025:__ZN3JSC5LexerIhE19lexExpectIdentifierEPNS_7JSTokenEjb
3026:__ZN3JSC5LexerItE7setCodeERKNS_10SourceCodeEPNS_11ParserArenaE
3027:__ZN3JSC5LexerItE3lexEPNS_7JSTokenEjb
3028:__ZN3JSC5LexerItE19parseStringSlowCaseILb0EEENS1_17StringParseResultEPNS_11JSTokenDataEb
3029:__ZN3JSC5LexerItE19parseStringSlowCaseILb1EEENS1_17StringParseResultEPNS_11JSTokenDataEb
3030:__ZN3JSC5LexerItE23parseIdentifierSlowCaseILb0EEENS_11JSTokenTypeEPNS_11JSTokenDataEjb
3031:__ZN3JSC5LexerItE23parseIdentifierSlowCaseILb1EEENS_11JSTokenTypeEPNS_11JSTokenDataEjb
3032:__ZNK3JSC5LexerItE23invalidCharacterMessageEv
3033:__ZN3JSC5LexerItE18parseUnicodeEscapeEv
3034:__ZN3JSC5LexerItE16nextTokenIsColonEv
3035:__ZN3JSC5LexerItE10scanRegExpEPNS_7JSTokenEt
3036:__ZN3JSC5LexerItE18scanTemplateStringEPNS_7JSTokenENS1_19RawStringsBuildModeE
3037:__ZN3JSC5LexerItE19lexExpectIdentifierEPNS_7JSTokenEjb
3038:__ZN3JSC14isLexerKeywordERKNS_10IdentifierE
3039:__ZN3JSC14ModuleAnalyzerC2EPNS_9ExecStateERKNS_10IdentifierERKNS_10SourceCodeERKNS_19VariableEnvironmentESB_
3040:__ZN3JSC14ModuleAnalyzer14exportVariableERNS_17ModuleProgramNodeERKN3WTF6RefPtrINS3_17UniquedStringImplEEERKNS_24VariableEnvironmentEntryE
3041:__ZNK3WTF7HashMapINS_6RefPtrINS_17UniquedStringImplEEENS_6VectorIS3_Lm0ENS_15CrashOnOverflowELm16EEEN3JSC17IdentifierRepHashENS_10HashTraitsIS3_EENS9_IS6_EEE9inlineGetIS3_EENSt3__29enable_ifIXsr10IsSmartPtrIT_EE5valueES6_E4typeENS_12GetPtrHelperISG_E7PtrTypeE
3042:__ZN3JSC20AbstractModuleRecord11ExportEntryD2Ev
3043:__ZN3JSC14ModuleAnalyzer7analyzeERNS_17ModuleProgramNodeE
3044:__ZN3JSC13StatementNode6setLocEjjii
3045:__ZN3JSC14SourceElements6appendEPNS_13StatementNodeE
3046:__ZNK3JSC14SourceElements15singleStatementEv
3047:__ZN3JSC9ScopeNodeC2ERNS_11ParserArenaERKNS_15JSTokenLocationES5_RKNS_10SourceCodeEPNS_14SourceElementsERNS_19VariableEnvironmentEON3WTF6VectorIPNS_20FunctionMetadataNodeELm0ENSD_15CrashOnOverflowELm16EEESC_ONSD_11SmallPtrSetIPNSD_17UniquedStringImplELj8EEEthi
3048:__ZN3JSC23VariableEnvironmentNodeC2ERNS_19VariableEnvironmentEON3WTF6VectorIPNS_20FunctionMetadataNodeELm0ENS3_15CrashOnOverflowELm16EEE
3049:__ZNK3JSC9ScopeNode15singleStatementEv
3050:__ZN3JSC11ProgramNodeC2ERNS_11ParserArenaERKNS_15JSTokenLocationES5_jjPNS_14SourceElementsERNS_19VariableEnvironmentEON3WTF6VectorIPNS_20FunctionMetadataNodeELm0ENSA_15CrashOnOverflowELm16EEES9_ONSA_11SmallPtrSetIPNSA_17UniquedStringImplELj8EEEPNS_18FunctionParametersERKNS_10SourceCodeEthiONSA_6RefPtrINS_15ModuleScopeDataEEE
3051:__ZN3JSC17ModuleProgramNodeC2ERNS_11ParserArenaERKNS_15JSTokenLocationES5_jjPNS_14SourceElementsERNS_19VariableEnvironmentEON3WTF6VectorIPNS_20FunctionMetadataNodeELm0ENSA_15CrashOnOverflowELm16EEES9_ONSA_11SmallPtrSetIPNSA_17UniquedStringImplELj8EEEPNS_18FunctionParametersERKNS_10SourceCodeEthiONSA_6RefPtrINS_15ModuleScopeDataEEE
3052:__ZN3JSC8EvalNodeC2ERNS_11ParserArenaERKNS_15JSTokenLocationES5_jjPNS_14SourceElementsERNS_19VariableEnvironmentEON3WTF6VectorIPNS_20FunctionMetadataNodeELm0ENSA_15CrashOnOverflowELm16EEES9_ONSA_11SmallPtrSetIPNSA_17UniquedStringImplELj8EEEPNS_18FunctionParametersERKNS_10SourceCodeEthiONSA_6RefPtrINS_15ModuleScopeDataEEE
3053:__ZN3JSC20FunctionMetadataNodeC2ERNS_11ParserArenaERKNS_15JSTokenLocationES5_jjiiibNS_15ConstructorKindENS_12SuperBindingEjNS_15SourceParseModeEb
3054:__ZN3JSC20FunctionMetadataNodeD2Ev
3055:__ZN3JSC20FunctionMetadataNodeD0Ev
3056:__ZThn24_N3JSC20FunctionMetadataNodeD1Ev
3057:__ZThn24_N3JSC20FunctionMetadataNodeD0Ev
3058:__ZN3JSC20FunctionMetadataNode13finishParsingERKNS_10SourceCodeERKNS_10IdentifierENS_12FunctionModeE
3059:__ZN3JSC20FunctionMetadataNode14setEndPositionENS_14JSTextPositionE
3060:__ZN3JSC12FunctionNodeC2ERNS_11ParserArenaERKNS_15JSTokenLocationES5_jjPNS_14SourceElementsERNS_19VariableEnvironmentEON3WTF6VectorIPNS_20FunctionMetadataNodeELm0ENSA_15CrashOnOverflowELm16EEES9_ONSA_11SmallPtrSetIPNSA_17UniquedStringImplELj8EEEPNS_18FunctionParametersERKNS_10SourceCodeEthiONSA_6RefPtrINS_15ModuleScopeDataEEE
3061:__ZN3JSC12FunctionNode13finishParsingERKNS_10IdentifierENS_12FunctionModeE
3062:__ZN3JSC16PropertyListNode26hasStaticallyNamedPropertyERKNS_10IdentifierE
3063:__ZN3JSC23VariableEnvironmentNodeC2ERNS_19VariableEnvironmentE
3064:__ZN3JSC9ScopeNode13analyzeModuleERNS_14ModuleAnalyzerE
3065:__ZN3JSC21ImportDeclarationNode13analyzeModuleERNS_14ModuleAnalyzerE
3066:__ZN3JSC24ExportAllDeclarationNode13analyzeModuleERNS_14ModuleAnalyzerE
3067:__ZN3JSC26ExportNamedDeclarationNode13analyzeModuleERNS_14ModuleAnalyzerE
3068:__ZN3JSC10ASTBuilder14makeDeleteNodeERKNS_15JSTokenLocationEPNS_14ExpressionNodeERKNS_14JSTextPositionES8_S8_
3069:__ZN3JSC10ASTBuilder30createNumberFromUnaryOperationERKNS_15JSTokenLocationEdRKNS_10NumberNodeE
3070:__ZN3JSC10ASTBuilder18makeBitwiseNotNodeERKNS_15JSTokenLocationEPNS_14ExpressionNodeE
3071:__ZN3JSC10ASTBuilder11makePowNodeERKNS_15JSTokenLocationEPNS_14ExpressionNodeES5_b
3072:__ZN3JSC10ASTBuilder31createNumberFromBinaryOperationERKNS_15JSTokenLocationEdRKNS_10NumberNodeES6_
3073:__ZN3JSC10ASTBuilder12makeMultNodeERKNS_15JSTokenLocationEPNS_14ExpressionNodeES5_b
3074:__ZN3JSC10ASTBuilder11makeDivNodeERKNS_15JSTokenLocationEPNS_14ExpressionNodeES5_b
3075:__ZN3JSC10ASTBuilder11makeModNodeERKNS_15JSTokenLocationEPNS_14ExpressionNodeES5_b
3076:__ZN3JSC10ASTBuilder11makeAddNodeERKNS_15JSTokenLocationEPNS_14ExpressionNodeES5_b
3077:__ZN3JSC10ASTBuilder11makeSubNodeERKNS_15JSTokenLocationEPNS_14ExpressionNodeES5_b
3078:__ZN3JSC10ASTBuilder17makeLeftShiftNodeERKNS_15JSTokenLocationEPNS_14ExpressionNodeES5_b
3079:__ZN3JSC10ASTBuilder18makeRightShiftNodeERKNS_15JSTokenLocationEPNS_14ExpressionNodeES5_b
3080:__ZN3JSC10ASTBuilder19makeURightShiftNodeERKNS_15JSTokenLocationEPNS_14ExpressionNodeES5_b
3081:__ZN3JSC10ASTBuilder13makeBitOrNodeERKNS_15JSTokenLocationEPNS_14ExpressionNodeES5_b
3082:__ZN3JSC10ASTBuilder14makeBitAndNodeERKNS_15JSTokenLocationEPNS_14ExpressionNodeES5_b
3083:__ZN3JSC10ASTBuilder14makeBitXOrNodeERKNS_15JSTokenLocationEPNS_14ExpressionNodeES5_b
3084:__ZN3JSC10ASTBuilder20makeFunctionCallNodeERKNS_15JSTokenLocationEPNS_14ExpressionNodeEPNS_13ArgumentsNodeERKNS_14JSTextPositionESA_SA_m
3085:__ZN3JSC10ASTBuilder14makeBinaryNodeERKNS_15JSTokenLocationEiNSt3__24pairIPNS_14ExpressionNodeENS0_12BinaryOpInfoEEES9_
3086:__ZN3JSC10ASTBuilder14makeAssignNodeERKNS_15JSTokenLocationEPNS_14ExpressionNodeENS_8OperatorES5_bbRKNS_14JSTextPositionES9_S9_
3087:__ZN3JSC6ParserINS_5LexerIhEEEC2EPNS_2VMERKNS_10SourceCodeENS_19JSParserBuiltinModeENS_18JSParserStrictModeENS_18JSParserScriptModeENS_15SourceParseModeENS_12SuperBindingENS_15ConstructorKindENS_18DerivedContextTypeEbNS_15EvalContextTypeEPNS_17DebuggerParseDataE
3088:__ZN3JSC6ParserINS_5LexerIhEEE9pushScopeEv
3089:__ZN3JSC5Scope18setSourceParseModeENS_15SourceParseModeE
3090:__ZNK3WTF10RefCountedIN3JSC15ModuleScopeDataEE5derefEv
3091:__ZN3JSC5ScopeD2Ev
3092:__ZN3WTF6VectorIN3JSC5ScopeELm10ENS_15CrashOnOverflowELm16EE26constructAndAppendSlowCaseIJRPNS1_2VMERbS9_S9_S9_S9_EEEvDpOT_
3093:__ZN3WTF6VectorIN3JSC5ScopeELm10ENS_15CrashOnOverflowELm16EE15reserveCapacityEm
3094:__ZN3JSC5ScopeC2EOS0_
3095:__ZN3WTF12VectorBufferINS_11SmallPtrSetIPNS_17UniquedStringImplELj8EEELm6EE4swapERS5_mm
3096:__ZN3JSC6ParserINS_5LexerIhEEED2Ev
3097:__ZN3JSC6ParserINS_5LexerIhEEE16popScopeInternalERNS_8ScopeRefEb
3098:__ZN3JSC5Scope20collectFreeVariablesEPS0_b
3099:__ZNK3JSC5Scope21usedVariablesContainsEPN3WTF17UniquedStringImplE
3100:__ZN3WTF11SmallPtrSetIPNS_17UniquedStringImplELj8EE3addES2_
3101:__ZN3JSC6ParserINS_5LexerIhEEE15declareVariableEPKNS_10IdentifierENS_15DeclarationTypeENS_21DeclarationImportTypeE
3102:__ZN3JSC5Scope15declareVariableEPKNS_10IdentifierE
3103:__ZN3JSC6ParserINS_5LexerIhEEE20hasDeclaredParameterERKNS_10IdentifierE
3104:__ZN3JSC6ParserINS_5LexerIhEEE19hasDeclaredVariableERKNS_10IdentifierE
3105:__ZN3JSC5Scope22declareLexicalVariableEPKNS_10IdentifierEbNS_21DeclarationImportTypeE
3106:__ZN3JSC5Scope19hasDeclaredVariableERKNS_10IdentifierE
3107:__ZN3JSC5Scope19hasDeclaredVariableERKN3WTF6RefPtrINS1_17UniquedStringImplEEE
3108:__ZN3JSC6ParserINS_5LexerIhEEE15declareFunctionEPKNS_10IdentifierE
3109:__ZN3JSC5Scope15declareFunctionEPKNS_10IdentifierEbb
3110:__ZN3JSC15ModuleScopeData10exportNameERKNS_10IdentifierE
3111:__ZN3JSC6ParserINS_5LexerIhEEE10parseInnerERKNS_10IdentifierENS_15SourceParseModeE
3112:__ZN3JSC6ParserINS_5LexerIhEEE25createGeneratorParametersINS_10ASTBuilderEEENT_19FormalParameterListERS6_Rj
3113:__ZN3JSC6ParserINS_5LexerIhEEE23parseFunctionParametersINS_10ASTBuilderENS_18ParserFunctionInfoIS5_EEEENT_19FormalParameterListERS8_NS_15SourceParseModeERT0_
3114:__ZN3JSC5Scope13declareCalleeEPKNS_10IdentifierE
3115:__ZN3JSC6ParserINS_5LexerIhEEE32parseAsyncFunctionSourceElementsINS_10ASTBuilderEEENT_14SourceElementsERS6_NS_15SourceParseModeEbNS_18SourceElementsModeE
3116:__ZN3JSC6ParserINS_5LexerIhEEE52parseArrowFunctionSingleExpressionBodySourceElementsINS_10ASTBuilderEEENT_14SourceElementsERS6_
3117:__ZN3JSC6ParserINS_5LexerIhEEE25parseModuleSourceElementsINS_10ASTBuilderEEENT_14SourceElementsERS6_NS_15SourceParseModeE
3118:__ZN3JSC6ParserINS_5LexerIhEEE36parseGeneratorFunctionSourceElementsINS_10ASTBuilderEEENT_14SourceElementsERS6_RKNS_10IdentifierENS_18SourceElementsModeE
3119:__ZN3JSC6ParserINS_5LexerIhEEE19parseSourceElementsINS_10ASTBuilderEEENT_14SourceElementsERS6_NS_18SourceElementsModeE
3120:__ZN3JSC5Scope29getSloppyModeHoistedFunctionsERN3WTF11SmallPtrSetIPNS1_17UniquedStringImplELj8EEE
3121:__ZN3JSC5Scope15getCapturedVarsERN3WTF7HashSetINS1_6RefPtrINS1_17UniquedStringImplEEENS_17IdentifierRepHashENS1_10HashTraitsIS5_EEEE
3122:__ZN3JSC10ASTBuilderD2Ev
3123:__ZN3WTF9HashTableINS_6RefPtrINS_17UniquedStringImplEEES3_NS_17IdentityExtractorEN3JSC17IdentifierRepHashENS_10HashTraitsIS3_EES8_E3addERKS3_
3124:__ZN3JSC6ParserINS_5LexerIhEEE22parseStatementListItemINS_10ASTBuilderEEENT_9StatementERS6_RPKNS_10IdentifierEPj
3125:__ZN3JSC6ParserINS_5LexerIhEEE8logErrorIJRA50_KcEEEvbDpOT_
3126:__ZN3JSC6ParserINS_5LexerIhEEE8logErrorIJRA86_KcEEEvbDpOT_
3127:__ZN3JSC6ParserINS_5LexerIhEEE24printUnexpectedTokenTextERN3WTF11PrintStreamE
3128:__ZN3JSC6ParserINS_5LexerIhEEE15setErrorMessageERKN3WTF6StringE
3129:__ZN3JSC6ParserINS_5LexerIhEEE24parseVariableDeclarationINS_10ASTBuilderEEENT_9StatementERS6_NS_15DeclarationTypeENS3_10ExportTypeE
3130:__ZN3JSC6ParserINS_5LexerIhEEE31parseExpressionOrLabelStatementINS_10ASTBuilderEEENT_9StatementERS6_b
3131:__ZN3JSC6ParserINS_5LexerIhEEE21parseClassDeclarationINS_10ASTBuilderEEENT_9StatementERS6_NS3_10ExportTypeENS_25DeclarationDefaultContextE
3132:__ZN3JSC6ParserINS_5LexerIhEEE24parseFunctionDeclarationINS_10ASTBuilderEEENT_9StatementERS6_NS3_10ExportTypeENS_25DeclarationDefaultContextE
3133:__ZN3JSC6ParserINS_5LexerIhEEE29parseAsyncFunctionDeclarationINS_10ASTBuilderEEENT_9StatementERS6_NS3_10ExportTypeENS_25DeclarationDefaultContextE
3134:__ZN3JSC6ParserINS_5LexerIhEEE14parseStatementINS_10ASTBuilderEEENT_9StatementERS6_RPKNS_10IdentifierEPj
3135:__ZN3WTF6VectorIN3JSC21DebuggerPausePositionELm0ENS_15CrashOnOverflowELm16EE6appendEOS2_
3136:__ZN3JSC6ParserINS_5LexerIhEEE8logErrorIJRA16_KcEEEvbDpOT_
3137:__ZN3JSC6ParserINS_5LexerIhEEE19parseBlockStatementINS_10ASTBuilderEEENT_9StatementERS6_
3138:__ZN3JSC6ParserINS_5LexerIhEEE33parseFunctionDeclarationStatementINS_10ASTBuilderEEENT_9StatementERS6_bb
3139:__ZN3JSC6ParserINS_5LexerIhEEE16parseIfStatementINS_10ASTBuilderEEENT_9StatementERS6_
3140:__ZN3JSC6ParserINS_5LexerIhEEE21parseDoWhileStatementINS_10ASTBuilderEEENT_9StatementERS6_
3141:__ZN3JSC6ParserINS_5LexerIhEEE19parseWhileStatementINS_10ASTBuilderEEENT_9StatementERS6_
3142:__ZN3JSC6ParserINS_5LexerIhEEE17parseForStatementINS_10ASTBuilderEEENT_9StatementERS6_
3143:__ZN3JSC6ParserINS_5LexerIhEEE22parseContinueStatementINS_10ASTBuilderEEENT_9StatementERS6_
3144:__ZN3JSC6ParserINS_5LexerIhEEE19parseBreakStatementINS_10ASTBuilderEEENT_9StatementERS6_
3145:__ZN3JSC6ParserINS_5LexerIhEEE20parseReturnStatementINS_10ASTBuilderEEENT_9StatementERS6_
3146:__ZN3JSC6ParserINS_5LexerIhEEE18parseWithStatementINS_10ASTBuilderEEENT_9StatementERS6_
3147:__ZN3JSC6ParserINS_5LexerIhEEE20parseSwitchStatementINS_10ASTBuilderEEENT_9StatementERS6_
3148:__ZN3JSC6ParserINS_5LexerIhEEE19parseThrowStatementINS_10ASTBuilderEEENT_9StatementERS6_
3149:__ZN3JSC6ParserINS_5LexerIhEEE17parseTryStatementINS_10ASTBuilderEEENT_9StatementERS6_
3150:__ZN3JSC6ParserINS_5LexerIhEEE22parseDebuggerStatementINS_10ASTBuilderEEENT_9StatementERS6_
3151:__ZN3JSC6ParserINS_5LexerIhEEE43maybeParseAsyncFunctionDeclarationStatementINS_10ASTBuilderEEEbRT_RNS6_9StatementEb
3152:__ZN3JSC6ParserINS_5LexerIhEEE24parseExpressionStatementINS_10ASTBuilderEEENT_9StatementERS6_
3153:__ZN3JSC6ParserINS_5LexerIhEEE8logErrorIJRA61_KcEEEvbDpOT_
3154:__ZN3JSC6ParserINS_5LexerIhEEE15parseExpressionINS_10ASTBuilderEEENT_10ExpressionERS6_
3155:__ZN3JSC6ParserINS_5LexerIhEEE8logErrorEb
3156:__ZN3JSC6ParserINS_5LexerIhEEE8logErrorIJRA12_KcEEEvbDpOT_
3157:__ZN3JSC6ParserINS_5LexerIhEEE25parseAssignmentExpressionINS_10ASTBuilderEEENT_10ExpressionERS6_RNS3_25ExpressionErrorClassifierE
3158:__ZN3JSC6ParserINS_5LexerIhEEE8logErrorIJRA24_KcEEEvbDpOT_
3159:__ZN3JSC6ParserINS_5LexerIhEEE20parseYieldExpressionINS_10ASTBuilderEEENT_10ExpressionERS6_
3160:__ZN3JSC5Scope19pushUsedVariableSetEv
3161:__ZN3JSC6ParserINS_5LexerIhEEE20parseAwaitExpressionINS_10ASTBuilderEEENT_10ExpressionERS6_
3162:__ZN3JSC6ParserINS_5LexerIhEEE8logErrorIJRA5_KcPS5_RA42_S5_EEEvbDpOT_
3163:__ZN3WTF6VectorINSt3__24pairIiN3JSC14JSTextPositionEEELm10ENS_20UnsafeVectorOverflowELm16EE6appendEOS5_
3164:__ZN3JSC6ParserINS_5LexerIhEEE21parseMemberExpressionINS_10ASTBuilderEEENT_10ExpressionERS6_
3165:__ZN3JSC6ParserINS_5LexerIhEEE8logErrorIJRA31_KcPS5_RA9_S5_EEEvbDpOT_
3166:__ZN3JSC6ParserINS_5LexerIhEEE8logErrorIJRA16_KcPN3WTF17UniquedStringImplERA17_S5_EEEvbDpOT_
3167:__ZN3JSC6ParserINS_5LexerIhEEE8logErrorIJRA2_KcPN3WTF17UniquedStringImplERA36_S5_EEEvbDpOT_
3168:__ZN3JSC6ParserINS_5LexerIhEEE8logErrorIJRA37_KcPN3WTF17UniquedStringImplERA17_S5_EEEvbDpOT_
3169:__ZN3JSC10ASTBuilder26appendBinaryExpressionInfoERiPNS_14ExpressionNodeERKNS_14JSTextPositionES6_S6_b
3170:__ZN3JSC6ParserINS_5LexerIhEEE8logErrorIJRA138_KcEEEvbDpOT_
3171:__ZN3WTF6VectorINSt3__24pairIPN3JSC14ExpressionNodeENS3_10ASTBuilder12BinaryOpInfoEEELm10ENS_20UnsafeVectorOverflowELm16EE15reserveCapacityEm
3172:__ZN3JSC10ASTBuilder21appendBinaryOperationERKNS_15JSTokenLocationERiS4_RKNSt3__24pairIPNS_14ExpressionNodeENS0_12BinaryOpInfoEEESC_
3173:__ZN3WTF6VectorINSt3__24pairIiiEELm10ENS_20UnsafeVectorOverflowELm16EE6appendEOS3_
3174:__ZN3JSC6ParserINS_5LexerIhEEE25parseDestructuringPatternINS_13SyntaxCheckerEEENT_20DestructuringPatternERS6_NS_17DestructuringKindENS3_10ExportTypeEPPKNS_10IdentifierEPbNS_17AssignmentContextEi
3175:__ZN3JSC6ParserINS_5LexerIhEEE8logErrorIJRA70_KcEEEvbDpOT_
3176:__ZN3JSC6ParserINS_5LexerIhEEE40parseDefaultValueForDestructuringPatternINS_13SyntaxCheckerEEENT_10ExpressionERS6_
3177:__ZN3JSC6ParserINS_5LexerIhEEE8logErrorIJRA22_KcPN3WTF17UniquedStringImplERA56_S5_EEEvbDpOT_
3178:__ZN3JSC6ParserINS_5LexerIhEEE8logErrorIJRA22_KcPN3WTF17UniquedStringImplERA48_S5_EEEvbDpOT_
3179:__ZN3JSC6ParserINS_5LexerIhEEE8logErrorIJRA22_KcPN3WTF17UniquedStringImplERA35_S5_EEEvbDpOT_
3180:__ZN3WTF6VectorINS_11SmallPtrSetIPNS_17UniquedStringImplELj8EEELm6ENS_15CrashOnOverflowELm16EE14expandCapacityEm
3181:__ZN3JSC6ParserINS_5LexerIhEEE28parseArrowFunctionExpressionINS_10ASTBuilderEEENT_10ExpressionERS6_b
3182:__ZN3JSC6ParserINS_5LexerIhEEE38tryParseDestructuringPatternExpressionINS_10ASTBuilderEEENT_20DestructuringPatternERS6_NS_17AssignmentContextE
3183:__ZN3JSC6ParserINS_5LexerIhEEE8logErrorIJRA29_KcN3WTF10StringViewERA22_S5_EEEvbDpOT_
3184:__ZN3WTF6VectorIN3JSC10ASTBuilder14AssignmentInfoELm10ENS_20UnsafeVectorOverflowELm16EE14appendSlowCaseIS3_EEvOT_
3185:__ZN3WTF6VectorIN3JSC10ASTBuilder14AssignmentInfoELm10ENS_20UnsafeVectorOverflowELm16EE15reserveCapacityEm
3186:__ZN3JSC6ParserINS_5LexerIhEEE25parseDestructuringPatternINS_10ASTBuilderEEENT_20DestructuringPatternERS6_NS_17DestructuringKindENS3_10ExportTypeEPPKNS_10IdentifierEPbNS_17AssignmentContextEi
3187:__ZN3JSC11ParserArena17allocateDeletableEm
3188:__ZN3JSC6ParserINS_5LexerIhEEE31parseBindingOrAssignmentElementINS_10ASTBuilderEEENT_20DestructuringPatternERS6_NS_17DestructuringKindENS3_10ExportTypeEPPKNS_10IdentifierEPbNS_17AssignmentContextEi
3189:__ZN3JSC6ParserINS_5LexerIhEEE40parseDefaultValueForDestructuringPatternINS_10ASTBuilderEEENT_10ExpressionERS6_
3190:__ZN3WTF6VectorIN3JSC16ArrayPatternNode5EntryELm0ENS_15CrashOnOverflowELm16EE6appendEOS3_
3191:__ZN3JSC10ASTBuilder21tryInferNameInPatternEPNS_24DestructuringPatternNodeEPNS_14ExpressionNodeE
3192:__ZN3JSC6ParserINS_5LexerIhEEE8logErrorIJPKcEEEvbDpOT_
3193:__ZN3JSC17ObjectPatternNode11appendEntryERKNS_15JSTokenLocationEPNS_14ExpressionNodeEPNS_24DestructuringPatternNodeES5_NS0_11BindingTypeE
3194:__ZN3JSC6ParserINS_5LexerIhEEE8logErrorIJRA24_KcPS5_RA2_S5_S8_EEEvbDpOT_
3195:__ZN3JSC6ParserINS_5LexerIhEEE20createBindingPatternINS_10ASTBuilderEEENT_20DestructuringPatternERS6_NS_17DestructuringKindENS3_10ExportTypeERKNS_10IdentifierENS_7JSTokenENS_17AssignmentContextEPPSC_
3196:__ZN3JSC15IdentifierArena21makeNumericIdentifierEPNS_2VMEd
3197:__ZN3JSC6ParserINS_5LexerIhEEE8logErrorIJRA64_KcPN3WTF17UniquedStringImplERA2_S5_EEEvbDpOT_
3198:__ZN3JSC6ParserINS_5LexerIhEEE8logErrorIJRA64_KcPN3WTF17UniquedStringImplERA17_S5_EEEvbDpOT_
3199:__ZN3JSC6ParserINS_5LexerIhEEE8logErrorIJRA58_KcPN3WTF17UniquedStringImplERA2_S5_EEEvbDpOT_
3200:__ZN3WTF6VectorIN3JSC17ObjectPatternNode5EntryELm0ENS_15CrashOnOverflowELm16EE6appendEOS3_
3201:__ZN3JSC6ParserINS_5LexerIhEEE8logErrorIJRA31_KcN3WTF10StringViewERA8_S5_PS5_RA16_S5_EEEvbDpOT_
3202:__ZN3JSC6ParserINS_5LexerIhEEE8logErrorIJRA31_KcN3WTF10StringViewERA8_S5_PS5_EEEvbDpOT_
3203:__ZN3JSC6ParserINS_5LexerIhEEE8logErrorIJRA25_KcN3WTF10StringViewERA8_S5_PS5_EEEvbDpOT_
3204:__ZN3JSC6ParserINS_5LexerIhEEE8logErrorIJRA34_KcPN3WTF17UniquedStringImplERA17_S5_EEEvbDpOT_
3205:__ZN3JSC6ParserINS_5LexerIhEEE8logErrorIJRA73_KcPN3WTF17UniquedStringImplERA2_S5_EEEvbDpOT_
3206:__ZN3JSC6ParserINS_5LexerIhEEE8logErrorIJRA43_KcPN3WTF17UniquedStringImplERA2_S5_EEEvbDpOT_
3207:__ZN3JSC6ParserINS_5LexerIhEEE28declareRestOrNormalParameterERKNS_10IdentifierEPPS5_
3208:__ZN3JSC6ParserINS_5LexerIhEEE8logErrorIJRA33_KcPN3WTF17UniquedStringImplERA2_S5_EEEvbDpOT_
3209:__ZN3JSC15ModuleScopeData13exportBindingERKNS_10IdentifierES3_
3210:__ZN3WTF7HashMapINS_6RefPtrINS_17UniquedStringImplEEENS_6VectorIS3_Lm0ENS_15CrashOnOverflowELm16EEEN3JSC17IdentifierRepHashENS_10HashTraitsIS3_EENS9_IS6_EEE3addIS6_EENS_18HashTableAddResultINS_17HashTableIteratorIS3_NS_12KeyValuePairIS3_S6_EENS_24KeyValuePairKeyExtractorISH_EES8_NSC_18KeyValuePairTraitsESA_EEEEOS3_OT_
3211:__ZN3WTF9HashTableINS_6RefPtrINS_17UniquedStringImplEEENS_12KeyValuePairIS3_NS_6VectorIS3_Lm0ENS_15CrashOnOverflowELm16EEEEENS_24KeyValuePairKeyExtractorIS8_EEN3JSC17IdentifierRepHashENS_7HashMapIS3_S7_SC_NS_10HashTraitsIS3_EENSE_IS7_EEE18KeyValuePairTraitsESF_E6rehashEjPS8_
3212:__ZN3WTF9HashTableINS_6RefPtrINS_17UniquedStringImplEEENS_12KeyValuePairIS3_NS_6VectorIS3_Lm0ENS_15CrashOnOverflowELm16EEEEENS_24KeyValuePairKeyExtractorIS8_EEN3JSC17IdentifierRepHashENS_7HashMapIS3_S7_SC_NS_10HashTraitsIS3_EENSE_IS7_EEE18KeyValuePairTraitsESF_E8reinsertEOS8_
3213:__ZN3JSC5Scope16declareParameterEPKNS_10IdentifierE
3214:__ZN3JSC6ParserINS_5LexerIhEEE8logErrorIJRA35_KcPN3WTF17UniquedStringImplERA51_S5_EEEvbDpOT_
3215:__ZN3JSC6ParserINS_5LexerIhEEE8logErrorIJRA31_KcN3WTF10StringViewERA8_S5_RA15_S5_RA16_S5_EEEvbDpOT_
3216:__ZN3JSC6ParserINS_5LexerIhEEE8logErrorIJRA31_KcN3WTF10StringViewERA8_S5_RA15_S5_EEEvbDpOT_
3217:__ZN3JSC6ParserINS_5LexerIhEEE8logErrorIJRA25_KcN3WTF10StringViewERA8_S5_RA15_S5_EEEvbDpOT_
3218:__ZN3JSC6ParserINS_5LexerIhEEE8logErrorIJRA24_KcRA15_S5_RA2_S5_PS5_EEEvbDpOT_
3219:__ZN3JSC6ParserINS_5LexerIhEEE8logErrorIJRA35_KcPN3WTF17UniquedStringImplERA49_S5_EEEvbDpOT_
3220:__ZN3JSC6ParserINS_5LexerIhEEE8logErrorIJRA35_KcPN3WTF17UniquedStringImplERA17_S5_EEEvbDpOT_
3221:__ZN3JSC6ParserINS_5LexerIhEEE22parseAssignmentElementINS_10ASTBuilderEEENT_20DestructuringPatternERS6_NS_17DestructuringKindENS3_10ExportTypeEPPKNS_10IdentifierEPbNS_17AssignmentContextEi
3222:__ZN3JSC6ParserINS_5LexerIhEEE23createAssignmentElementINS_10ASTBuilderEEENT_20DestructuringPatternERS6_RNS6_10ExpressionERKNS_14JSTextPositionESD_
3223:__ZN3JSC6ParserINS_5LexerIhEEE17parseFunctionInfoINS_10ASTBuilderEEEbRT_NS_24FunctionNameRequirementsENS_15SourceParseModeEbNS_15ConstructorKindENS_12SuperBindingEiRNS_18ParserFunctionInfoIS6_EENS3_22FunctionDefinitionTypeE
3224:__ZN3JSC10ASTBuilder23createArrowFunctionExprERKNS_15JSTokenLocationERKNS_18ParserFunctionInfoIS0_EE
3225:__ZZN3JSC6ParserINS_5LexerIhEEE17parseFunctionInfoINS_10ASTBuilderEEEbRT_NS_24FunctionNameRequirementsENS_15SourceParseModeEbNS_15ConstructorKindENS_12SuperBindingEiRNS_18ParserFunctionInfoIS6_EENS3_22FunctionDefinitionTypeEENKUlvE_clEv
3226:__ZN3JSC6ParserINS_5LexerIhEEE23parseFunctionParametersINS_13SyntaxCheckerENS_18ParserFunctionInfoINS_10ASTBuilderEEEEENT_19FormalParameterListERS9_NS_15SourceParseModeERT0_
3227:__ZN3JSC6ParserINS_5LexerIhEEE8logErrorIJRA39_KcRPS5_EEEvbDpOT_
3228:__ZN3JSC6ParserINS_5LexerIhEEE8logErrorIJRA2_KcPN3WTF17UniquedStringImplERA18_S5_PS5_RA21_S5_EEEvbDpOT_
3229:__ZN3JSC6ParserINS_5LexerIhEEE8logErrorIJRA31_KcN3WTF10StringViewERA8_S5_PS5_RA6_S5_RA16_S5_EEEvbDpOT_
3230:__ZN3JSC6ParserINS_5LexerIhEEE8logErrorIJRA31_KcN3WTF10StringViewERA8_S5_PS5_RA6_S5_EEEvbDpOT_
3231:__ZN3JSC6ParserINS_5LexerIhEEE8logErrorIJRA25_KcN3WTF10StringViewERA8_S5_PS5_RA6_S5_EEEvbDpOT_
3232:__ZN3JSC6ParserINS_5LexerIhEEE8logErrorIJRA24_KcPS5_RA6_S5_RA2_S5_S8_EEEvbDpOT_
3233:__ZN3JSC6ParserINS_5LexerIhEEE8logErrorIJRA43_KcPS5_RA6_S5_EEEvbDpOT_
3234:__ZZN3JSC6ParserINS_5LexerIhEEE17parseFunctionInfoINS_10ASTBuilderEEEbRT_NS_24FunctionNameRequirementsENS_15SourceParseModeEbNS_15ConstructorKindENS_12SuperBindingEiRNS_18ParserFunctionInfoIS6_EENS3_22FunctionDefinitionTypeEENKUlPN3WTF17UniquedStringImplEE_clESI_
3235:__ZN3JSC6ParserINS_5LexerIhEEE52parseArrowFunctionSingleExpressionBodySourceElementsINS_13SyntaxCheckerEEENT_14SourceElementsERS6_
3236:__ZN3JSC6ParserINS_5LexerIhEEE19parseSourceElementsINS_13SyntaxCheckerEEENT_14SourceElementsERS6_NS_18SourceElementsModeE
3237:__ZN3JSC6ParserINS_5LexerIhEEE8logErrorIJRA31_KcPS5_EEEvbDpOT_
3238:__ZN3JSC6ParserINS_5LexerIhEEE8logErrorIJRA2_KcPN3WTF17UniquedStringImplERA46_S5_EEEvbDpOT_
3239:__ZN3JSC5Scope36fillParametersForSourceProviderCacheERNS_41SourceProviderCacheItemCreationParametersERKN3WTF11SmallPtrSetIPNS3_17UniquedStringImplELj8EEE
3240:__ZN3JSC23SourceProviderCacheItemC2ERKNS_41SourceProviderCacheItemCreationParametersE
3241:__ZN3JSC6ParserINS_5LexerIhEEE8logErrorIJRA32_KcPS5_RA6_S5_EEEvbDpOT_
3242:__ZN3JSC5Scope29copyCapturedVariablesToVectorERKN3WTF11SmallPtrSetIPNS1_17UniquedStringImplELj8EEERNS1_6VectorIS4_Lm8ENS1_15CrashOnOverflowELm16EEE
3243:__ZN3JSC6ParserINS_5LexerIhEEE22parseStatementListItemINS_13SyntaxCheckerEEENT_9StatementERS6_RPKNS_10IdentifierEPj
3244:__ZN3JSC6ParserINS_5LexerIhEEE24parseVariableDeclarationINS_13SyntaxCheckerEEENT_9StatementERS6_NS_15DeclarationTypeENS3_10ExportTypeE
3245:__ZN3JSC6ParserINS_5LexerIhEEE31parseExpressionOrLabelStatementINS_13SyntaxCheckerEEENT_9StatementERS6_b
3246:__ZN3JSC6ParserINS_5LexerIhEEE21parseClassDeclarationINS_13SyntaxCheckerEEENT_9StatementERS6_NS3_10ExportTypeENS_25DeclarationDefaultContextE
3247:__ZN3JSC6ParserINS_5LexerIhEEE24parseFunctionDeclarationINS_13SyntaxCheckerEEENT_9StatementERS6_NS3_10ExportTypeENS_25DeclarationDefaultContextE
3248:__ZN3JSC6ParserINS_5LexerIhEEE29parseAsyncFunctionDeclarationINS_13SyntaxCheckerEEENT_9StatementERS6_NS3_10ExportTypeENS_25DeclarationDefaultContextE
3249:__ZN3JSC6ParserINS_5LexerIhEEE14parseStatementINS_13SyntaxCheckerEEENT_9StatementERS6_RPKNS_10IdentifierEPj
3250:__ZN3JSC6ParserINS_5LexerIhEEE19parseBlockStatementINS_13SyntaxCheckerEEENT_9StatementERS6_
3251:__ZN3JSC6ParserINS_5LexerIhEEE33parseFunctionDeclarationStatementINS_13SyntaxCheckerEEENT_9StatementERS6_bb
3252:__ZN3JSC6ParserINS_5LexerIhEEE16parseIfStatementINS_13SyntaxCheckerEEENT_9StatementERS6_
3253:__ZN3JSC6ParserINS_5LexerIhEEE21parseDoWhileStatementINS_13SyntaxCheckerEEENT_9StatementERS6_
3254:__ZN3JSC6ParserINS_5LexerIhEEE19parseWhileStatementINS_13SyntaxCheckerEEENT_9StatementERS6_
3255:__ZN3JSC6ParserINS_5LexerIhEEE17parseForStatementINS_13SyntaxCheckerEEENT_9StatementERS6_
3256:__ZN3JSC6ParserINS_5LexerIhEEE22parseContinueStatementINS_13SyntaxCheckerEEENT_9StatementERS6_
3257:__ZN3JSC6ParserINS_5LexerIhEEE19parseBreakStatementINS_13SyntaxCheckerEEENT_9StatementERS6_
3258:__ZN3JSC6ParserINS_5LexerIhEEE20parseReturnStatementINS_13SyntaxCheckerEEENT_9StatementERS6_
3259:__ZN3JSC6ParserINS_5LexerIhEEE18parseWithStatementINS_13SyntaxCheckerEEENT_9StatementERS6_
3260:__ZN3JSC6ParserINS_5LexerIhEEE20parseSwitchStatementINS_13SyntaxCheckerEEENT_9StatementERS6_
3261:__ZN3JSC6ParserINS_5LexerIhEEE19parseThrowStatementINS_13SyntaxCheckerEEENT_9StatementERS6_
3262:__ZN3JSC6ParserINS_5LexerIhEEE17parseTryStatementINS_13SyntaxCheckerEEENT_9StatementERS6_
3263:__ZN3JSC6ParserINS_5LexerIhEEE22parseDebuggerStatementINS_13SyntaxCheckerEEENT_9StatementERS6_
3264:__ZN3JSC6ParserINS_5LexerIhEEE43maybeParseAsyncFunctionDeclarationStatementINS_13SyntaxCheckerEEEbRT_RNS6_9StatementEb
3265:__ZN3JSC6ParserINS_5LexerIhEEE24parseExpressionStatementINS_13SyntaxCheckerEEENT_9StatementERS6_
3266:__ZN3JSC6ParserINS_5LexerIhEEE15parseExpressionINS_13SyntaxCheckerEEENT_10ExpressionERS6_
3267:__ZN3JSC6ParserINS_5LexerIhEEE25parseAssignmentExpressionINS_13SyntaxCheckerEEENT_10ExpressionERS6_RNS3_25ExpressionErrorClassifierE
3268:__ZN3JSC6ParserINS_5LexerIhEEE20parseYieldExpressionINS_13SyntaxCheckerEEENT_10ExpressionERS6_
3269:__ZN3JSC6ParserINS_5LexerIhEEE20parseAwaitExpressionINS_13SyntaxCheckerEEENT_10ExpressionERS6_
3270:__ZN3JSC6ParserINS_5LexerIhEEE21parseMemberExpressionINS_13SyntaxCheckerEEENT_10ExpressionERS6_
3271:__ZN3JSC6ParserINS_5LexerIhEEE17parseFunctionInfoINS_13SyntaxCheckerEEEbRT_NS_24FunctionNameRequirementsENS_15SourceParseModeEbNS_15ConstructorKindENS_12SuperBindingEiRNS_18ParserFunctionInfoIS6_EENS3_22FunctionDefinitionTypeE
3272:__ZN3JSC6ParserINS_5LexerIhEEE38tryParseDestructuringPatternExpressionINS_13SyntaxCheckerEEENT_20DestructuringPatternERS6_NS_17AssignmentContextE
3273:__ZZN3JSC6ParserINS_5LexerIhEEE17parseFunctionInfoINS_13SyntaxCheckerEEEbRT_NS_24FunctionNameRequirementsENS_15SourceParseModeEbNS_15ConstructorKindENS_12SuperBindingEiRNS_18ParserFunctionInfoIS6_EENS3_22FunctionDefinitionTypeEENKUlvE_clEv
3274:__ZZN3JSC6ParserINS_5LexerIhEEE17parseFunctionInfoINS_13SyntaxCheckerEEEbRT_NS_24FunctionNameRequirementsENS_15SourceParseModeEbNS_15ConstructorKindENS_12SuperBindingEiRNS_18ParserFunctionInfoIS6_EENS3_22FunctionDefinitionTypeEENKUlPN3WTF17UniquedStringImplEE_clESI_
3275:__ZN3JSC6ParserINS_5LexerIhEEE8logErrorIJRA34_KcPS5_EEEvbDpOT_
3276:__ZN3JSC6ParserINS_5LexerIhEEE8logErrorIJRA34_KcPS5_RA18_S5_EEEvbDpOT_
3277:__ZN3JSC6ParserINS_5LexerIhEEE8logErrorIJRA22_KcPN3WTF17UniquedStringImplERA57_S5_EEEvbDpOT_
3278:__ZN3JSC6ParserINS_5LexerIhEEE8logErrorIJRA21_KcN3WTF10StringViewEEEEvbDpOT_
3279:__ZN3JSC6ParserINS_5LexerIhEEE10parseClassINS_13SyntaxCheckerEEENT_15ClassExpressionERS6_NS_24FunctionNameRequirementsERNS_15ParserClassInfoIS6_EE
3280:__ZN3JSC6ParserINS_5LexerIhEEE24parseStrictObjectLiteralINS_13SyntaxCheckerEEENT_10ExpressionERS6_
3281:__ZN3JSC6ParserINS_5LexerIhEEE13parsePropertyINS_13SyntaxCheckerEEENT_8PropertyERS6_b
3282:__ZN3JSC6ParserINS_5LexerIhEEE8logErrorIJRA11_KcRA2_S5_RA6_S5_RA4_S5_RA5_S5_RA15_S5_EEEvbDpOT_
3283:__ZN3JSC6ParserINS_5LexerIhEEE8logErrorIJRA66_KcEEEvbDpOT_
3284:__ZN3JSC6ParserINS_5LexerIhEEE8logErrorIJRA58_KcEEEvbDpOT_
3285:__ZN3JSC6ParserINS_5LexerIhEEE8logErrorIJRA11_KcRA2_S5_RA6_S5_RA4_S5_SD_RA20_S5_EEEvbDpOT_
3286:__ZN3JSC6ParserINS_5LexerIhEEE20parseTemplateLiteralINS_13SyntaxCheckerEEENT_15TemplateLiteralERS6_NS2_19RawStringsBuildModeE
3287:__ZN3JSC6ParserINS_5LexerIhEEE8logErrorIJRA11_KcRA2_S5_RA6_S5_RA4_S5_SD_RA21_S5_EEEvbDpOT_
3288:__ZN3JSC6ParserINS_5LexerIhEEE8logErrorIJRA60_KcEEEvbDpOT_
3289:__ZN3JSC6ParserINS_5LexerIhEEE8logErrorIJRA11_KcRA2_S5_RA6_S5_RA4_S5_RA5_S5_RA14_S5_EEEvbDpOT_
3290:__ZN3JSC6ParserINS_5LexerIhEEE8logErrorIJRA28_KcEEEvbDpOT_
3291:__ZN3JSC6ParserINS_5LexerIhEEE19parseTemplateStringINS_13SyntaxCheckerEEENT_14TemplateStringERS6_bNS2_19RawStringsBuildModeERb
3292:__ZN3JSC6ParserINS_5LexerIhEEE8logErrorIJRA45_KcPN3WTF17UniquedStringImplERA2_S5_EEEvbDpOT_
3293:__ZN3JSC6ParserINS_5LexerIhEEE17parseGetterSetterINS_13SyntaxCheckerEEENT_8PropertyERS6_bNS_12PropertyNode4TypeEjNS_15ConstructorKindEb
3294:__ZN3JSC6ParserINS_5LexerIhEEE8logErrorIJRA11_KcRA2_S5_RA6_S5_RA4_S5_SD_RA23_S5_EEEvbDpOT_
3295:__ZN3JSC6ParserINS_5LexerIhEEE8logErrorIJRA2_KcPN3WTF17UniquedStringImplERA28_S5_EEEvbDpOT_
3296:__ZN3JSC6ParserINS_5LexerIhEEE8logErrorIJRA31_KcN3WTF10StringViewERA8_S5_RA11_S5_RA16_S5_EEEvbDpOT_
3297:__ZN3JSC6ParserINS_5LexerIhEEE8logErrorIJRA31_KcN3WTF10StringViewERA8_S5_RA11_S5_EEEvbDpOT_
3298:__ZN3JSC6ParserINS_5LexerIhEEE8logErrorIJRA25_KcN3WTF10StringViewERA8_S5_RA11_S5_EEEvbDpOT_
3299:__ZN3JSC6ParserINS_5LexerIhEEE8logErrorIJRA24_KcRA11_S5_RA2_S5_PS5_EEEvbDpOT_
3300:__ZN3JSC6ParserINS_5LexerIhEEE8logErrorIJRA11_KcRA2_S5_RA6_S5_SB_RA4_S5_RA15_S5_EEEvbDpOT_
3301:__ZN3JSC6ParserINS_5LexerIhEEE8logErrorIJRA40_KcPN3WTF17UniquedStringImplERA17_S5_EEEvbDpOT_
3302:__ZN3JSC6ParserINS_5LexerIhEEE8logErrorIJRA11_KcRA2_S5_RA6_S5_RA4_S5_SD_RA15_S5_EEEvbDpOT_
3303:__ZN3JSC6ParserINS_5LexerIhEEE8logErrorIJRA26_KcEEEvbDpOT_
3304:__ZN3JSC6ParserINS_5LexerIhEEE8logErrorIJRA11_KcRA2_S5_RA6_S5_SB_RA4_S5_RA22_S5_EEEvbDpOT_
3305:__ZN3JSC6ParserINS_5LexerIhEEE8logErrorIJRA11_KcRA2_S5_RA6_S5_RA4_S5_SD_RA22_S5_EEEvbDpOT_
3306:__ZN3JSC6ParserINS_5LexerIhEEE8logErrorIJRA11_KcRA2_S5_RA6_S5_SB_RA4_S5_RA19_S5_EEEvbDpOT_
3307:__ZN3JSC6ParserINS_5LexerIhEEE18parseSwitchClausesINS_13SyntaxCheckerEEENT_10ClauseListERS6_
3308:__ZN3JSC6ParserINS_5LexerIhEEE24parseSwitchDefaultClauseINS_13SyntaxCheckerEEENT_6ClauseERS6_
3309:__ZN3JSC6ParserINS_5LexerIhEEE8logErrorIJRA11_KcRA2_S5_RA6_S5_RA4_S5_SD_RA19_S5_EEEvbDpOT_
3310:__ZN3JSC6ParserINS_5LexerIhEEE8logErrorIJRA11_KcRA2_S5_RA6_S5_SB_RA4_S5_RA30_S5_EEEvbDpOT_
3311:__ZN3JSC6ParserINS_5LexerIhEEE8logErrorIJRA31_KcPN3WTF17UniquedStringImplERA32_S5_EEEvbDpOT_
3312:__ZN3JSC6ParserINS_5LexerIhEEE8logErrorIJRA11_KcRA2_S5_RA6_S5_SB_RA4_S5_RA16_S5_EEEvbDpOT_
3313:__ZN3JSC6ParserINS_5LexerIhEEE28parseVariableDeclarationListINS_13SyntaxCheckerEEENT_10ExpressionERS6_RiRNS6_20DestructuringPatternERS7_RNS_14JSTextPositionESE_SE_NS3_25VarDeclarationListContextENS_15DeclarationTypeENS3_10ExportTypeERb
3314:__ZN3JSC6ParserINS_5LexerIhEEE8logErrorIJRA11_KcRA2_S5_RA6_S5_RA4_S5_SD_RA14_S5_EEEvbDpOT_
3315:__ZN3JSC6ParserINS_5LexerIhEEE8logErrorIJRA35_KcRA3_S5_RA11_S5_EEEvbDpOT_
3316:__ZN3JSC6ParserINS_5LexerIhEEE8logErrorIJRA11_KcRA2_S5_RA6_S5_RA4_S5_SD_RA16_S5_EEEvbDpOT_
3317:__ZN3JSC6ParserINS_5LexerIhEEE8logErrorIJRA71_KcEEEvbDpOT_
3318:__ZN3JSC6ParserINS_5LexerIhEEE8logErrorIJRA26_KcRA3_S5_RA11_S5_EEEvbDpOT_
3319:__ZN3JSC6ParserINS_5LexerIhEEE8logErrorIJRA43_KcRA3_S5_RA5_S5_EEEvbDpOT_
3320:__ZN3JSC6ParserINS_5LexerIhEEE8logErrorIJRA33_KcPN3WTF17UniquedStringImplERA16_S5_EEEvbDpOT_
3321:__ZN3JSC6ParserINS_5LexerIhEEE8logErrorIJRA39_KcPN3WTF17UniquedStringImplERA2_S5_EEEvbDpOT_
3322:__ZN3JSC6ParserINS_5LexerIhEEE8logErrorIJRA41_KcPN3WTF17UniquedStringImplERA2_S5_EEEvbDpOT_
3323:__ZN3JSC6ParserINS_5LexerIhEEE8logErrorIJRA57_KcPN3WTF17UniquedStringImplERA2_S5_EEEvbDpOT_
3324:__ZN3JSC6ParserINS_5LexerIhEEE8logErrorIJRA26_KcPN3WTF17UniquedStringImplERA2_S5_S7_EEEvbDpOT_
3325:__ZN3JSC6ParserINS_5LexerIhEEE8logErrorIJRA11_KcRA2_S5_RA6_S5_SB_RA4_S5_RA21_S5_EEEvbDpOT_
3326:__ZN3JSC6ParserINS_5LexerIhEEE8logErrorIJRA11_KcRA6_S5_S9_RA4_S5_SB_RA14_S5_EEEvbDpOT_
3327:__ZN3JSC6ParserINS_5LexerIhEEE8logErrorIJRA11_KcRA2_S5_RA6_S5_SB_RA4_S5_RA24_S5_EEEvbDpOT_
3328:__ZN3JSC6ParserINS_5LexerIhEEE8logErrorIJRA11_KcRA2_S5_RA6_S5_RA4_S5_SD_RA24_S5_EEEvbDpOT_
3329:__ZN3JSC6ParserINS_5LexerIhEEE8logErrorIJRA11_KcRA2_S5_RA6_S5_SB_RA5_S5_RA15_S5_EEEvbDpOT_
3330:__ZN3JSC6ParserINS_5LexerIhEEE8logErrorIJRA89_KcEEEvbDpOT_
3331:__ZN3JSC6ParserINS_5LexerIhEEE8logErrorIJRA96_KcEEEvbDpOT_
3332:__ZN3JSC6ParserINS_5LexerIhEEE8logErrorIJRA84_KcPN3WTF17UniquedStringImplERA17_S5_EEEvbDpOT_
3333:__ZN3JSC6ParserINS_5LexerIhEEE8logErrorIJRA77_KcPN3WTF17UniquedStringImplERA17_S5_EEEvbDpOT_
3334:__ZN3JSC6ParserINS_5LexerIhEEE8logErrorIJRA22_KcEEEvbDpOT_
3335:__ZN3JSC6ParserINS_5LexerIhEEE8logErrorIJRA32_KcPN3WTF17UniquedStringImplERA2_S5_EEEvbDpOT_
3336:__ZN3JSC6ParserINS_5LexerIhEEE8logErrorIJRA40_KcPN3WTF17UniquedStringImplERA2_S5_EEEvbDpOT_
3337:__ZN3JSC6ParserINS_5LexerIhEEE8logErrorIJRA30_KcPS5_EEEvbDpOT_
3338:__ZN3JSC6ParserINS_5LexerIhEEE8logErrorIJRA35_KcPN3WTF17UniquedStringImplERA2_S5_EEEvbDpOT_
3339:__ZN3WTF6VectorIN3JSC9LabelInfoELm0ENS_15CrashOnOverflowELm16EE6appendEOS2_
3340:__ZN3JSC5Scope9pushLabelEPKNS_10IdentifierEb
3341:__ZN3JSC6ParserINS_5LexerIhEEE8logErrorIJRA23_KcEEEvbDpOT_
3342:__ZN3WTF6VectorIN3JSC14ScopeLabelInfoELm2ENS_15CrashOnOverflowELm16EE6appendEOS2_
3343:__ZN3WTF6VectorIN3JSC9LabelInfoELm0ENS_15CrashOnOverflowELm16EE14expandCapacityEm
3344:__ZN3JSC6ParserINS_5LexerIhEEE31parseBindingOrAssignmentElementINS_13SyntaxCheckerEEENT_20DestructuringPatternERS6_NS_17DestructuringKindENS3_10ExportTypeEPPKNS_10IdentifierEPbNS_17AssignmentContextEi
3345:__ZN3JSC6ParserINS_5LexerIhEEE20createBindingPatternINS_13SyntaxCheckerEEENT_20DestructuringPatternERS6_NS_17DestructuringKindENS3_10ExportTypeERKNS_10IdentifierENS_7JSTokenENS_17AssignmentContextEPPSC_
3346:__ZN3JSC6ParserINS_5LexerIhEEE22parseAssignmentElementINS_13SyntaxCheckerEEENT_20DestructuringPatternERS6_NS_17DestructuringKindENS3_10ExportTypeEPPKNS_10IdentifierEPbNS_17AssignmentContextEi
3347:__ZN3WTF6VectorINSt3__24pairIPN3JSC14ExpressionNodeENS3_10ASTBuilder12BinaryOpInfoEEELm10ENS_20UnsafeVectorOverflowELm16EE14appendSlowCaseIS8_EEvOT_
3348:__ZNK3JSC11BooleanNode7jsValueERNS_17BytecodeGeneratorE
3349:__ZN3JSC10ASTBuilder18createFunctionExprERKNS_15JSTokenLocationERKNS_18ParserFunctionInfoIS0_EE
3350:__ZN3JSC6ParserINS_5LexerIhEEE10parseClassINS_10ASTBuilderEEENT_15ClassExpressionERS6_NS_24FunctionNameRequirementsERNS_15ParserClassInfoIS6_EE
3351:__ZN3JSC6ParserINS_5LexerIhEEE24parseStrictObjectLiteralINS_10ASTBuilderEEENT_10ExpressionERS6_
3352:__ZN3JSC6ParserINS_5LexerIhEEE13parsePropertyINS_10ASTBuilderEEENT_8PropertyERS6_b
3353:__ZN3JSC10ASTBuilder13createResolveERKNS_15JSTokenLocationERKNS_10IdentifierERKNS_14JSTextPositionES9_
3354:__ZN3JSC6ParserINS_5LexerIhEEE20parseTemplateLiteralINS_10ASTBuilderEEENT_15TemplateLiteralERS6_NS2_19RawStringsBuildModeE
3355:__ZN3JSC6ParserINS_5LexerIhEEE19parseTemplateStringINS_10ASTBuilderEEENT_14TemplateStringERS6_bNS2_19RawStringsBuildModeERb
3356:__ZNK3JSC8NullNode7jsValueERNS_17BytecodeGeneratorE
3357:__ZN3JSC10ASTBuilder14createPropertyEPKNS_10IdentifierEPNS_14ExpressionNodeENS_12PropertyNode4TypeENS6_7PutTypeEbNS_12SuperBindingENS_9InferNameEb
3358:__ZN3JSC6ParserINS_5LexerIhEEE19parsePropertyMethodINS_10ASTBuilderEEENT_10ExpressionERS6_PKNS_10IdentifierEbb
3359:__ZN3JSC6ParserINS_5LexerIhEEE17parseGetterSetterINS_10ASTBuilderEEENT_8PropertyERS6_bNS_12PropertyNode4TypeEjNS_15ConstructorKindEb
3360:__ZN3JSC10ASTBuilder28createGetterOrSetterPropertyERKNS_15JSTokenLocationENS_12PropertyNode4TypeEbPKNS_10IdentifierERKNS_18ParserFunctionInfoIS0_EEb
3361:__ZN3JSC10ASTBuilder28createGetterOrSetterPropertyERKNS_15JSTokenLocationENS_12PropertyNode4TypeEbPNS_14ExpressionNodeERKNS_18ParserFunctionInfoIS0_EEb
3362:__ZN3JSC10ASTBuilder28createGetterOrSetterPropertyEPNS_2VMERNS_11ParserArenaERKNS_15JSTokenLocationENS_12PropertyNode4TypeEbdRKNS_18ParserFunctionInfoIS0_EEb
3363:__ZN3JSC10ASTBuilder22createMethodDefinitionERKNS_15JSTokenLocationERKNS_18ParserFunctionInfoIS0_EE
3364:__ZN3JSC10ASTBuilder15createClassExprERKNS_15JSTokenLocationERKNS_15ParserClassInfoIS0_EERNS_19VariableEnvironmentEPNS_14ExpressionNodeESB_PNS_16PropertyListNodeESD_
3365:__ZN3WTF6VectorINSt3__24pairIiN3JSC14JSTextPositionEEELm10ENS_20UnsafeVectorOverflowELm16EE14expandCapacityEm
3366:__ZN3JSC6ParserINS_5LexerIhEEE18parseSwitchClausesINS_10ASTBuilderEEENT_10ClauseListERS6_
3367:__ZN3JSC6ParserINS_5LexerIhEEE24parseSwitchDefaultClauseINS_10ASTBuilderEEENT_6ClauseERS6_
3368:__ZN3JSC6ParserINS_5LexerIhEEE28parseVariableDeclarationListINS_10ASTBuilderEEENT_10ExpressionERS6_RiRNS6_20DestructuringPatternERS7_RNS_14JSTextPositionESE_SE_NS3_25VarDeclarationListContextENS_15DeclarationTypeENS3_10ExportTypeERb
3369:__ZN3JSC10ASTBuilder15createForOfLoopERKNS_15JSTokenLocationEPNS_24DestructuringPatternNodeEPNS_14ExpressionNodeEPNS_13StatementNodeES3_RKNS_14JSTextPositionESC_SC_iiRNS_19VariableEnvironmentE
3370:__ZN3JSC10ASTBuilder15createForInLoopERKNS_15JSTokenLocationEPNS_24DestructuringPatternNodeEPNS_14ExpressionNodeEPNS_13StatementNodeES3_RKNS_14JSTextPositionESC_SC_iiRNS_19VariableEnvironmentE
3371:__ZN3JSC10ASTBuilder19createAssignResolveERKNS_15JSTokenLocationERKNS_10IdentifierEPNS_14ExpressionNodeERKNS_14JSTextPositionESB_SB_NS_17AssignmentContextE
3372:__ZN3JSC10ASTBuilder23createFuncDeclStatementERKNS_15JSTokenLocationERKNS_18ParserFunctionInfoIS0_EE
3373:__ZN3JSC5Scope14appendFunctionEPNS_20FunctionMetadataNodeE
3374:__ZN3JSC6ParserINS_5LexerIhEEE22parseExportDeclarationINS_10ASTBuilderEEENT_9StatementERS6_
3375:__ZN3JSC6ParserINS_5LexerIhEEE22parseImportDeclarationINS_10ASTBuilderEEENT_9StatementERS6_
3376:__ZNK3JSC5Scope28hasLexicallyDeclaredVariableERKN3WTF6RefPtrINS1_17UniquedStringImplEEE
3377:__ZN3JSC6ParserINS_5LexerIhEEE8logErrorIJRA19_KcPN3WTF17UniquedStringImplERA50_S5_EEEvbDpOT_
3378:__ZN3JSC6ParserINS_5LexerIhEEE15parseModuleNameINS_10ASTBuilderEEENT_10ModuleNameERS6_
3379:__ZN3JSC6ParserINS_5LexerIhEEE21parseImportClauseItemINS_10ASTBuilderEEENT_15ImportSpecifierERS6_NS3_19ImportSpecifierTypeE
3380:__ZN3JSC23ImportSpecifierListNode6appendEPNS_19ImportSpecifierNodeE
3381:__ZN3JSC6ParserINS_5LexerIhEEE8logErrorIJRA11_KcRA2_S5_RA6_S5_RA4_S5_RA5_S5_RA12_S5_EEEvbDpOT_
3382:__ZN3JSC6ParserINS_5LexerIhEEE8logErrorIJRA42_KcPN3WTF17UniquedStringImplERA16_S5_EEEvbDpOT_
3383:__ZN3JSC6ParserINS_5LexerIhEEE8logErrorIJRA49_KcPN3WTF17UniquedStringImplERA2_S5_EEEvbDpOT_
3384:__ZN3JSC23ImportSpecifierListNodeD2Ev
3385:__ZN3JSC23ImportSpecifierListNodeD0Ev
3386:__ZN3JSC6ParserINS_5LexerIhEEE20parseExportSpecifierINS_10ASTBuilderEEENT_15ExportSpecifierERS6_RN3WTF6VectorINSt3__24pairIPKNS_10IdentifierESF_EELm0ENS9_15CrashOnOverflowELm16EEERb
3387:__ZN3JSC6ParserINS_5LexerIhEEE8logErrorIJRA88_KcEEEvbDpOT_
3388:__ZN3JSC23ExportSpecifierListNodeD2Ev
3389:__ZN3JSC23ExportSpecifierListNodeD0Ev
3390:__ZN3JSC10ASTBuilder23createAsyncFunctionBodyERKNS_15JSTokenLocationERKNS_18ParserFunctionInfoIS0_EENS_15SourceParseModeE
3391:__ZN3WTF6VectorINSt3__24pairIPN3JSC24DestructuringPatternNodeEPNS3_14ExpressionNodeEEELm3ENS_15CrashOnOverflowELm16EE6appendEOS8_
3392:__ZN3JSC18FunctionParametersD2Ev
3393:__ZN3JSC18FunctionParametersD0Ev
3394:__ZZN3JSC6ParserINS_5LexerIhEEE25createGeneratorParametersINS_10ASTBuilderEEENT_19FormalParameterListERS6_RjENKUlRKNS_10IdentifierEE_clESC_
3395:__ZN3JSC6ParserINS_5LexerItEEEC2EPNS_2VMERKNS_10SourceCodeENS_19JSParserBuiltinModeENS_18JSParserStrictModeENS_18JSParserScriptModeENS_15SourceParseModeENS_12SuperBindingENS_15ConstructorKindENS_18DerivedContextTypeEbNS_15EvalContextTypeEPNS_17DebuggerParseDataE
3396:__ZN3JSC6ParserINS_5LexerItEEE10parseInnerERKNS_10IdentifierENS_15SourceParseModeE
3397:__ZN3JSC6ParserINS_5LexerItEEE23parseFunctionParametersINS_10ASTBuilderENS_18ParserFunctionInfoIS5_EEEENT_19FormalParameterListERS8_NS_15SourceParseModeERT0_
3398:__ZN3JSC6ParserINS_5LexerItEEE32parseAsyncFunctionSourceElementsINS_10ASTBuilderEEENT_14SourceElementsERS6_NS_15SourceParseModeEbNS_18SourceElementsModeE
3399:__ZN3JSC6ParserINS_5LexerItEEE52parseArrowFunctionSingleExpressionBodySourceElementsINS_10ASTBuilderEEENT_14SourceElementsERS6_
3400:__ZN3JSC6ParserINS_5LexerItEEE25parseModuleSourceElementsINS_10ASTBuilderEEENT_14SourceElementsERS6_NS_15SourceParseModeE
3401:__ZN3JSC6ParserINS_5LexerItEEE36parseGeneratorFunctionSourceElementsINS_10ASTBuilderEEENT_14SourceElementsERS6_RKNS_10IdentifierENS_18SourceElementsModeE
3402:__ZN3JSC6ParserINS_5LexerItEEE19parseSourceElementsINS_10ASTBuilderEEENT_14SourceElementsERS6_NS_18SourceElementsModeE
3403:__ZN3JSC6ParserINS_5LexerItEEE22parseStatementListItemINS_10ASTBuilderEEENT_9StatementERS6_RPKNS_10IdentifierEPj
3404:__ZN3JSC6ParserINS_5LexerItEEE24parseVariableDeclarationINS_10ASTBuilderEEENT_9StatementERS6_NS_15DeclarationTypeENS3_10ExportTypeE
3405:__ZN3JSC6ParserINS_5LexerItEEE31parseExpressionOrLabelStatementINS_10ASTBuilderEEENT_9StatementERS6_b
3406:__ZN3JSC6ParserINS_5LexerItEEE21parseClassDeclarationINS_10ASTBuilderEEENT_9StatementERS6_NS3_10ExportTypeENS_25DeclarationDefaultContextE
3407:__ZN3JSC6ParserINS_5LexerItEEE24parseFunctionDeclarationINS_10ASTBuilderEEENT_9StatementERS6_NS3_10ExportTypeENS_25DeclarationDefaultContextE
3408:__ZN3JSC6ParserINS_5LexerItEEE29parseAsyncFunctionDeclarationINS_10ASTBuilderEEENT_9StatementERS6_NS3_10ExportTypeENS_25DeclarationDefaultContextE
3409:__ZN3JSC6ParserINS_5LexerItEEE14parseStatementINS_10ASTBuilderEEENT_9StatementERS6_RPKNS_10IdentifierEPj
3410:__ZN3JSC6ParserINS_5LexerItEEE19parseBlockStatementINS_10ASTBuilderEEENT_9StatementERS6_
3411:__ZN3JSC6ParserINS_5LexerItEEE33parseFunctionDeclarationStatementINS_10ASTBuilderEEENT_9StatementERS6_bb
3412:__ZN3JSC6ParserINS_5LexerItEEE16parseIfStatementINS_10ASTBuilderEEENT_9StatementERS6_
3413:__ZN3JSC6ParserINS_5LexerItEEE21parseDoWhileStatementINS_10ASTBuilderEEENT_9StatementERS6_
3414:__ZN3JSC6ParserINS_5LexerItEEE19parseWhileStatementINS_10ASTBuilderEEENT_9StatementERS6_
3415:__ZN3JSC6ParserINS_5LexerItEEE17parseForStatementINS_10ASTBuilderEEENT_9StatementERS6_
3416:__ZN3JSC6ParserINS_5LexerItEEE22parseContinueStatementINS_10ASTBuilderEEENT_9StatementERS6_
3417:__ZN3JSC6ParserINS_5LexerItEEE19parseBreakStatementINS_10ASTBuilderEEENT_9StatementERS6_
3418:__ZN3JSC6ParserINS_5LexerItEEE20parseReturnStatementINS_10ASTBuilderEEENT_9StatementERS6_
3419:__ZN3JSC6ParserINS_5LexerItEEE18parseWithStatementINS_10ASTBuilderEEENT_9StatementERS6_
3420:__ZN3JSC6ParserINS_5LexerItEEE20parseSwitchStatementINS_10ASTBuilderEEENT_9StatementERS6_
3421:__ZN3JSC6ParserINS_5LexerItEEE19parseThrowStatementINS_10ASTBuilderEEENT_9StatementERS6_
3422:__ZN3JSC6ParserINS_5LexerItEEE17parseTryStatementINS_10ASTBuilderEEENT_9StatementERS6_
3423:__ZN3JSC6ParserINS_5LexerItEEE22parseDebuggerStatementINS_10ASTBuilderEEENT_9StatementERS6_
3424:__ZN3JSC6ParserINS_5LexerItEEE43maybeParseAsyncFunctionDeclarationStatementINS_10ASTBuilderEEEbRT_RNS6_9StatementEb
3425:__ZN3JSC6ParserINS_5LexerItEEE24parseExpressionStatementINS_10ASTBuilderEEENT_9StatementERS6_
3426:__ZN3JSC6ParserINS_5LexerItEEE15parseExpressionINS_10ASTBuilderEEENT_10ExpressionERS6_
3427:__ZN3JSC6ParserINS_5LexerItEEE25parseAssignmentExpressionINS_10ASTBuilderEEENT_10ExpressionERS6_RNS3_25ExpressionErrorClassifierE
3428:__ZN3JSC6ParserINS_5LexerItEEE20parseYieldExpressionINS_10ASTBuilderEEENT_10ExpressionERS6_
3429:__ZN3JSC6ParserINS_5LexerItEEE20parseAwaitExpressionINS_10ASTBuilderEEENT_10ExpressionERS6_
3430:__ZN3JSC6ParserINS_5LexerItEEE21parseMemberExpressionINS_10ASTBuilderEEENT_10ExpressionERS6_
3431:__ZN3JSC6ParserINS_5LexerItEEE25parseDestructuringPatternINS_13SyntaxCheckerEEENT_20DestructuringPatternERS6_NS_17DestructuringKindENS3_10ExportTypeEPPKNS_10IdentifierEPbNS_17AssignmentContextEi
3432:__ZN3JSC6ParserINS_5LexerItEEE40parseDefaultValueForDestructuringPatternINS_13SyntaxCheckerEEENT_10ExpressionERS6_
3433:__ZN3JSC6ParserINS_5LexerItEEE28parseArrowFunctionExpressionINS_10ASTBuilderEEENT_10ExpressionERS6_b
3434:__ZN3JSC6ParserINS_5LexerItEEE38tryParseDestructuringPatternExpressionINS_10ASTBuilderEEENT_20DestructuringPatternERS6_NS_17AssignmentContextE
3435:__ZN3JSC6ParserINS_5LexerItEEE25parseDestructuringPatternINS_10ASTBuilderEEENT_20DestructuringPatternERS6_NS_17DestructuringKindENS3_10ExportTypeEPPKNS_10IdentifierEPbNS_17AssignmentContextEi
3436:__ZN3JSC6ParserINS_5LexerItEEE31parseBindingOrAssignmentElementINS_10ASTBuilderEEENT_20DestructuringPatternERS6_NS_17DestructuringKindENS3_10ExportTypeEPPKNS_10IdentifierEPbNS_17AssignmentContextEi
3437:__ZN3JSC6ParserINS_5LexerItEEE40parseDefaultValueForDestructuringPatternINS_10ASTBuilderEEENT_10ExpressionERS6_
3438:__ZN3JSC6ParserINS_5LexerItEEE22parseAssignmentElementINS_10ASTBuilderEEENT_20DestructuringPatternERS6_NS_17DestructuringKindENS3_10ExportTypeEPPKNS_10IdentifierEPbNS_17AssignmentContextEi
3439:__ZN3JSC6ParserINS_5LexerItEEE17parseFunctionInfoINS_10ASTBuilderEEEbRT_NS_24FunctionNameRequirementsENS_15SourceParseModeEbNS_15ConstructorKindENS_12SuperBindingEiRNS_18ParserFunctionInfoIS6_EENS3_22FunctionDefinitionTypeE
3440:__ZZN3JSC6ParserINS_5LexerItEEE17parseFunctionInfoINS_10ASTBuilderEEEbRT_NS_24FunctionNameRequirementsENS_15SourceParseModeEbNS_15ConstructorKindENS_12SuperBindingEiRNS_18ParserFunctionInfoIS6_EENS3_22FunctionDefinitionTypeEENKUlvE_clEv
3441:__ZN3JSC6ParserINS_5LexerItEEE23parseFunctionParametersINS_13SyntaxCheckerENS_18ParserFunctionInfoINS_10ASTBuilderEEEEENT_19FormalParameterListERS9_NS_15SourceParseModeERT0_
3442:__ZN3JSC6ParserINS_5LexerItEEE52parseArrowFunctionSingleExpressionBodySourceElementsINS_13SyntaxCheckerEEENT_14SourceElementsERS6_
3443:__ZN3JSC6ParserINS_5LexerItEEE19parseSourceElementsINS_13SyntaxCheckerEEENT_14SourceElementsERS6_NS_18SourceElementsModeE
3444:__ZN3JSC6ParserINS_5LexerItEEE22parseStatementListItemINS_13SyntaxCheckerEEENT_9StatementERS6_RPKNS_10IdentifierEPj
3445:__ZN3JSC6ParserINS_5LexerItEEE24parseVariableDeclarationINS_13SyntaxCheckerEEENT_9StatementERS6_NS_15DeclarationTypeENS3_10ExportTypeE
3446:__ZN3JSC6ParserINS_5LexerItEEE31parseExpressionOrLabelStatementINS_13SyntaxCheckerEEENT_9StatementERS6_b
3447:__ZN3JSC6ParserINS_5LexerItEEE21parseClassDeclarationINS_13SyntaxCheckerEEENT_9StatementERS6_NS3_10ExportTypeENS_25DeclarationDefaultContextE
3448:__ZN3JSC6ParserINS_5LexerItEEE24parseFunctionDeclarationINS_13SyntaxCheckerEEENT_9StatementERS6_NS3_10ExportTypeENS_25DeclarationDefaultContextE
3449:__ZN3JSC6ParserINS_5LexerItEEE29parseAsyncFunctionDeclarationINS_13SyntaxCheckerEEENT_9StatementERS6_NS3_10ExportTypeENS_25DeclarationDefaultContextE
3450:__ZN3JSC6ParserINS_5LexerItEEE14parseStatementINS_13SyntaxCheckerEEENT_9StatementERS6_RPKNS_10IdentifierEPj
3451:__ZN3JSC6ParserINS_5LexerItEEE19parseBlockStatementINS_13SyntaxCheckerEEENT_9StatementERS6_
3452:__ZN3JSC6ParserINS_5LexerItEEE33parseFunctionDeclarationStatementINS_13SyntaxCheckerEEENT_9StatementERS6_bb
3453:__ZN3JSC6ParserINS_5LexerItEEE16parseIfStatementINS_13SyntaxCheckerEEENT_9StatementERS6_
3454:__ZN3JSC6ParserINS_5LexerItEEE21parseDoWhileStatementINS_13SyntaxCheckerEEENT_9StatementERS6_
3455:__ZN3JSC6ParserINS_5LexerItEEE19parseWhileStatementINS_13SyntaxCheckerEEENT_9StatementERS6_
3456:__ZN3JSC6ParserINS_5LexerItEEE17parseForStatementINS_13SyntaxCheckerEEENT_9StatementERS6_
3457:__ZN3JSC6ParserINS_5LexerItEEE22parseContinueStatementINS_13SyntaxCheckerEEENT_9StatementERS6_
3458:__ZN3JSC6ParserINS_5LexerItEEE19parseBreakStatementINS_13SyntaxCheckerEEENT_9StatementERS6_
3459:__ZN3JSC6ParserINS_5LexerItEEE20parseReturnStatementINS_13SyntaxCheckerEEENT_9StatementERS6_
3460:__ZN3JSC6ParserINS_5LexerItEEE18parseWithStatementINS_13SyntaxCheckerEEENT_9StatementERS6_
3461:__ZN3JSC6ParserINS_5LexerItEEE20parseSwitchStatementINS_13SyntaxCheckerEEENT_9StatementERS6_
3462:__ZN3JSC6ParserINS_5LexerItEEE19parseThrowStatementINS_13SyntaxCheckerEEENT_9StatementERS6_
3463:__ZN3JSC6ParserINS_5LexerItEEE17parseTryStatementINS_13SyntaxCheckerEEENT_9StatementERS6_
3464:__ZN3JSC6ParserINS_5LexerItEEE22parseDebuggerStatementINS_13SyntaxCheckerEEENT_9StatementERS6_
3465:__ZN3JSC6ParserINS_5LexerItEEE43maybeParseAsyncFunctionDeclarationStatementINS_13SyntaxCheckerEEEbRT_RNS6_9StatementEb
3466:__ZN3JSC6ParserINS_5LexerItEEE24parseExpressionStatementINS_13SyntaxCheckerEEENT_9StatementERS6_
3467:__ZN3JSC6ParserINS_5LexerItEEE15parseExpressionINS_13SyntaxCheckerEEENT_10ExpressionERS6_
3468:__ZN3JSC6ParserINS_5LexerItEEE25parseAssignmentExpressionINS_13SyntaxCheckerEEENT_10ExpressionERS6_RNS3_25ExpressionErrorClassifierE
3469:__ZN3JSC6ParserINS_5LexerItEEE20parseYieldExpressionINS_13SyntaxCheckerEEENT_10ExpressionERS6_
3470:__ZN3JSC6ParserINS_5LexerItEEE20parseAwaitExpressionINS_13SyntaxCheckerEEENT_10ExpressionERS6_
3471:__ZN3JSC6ParserINS_5LexerItEEE21parseMemberExpressionINS_13SyntaxCheckerEEENT_10ExpressionERS6_
3472:__ZN3JSC6ParserINS_5LexerItEEE17parseFunctionInfoINS_13SyntaxCheckerEEEbRT_NS_24FunctionNameRequirementsENS_15SourceParseModeEbNS_15ConstructorKindENS_12SuperBindingEiRNS_18ParserFunctionInfoIS6_EENS3_22FunctionDefinitionTypeE
3473:__ZN3JSC6ParserINS_5LexerItEEE38tryParseDestructuringPatternExpressionINS_13SyntaxCheckerEEENT_20DestructuringPatternERS6_NS_17AssignmentContextE
3474:__ZZN3JSC6ParserINS_5LexerItEEE17parseFunctionInfoINS_13SyntaxCheckerEEEbRT_NS_24FunctionNameRequirementsENS_15SourceParseModeEbNS_15ConstructorKindENS_12SuperBindingEiRNS_18ParserFunctionInfoIS6_EENS3_22FunctionDefinitionTypeEENKUlvE_clEv
3475:__ZN3JSC6ParserINS_5LexerItEEE10parseClassINS_13SyntaxCheckerEEENT_15ClassExpressionERS6_NS_24FunctionNameRequirementsERNS_15ParserClassInfoIS6_EE
3476:__ZN3JSC6ParserINS_5LexerItEEE24parseStrictObjectLiteralINS_13SyntaxCheckerEEENT_10ExpressionERS6_
3477:__ZN3JSC6ParserINS_5LexerItEEE13parsePropertyINS_13SyntaxCheckerEEENT_8PropertyERS6_b
3478:__ZN3JSC6ParserINS_5LexerItEEE20parseTemplateLiteralINS_13SyntaxCheckerEEENT_15TemplateLiteralERS6_NS2_19RawStringsBuildModeE
3479:__ZN3JSC6ParserINS_5LexerItEEE19parseTemplateStringINS_13SyntaxCheckerEEENT_14TemplateStringERS6_bNS2_19RawStringsBuildModeERb
3480:__ZN3JSC6ParserINS_5LexerItEEE17parseGetterSetterINS_13SyntaxCheckerEEENT_8PropertyERS6_bNS_12PropertyNode4TypeEjNS_15ConstructorKindEb
3481:__ZN3JSC6ParserINS_5LexerItEEE18parseSwitchClausesINS_13SyntaxCheckerEEENT_10ClauseListERS6_
3482:__ZN3JSC6ParserINS_5LexerItEEE24parseSwitchDefaultClauseINS_13SyntaxCheckerEEENT_6ClauseERS6_
3483:__ZN3JSC6ParserINS_5LexerItEEE28parseVariableDeclarationListINS_13SyntaxCheckerEEENT_10ExpressionERS6_RiRNS6_20DestructuringPatternERS7_RNS_14JSTextPositionESE_SE_NS3_25VarDeclarationListContextENS_15DeclarationTypeENS3_10ExportTypeERb
3484:__ZN3JSC6ParserINS_5LexerItEEE31parseBindingOrAssignmentElementINS_13SyntaxCheckerEEENT_20DestructuringPatternERS6_NS_17DestructuringKindENS3_10ExportTypeEPPKNS_10IdentifierEPbNS_17AssignmentContextEi
3485:__ZN3JSC6ParserINS_5LexerItEEE22parseAssignmentElementINS_13SyntaxCheckerEEENT_20DestructuringPatternERS6_NS_17DestructuringKindENS3_10ExportTypeEPPKNS_10IdentifierEPbNS_17AssignmentContextEi
3486:__ZN3JSC6ParserINS_5LexerItEEE10parseClassINS_10ASTBuilderEEENT_15ClassExpressionERS6_NS_24FunctionNameRequirementsERNS_15ParserClassInfoIS6_EE
3487:__ZN3JSC6ParserINS_5LexerItEEE24parseStrictObjectLiteralINS_10ASTBuilderEEENT_10ExpressionERS6_
3488:__ZN3JSC6ParserINS_5LexerItEEE13parsePropertyINS_10ASTBuilderEEENT_8PropertyERS6_b
3489:__ZN3JSC6ParserINS_5LexerItEEE20parseTemplateLiteralINS_10ASTBuilderEEENT_15TemplateLiteralERS6_NS2_19RawStringsBuildModeE
3490:__ZN3JSC6ParserINS_5LexerItEEE19parseTemplateStringINS_10ASTBuilderEEENT_14TemplateStringERS6_bNS2_19RawStringsBuildModeERb
3491:__ZN3JSC6ParserINS_5LexerItEEE19parsePropertyMethodINS_10ASTBuilderEEENT_10ExpressionERS6_PKNS_10IdentifierEbb
3492:__ZN3JSC6ParserINS_5LexerItEEE17parseGetterSetterINS_10ASTBuilderEEENT_8PropertyERS6_bNS_12PropertyNode4TypeEjNS_15ConstructorKindEb
3493:__ZN3JSC6ParserINS_5LexerItEEE18parseSwitchClausesINS_10ASTBuilderEEENT_10ClauseListERS6_
3494:__ZN3JSC6ParserINS_5LexerItEEE24parseSwitchDefaultClauseINS_10ASTBuilderEEENT_6ClauseERS6_
3495:__ZN3JSC6ParserINS_5LexerItEEE28parseVariableDeclarationListINS_10ASTBuilderEEENT_10ExpressionERS6_RiRNS6_20DestructuringPatternERS7_RNS_14JSTextPositionESE_SE_NS3_25VarDeclarationListContextENS_15DeclarationTypeENS3_10ExportTypeERb
3496:__ZN3JSC6ParserINS_5LexerItEEE22parseExportDeclarationINS_10ASTBuilderEEENT_9StatementERS6_
3497:__ZN3JSC6ParserINS_5LexerItEEE22parseImportDeclarationINS_10ASTBuilderEEENT_9StatementERS6_
3498:__ZN3JSC6ParserINS_5LexerItEEE15parseModuleNameINS_10ASTBuilderEEENT_10ModuleNameERS6_
3499:__ZN3JSC6ParserINS_5LexerItEEE21parseImportClauseItemINS_10ASTBuilderEEENT_15ImportSpecifierERS6_NS3_19ImportSpecifierTypeE
3500:__ZN3JSC6ParserINS_5LexerItEEE20parseExportSpecifierINS_10ASTBuilderEEENT_15ExportSpecifierERS6_RN3WTF6VectorINSt3__24pairIPKNS_10IdentifierESF_EELm0ENS9_15CrashOnOverflowELm16EEERb
3501:__ZN3JSC11ParserArenaC2Ev
3502:__ZN3JSC11ParserArenaD2Ev
3503:__ZN3JSC11ParserArena20allocateFreeablePoolEv
3504:__ZN3JSC14SourceProviderD2Ev
3505:__ZN3JSC14SourceProviderC2ERKNS_12SourceOriginERKN3WTF6StringERKNS4_12TextPositionENS_24SourceProviderSourceTypeE
3506:__ZN3JSC14SourceProvider5getIDEv
3507:__ZN3JSC19SourceProviderCacheD2Ev
3508:__ZN3JSC19SourceProviderCache5clearEv
3509:__ZN3JSC19SourceProviderCache3addEiNSt3__210unique_ptrINS_23SourceProviderCacheItemENS1_14default_deleteIS3_EEEE
3510:__ZN3WTF7HashMapIiNSt3__210unique_ptrIN3JSC23SourceProviderCacheItemENS1_14default_deleteIS4_EEEENS_7IntHashIiEENS_29UnsignedWithZeroKeyHashTraitsIiEENS_10HashTraitsIS7_EEE3addIS7_EENS_18HashTableAddResultINS_17HashTableIteratorIiNS_12KeyValuePairIiS7_EENS_24KeyValuePairKeyExtractorISJ_EES9_NSE_18KeyValuePairTraitsESB_EEEERKiOT_
3511:__ZN3WTF9HashTableIiNS_12KeyValuePairIiNSt3__210unique_ptrIN3JSC23SourceProviderCacheItemENS2_14default_deleteIS5_EEEEEENS_24KeyValuePairKeyExtractorIS9_EENS_7IntHashIiEENS_7HashMapIiS8_SD_NS_29UnsignedWithZeroKeyHashTraitsIiEENS_10HashTraitsIS8_EEE18KeyValuePairTraitsESG_E6rehashEjPS9_
3512:__ZN3WTF9HashTableIiNS_12KeyValuePairIiNSt3__210unique_ptrIN3JSC23SourceProviderCacheItemENS2_14default_deleteIS5_EEEEEENS_24KeyValuePairKeyExtractorIS9_EENS_7IntHashIiEENS_7HashMapIiS8_SD_NS_29UnsignedWithZeroKeyHashTraitsIiEENS_10HashTraitsIS8_EEE18KeyValuePairTraitsESG_E8reinsertEOS9_
3513:__ZNK3JSC18UnlinkedSourceCode6toUTF8Ev
3514:__ZN3JSC19VariableEnvironment31markVariableAsCapturedIfDefinedERKN3WTF6RefPtrINS1_17UniquedStringImplEEE
3515:__ZN3JSC19VariableEnvironment22markVariableAsCapturedERKN3WTF6RefPtrINS1_17UniquedStringImplEEE
3516:__ZN3JSC19VariableEnvironment26markAllVariablesAsCapturedEv
3517:__ZNK3JSC19VariableEnvironment20hasCapturedVariablesEv
3518:__ZNK3JSC19VariableEnvironment8capturesEPN3WTF17UniquedStringImplE
3519:__ZN3JSC19VariableEnvironment4swapERS0_
3520:__ZN3JSC19VariableEnvironment22markVariableAsExportedERKN3WTF6RefPtrINS1_17UniquedStringImplEEE
3521:__ZNK3JSC8Profiler8Bytecode4toJSEPNS_9ExecStateE
3522:__ZN3JSC8Profiler16BytecodeSequenceC2EPNS_9CodeBlockE
3523:__ZN3WTF6VectorINS_7CStringELm0ENS_15CrashOnOverflowELm16EE15reserveCapacityEm
3524:__ZN3WTF6VectorIN3JSC8Profiler8BytecodeELm0ENS_15CrashOnOverflowELm16EE6appendEOS3_
3525:__ZN3WTF6VectorIN3JSC8Profiler8BytecodeELm0ENS_15CrashOnOverflowELm16EE15reserveCapacityEm
3526:__ZN3JSC8Profiler16BytecodeSequenceD2Ev
3527:__ZNK3JSC8Profiler16BytecodeSequence21addSequencePropertiesEPNS_9ExecStateEPNS_8JSObjectE
3528:__ZN3JSC8Profiler9BytecodesC2EmPNS_9CodeBlockE
3529:__ZN3JSC8Profiler9BytecodesD2Ev
3530:__ZNK3JSC8Profiler9Bytecodes4toJSEPNS_9ExecStateE
3531:__ZN3WTF15SegmentedVectorIN3JSC8Profiler7OSRExitELm8EED2Ev
3532:__ZN3JSC8Profiler11CompilationD2Ev
3533:__ZN3JSC8Profiler16BytecodeSequenceC2ERKS1_
3534:__ZNK3JSC8Profiler11Compilation4toJSEPNS_9ExecStateE
3535:__ZN3WTF13printInternalERNS_11PrintStreamEN3JSC8Profiler15CompilationKindE
3536:__ZN3JSC8Profiler16CompiledBytecodeD2Ev
3537:__ZNK3JSC8Profiler16CompiledBytecode4toJSEPNS_9ExecStateE
3538:__ZN3JSC8Profiler8DatabaseC2ERNS_2VME
3539:__ZN3JSC8Profiler8DatabaseD2Ev
3540:__ZNK3JSC8Profiler8Database4saveEPKc
3541:__ZN3WTF6VectorINS_3RefIN3JSC8Profiler11CompilationEEELm0ENS_15CrashOnOverflowELm16EED2Ev
3542:__ZN3WTF15SegmentedVectorIN3JSC8Profiler9BytecodesELm8EED2Ev
3543:__ZNK3JSC8Profiler8Database6toJSONEv
3544:__ZNK3JSC8Profiler8Database4toJSEPNS_9ExecStateE
3545:__ZN3JSC8Profiler8Database18ensureBytecodesForEPNS_9CodeBlockE
3546:__ZN3JSC8Profiler8Database18ensureBytecodesForERKN3WTF14AbstractLockerEPNS_9CodeBlockE
3547:__ZN3WTF15SegmentedVectorIN3JSC8Profiler9BytecodesELm8EE6appendIJS3_EEEvDpOT_
3548:__ZN3JSC8Profiler8Database17notifyDestructionEPNS_9CodeBlockE
3549:__ZN3WTF7HashMapIPN3JSC9CodeBlockEPNS1_8Profiler9BytecodesENS_7PtrHashIS3_EENS_10HashTraitsIS3_EENS9_IS6_EEE6removeERKS3_
3550:__ZN3WTF7HashMapIPN3JSC9CodeBlockENS_3RefINS1_8Profiler11CompilationEEENS_7PtrHashIS3_EENS_10HashTraitsIS3_EENSA_IS7_EEE6removeERKS3_
3551:__ZN3WTF9HashTableIPN3JSC9CodeBlockENS_12KeyValuePairIS3_NS_3RefINS1_8Profiler11CompilationEEEEENS_24KeyValuePairKeyExtractorIS9_EENS_7PtrHashIS3_EENS_7HashMapIS3_S8_SD_NS_10HashTraitsIS3_EENSF_IS8_EEE18KeyValuePairTraitsESG_E6rehashEjPS9_
3552:__ZN3WTF9HashTableIPN3JSC9CodeBlockENS_12KeyValuePairIS3_NS_3RefINS1_8Profiler11CompilationEEEEENS_24KeyValuePairKeyExtractorIS9_EENS_7PtrHashIS3_EENS_7HashMapIS3_S8_SD_NS_10HashTraitsIS3_EENSF_IS8_EEE18KeyValuePairTraitsESG_E8reinsertEOS9_
3553:__ZN3JSC8Profiler8Database20registerToSaveAtExitEPKc
3554:__ZN3JSC8Profiler8Database14atExitCallbackEv
3555:__ZN3JSC8Profiler8Database8logEventEPNS_9CodeBlockEPKcRKN3WTF7CStringE
3556:__ZN3WTF6VectorIN3JSC8Profiler5EventELm0ENS_15CrashOnOverflowELm16EE6appendEOS3_
3557:__ZN3WTF6VectorIN3JSC8Profiler5EventELm0ENS_15CrashOnOverflowELm16EE15reserveCapacityEm
3558:__ZNK3JSC8Profiler5Event4toJSEPNS_9ExecStateE
3559:__ZN3WTF13printInternalERNS_11PrintStreamEN3JSC8Profiler14JettisonReasonE
3560:__ZNK3JSC8Profiler7OSRExit4toJSEPNS_9ExecStateE
3561:__ZNK3JSC8Profiler11OSRExitSite4toJSEPNS_9ExecStateE
3562:__ZNK3JSC8Profiler6Origin4toJSEPNS_9ExecStateE
3563:__ZN3JSC8Profiler11OriginStackD2Ev
3564:__ZNK3JSC8Profiler11OriginStackeqERKS1_
3565:__ZNK3JSC8Profiler11OriginStack4toJSEPNS_9ExecStateE
3566:__ZNK3JSC8Profiler17ProfiledBytecodes4toJSEPNS_9ExecStateE
3567:__ZNK3JSC8Profiler3UID4toJSEPNS_9ExecStateE
3568:__ZN3JSC20AbstractModuleRecord7destroyEPNS_6JSCellE
3569:__ZN3JSC20AbstractModuleRecord13visitChildrenEPNS_6JSCellERNS_11SlotVisitorE
3570:__ZN3JSC20AbstractModuleRecordD2Ev
3571:__ZN3WTF11ListHashSetINS_6RefPtrINS_17UniquedStringImplEEEN3JSC17IdentifierRepHashEED2Ev
3572:__ZN3JSC20AbstractModuleRecord11ImportEntryD2Ev
3573:__ZN3JSC20AbstractModuleRecordC2ERNS_2VMEPNS_9StructureERKNS_10IdentifierE
3574:__ZN3JSC20AbstractModuleRecord14finishCreationEPNS_9ExecStateERNS_2VME
3575:__ZN3JSC5JSMap6createEPNS_9ExecStateERNS_2VMEPNS_9StructureE
3576:__ZN3JSC11HashMapImplINS_13HashMapBucketINS_25HashMapBucketDataKeyValueEEEE14finishCreationEPNS_9ExecStateERNS_2VME
3577:__ZN3JSC20AbstractModuleRecord21appendRequestedModuleERKNS_10IdentifierE
3578:__ZN3WTF11ListHashSetINS_6RefPtrINS_17UniquedStringImplEEEN3JSC17IdentifierRepHashEE3addEOS3_
3579:__ZN3WTF9HashTableIPNS_15ListHashSetNodeINS_6RefPtrINS_17UniquedStringImplEEEEES6_NS_17IdentityExtractorENS_28ListHashSetNodeHashFunctionsIN3JSC17IdentifierRepHashEEENS_10HashTraitsIS6_EESD_E6rehashEjPS6_
3580:__ZN3JSC20AbstractModuleRecord18addStarExportEntryERKNS_10IdentifierE
3581:__ZN3JSC20AbstractModuleRecord14addImportEntryERKNS0_11ImportEntryE
3582:__ZN3WTF7HashMapINS_6RefPtrINS_17UniquedStringImplEEEN3JSC20AbstractModuleRecord11ImportEntryENS4_17IdentifierRepHashENS_10HashTraitsIS3_EENS8_IS6_EEE3addIRKS6_EENS_18HashTableAddResultINS_17HashTableIteratorIS3_NS_12KeyValuePairIS3_S6_EENS_24KeyValuePairKeyExtractorISI_EES7_NSB_18KeyValuePairTraitsES9_EEEEOS3_OT_
3583:__ZN3WTF9HashTableINS_6RefPtrINS_17UniquedStringImplEEENS_12KeyValuePairIS3_N3JSC20AbstractModuleRecord11ImportEntryEEENS_24KeyValuePairKeyExtractorIS8_EENS5_17IdentifierRepHashENS_7HashMapIS3_S7_SB_NS_10HashTraitsIS3_EENSD_IS7_EEE18KeyValuePairTraitsESE_E6rehashEjPS8_
3584:__ZN3JSC20AbstractModuleRecord11ImportEntryaSERKS1_
3585:__ZN3WTF9HashTableINS_6RefPtrINS_17UniquedStringImplEEENS_12KeyValuePairIS3_N3JSC20AbstractModuleRecord11ImportEntryEEENS_24KeyValuePairKeyExtractorIS8_EENS5_17IdentifierRepHashENS_7HashMapIS3_S7_SB_NS_10HashTraitsIS3_EENSD_IS7_EEE18KeyValuePairTraitsESE_E8reinsertEOS8_
3586:__ZN3JSC20AbstractModuleRecord14addExportEntryERKNS0_11ExportEntryE
3587:__ZN3WTF7HashMapINS_6RefPtrINS_17UniquedStringImplEEEN3JSC20AbstractModuleRecord11ExportEntryENS4_17IdentifierRepHashENS_10HashTraitsIS3_EENS8_IS6_EEE3addIRKS6_EENS_18HashTableAddResultINS_17HashTableIteratorIS3_NS_12KeyValuePairIS3_S6_EENS_24KeyValuePairKeyExtractorISI_EES7_NSB_18KeyValuePairTraitsES9_EEEEOS3_OT_
3588:__ZN3WTF9HashTableINS_6RefPtrINS_17UniquedStringImplEEENS_12KeyValuePairIS3_N3JSC20AbstractModuleRecord11ExportEntryEEENS_24KeyValuePairKeyExtractorIS8_EENS5_17IdentifierRepHashENS_7HashMapIS3_S7_SB_NS_10HashTraitsIS3_EENSD_IS7_EEE18KeyValuePairTraitsESE_E6rehashEjPS8_
3589:__ZN3JSC20AbstractModuleRecord11ExportEntryaSERKS1_
3590:__ZN3WTF9HashTableINS_6RefPtrINS_17UniquedStringImplEEENS_12KeyValuePairIS3_N3JSC20AbstractModuleRecord11ExportEntryEEENS_24KeyValuePairKeyExtractorIS8_EENS5_17IdentifierRepHashENS_7HashMapIS3_S7_SB_NS_10HashTraitsIS3_EENSD_IS7_EEE18KeyValuePairTraitsESE_E8reinsertEOS8_
3591:__ZN3JSC20AbstractModuleRecord17tryGetImportEntryEPN3WTF17UniquedStringImplE
3592:__ZN3JSC20AbstractModuleRecord17tryGetExportEntryEPN3WTF17UniquedStringImplE
3593:__ZN3JSC20AbstractModuleRecord11ExportEntry11createLocalERKNS_10IdentifierES4_
3594:__ZN3JSC20AbstractModuleRecord11ExportEntry14createIndirectERKNS_10IdentifierES4_S4_
3595:__ZN3JSC20AbstractModuleRecord25hostResolveImportedModuleEPNS_9ExecStateERKNS_10IdentifierE
3596:__ZN3JSC20AbstractModuleRecord13resolveImportEPNS_9ExecStateERKNS_10IdentifierE
3597:__ZN3JSC20AbstractModuleRecord13resolveExportEPNS_9ExecStateERKNS_10IdentifierE
3598:__ZN3JSC20AbstractModuleRecord17resolveExportImplEPNS_9ExecStateERKNS0_12ResolveQueryE
3599:__ZN3WTF6VectorIN3JSC20AbstractModuleRecord10ResolutionELm8ENS_15CrashOnOverflowELm16EE6appendEOS3_
3600:__ZN3WTF6VectorIZN3JSC20AbstractModuleRecord17resolveExportImplEPNS1_9ExecStateERKNS2_12ResolveQueryEE4TaskLm8ENS_15CrashOnOverflowELm16EE14expandCapacityEm
3601:__ZN3WTF9HashTableIN3JSC20AbstractModuleRecord12ResolveQueryES3_NS_17IdentityExtractorENS3_4HashENS_16CustomHashTraitsIS3_EES7_E3addERKS3_
3602:__ZZN3JSC20AbstractModuleRecord17resolveExportImplEPNS_9ExecStateERKNS0_12ResolveQueryEENK3__0clES5_
3603:__ZN3JSC20AbstractModuleRecord15cacheResolutionEPN3WTF17UniquedStringImplERKNS0_10ResolutionE
3604:__ZN3WTF7HashMapINS_6RefPtrINS_17UniquedStringImplEEEN3JSC20AbstractModuleRecord10ResolutionENS4_17IdentifierRepHashENS_10HashTraitsIS3_EENS8_IS6_EEE3addIRKS6_EENS_18HashTableAddResultINS_17HashTableIteratorIS3_NS_12KeyValuePairIS3_S6_EENS_24KeyValuePairKeyExtractorISI_EES7_NSB_18KeyValuePairTraitsES9_EEEEOS3_OT_
3605:__ZN3WTF9HashTableINS_6RefPtrINS_17UniquedStringImplEEENS_12KeyValuePairIS3_N3JSC20AbstractModuleRecord10ResolutionEEENS_24KeyValuePairKeyExtractorIS8_EENS5_17IdentifierRepHashENS_7HashMapIS3_S7_SB_NS_10HashTraitsIS3_EENSD_IS7_EEE18KeyValuePairTraitsESE_E6rehashEjPS8_
3606:__ZN3WTF17HashMapTranslatorINS_7HashMapINS_6RefPtrINS_17UniquedStringImplEEEN3JSC20AbstractModuleRecord10ResolutionENS5_17IdentifierRepHashENS_10HashTraitsIS4_EENS9_IS7_EEE18KeyValuePairTraitsES8_E9translateINS_12KeyValuePairIS4_S7_EES4_RKS7_EEvRT_OT0_OT1_
3607:__ZN3WTF9HashTableINS_6RefPtrINS_17UniquedStringImplEEENS_12KeyValuePairIS3_N3JSC20AbstractModuleRecord10ResolutionEEENS_24KeyValuePairKeyExtractorIS8_EENS5_17IdentifierRepHashENS_7HashMapIS3_S7_SB_NS_10HashTraitsIS3_EENSD_IS7_EEE18KeyValuePairTraitsESE_E8reinsertEOS8_
3608:__ZN3WTF9HashTableIN3JSC20AbstractModuleRecord12ResolveQueryES3_NS_17IdentityExtractorENS3_4HashENS_16CustomHashTraitsIS3_EES7_E6rehashEjPS3_
3609:__ZN3WTF9HashTableIN3JSC20AbstractModuleRecord12ResolveQueryES3_NS_17IdentityExtractorENS3_4HashENS_16CustomHashTraitsIS3_EES7_E16lookupForWritingINS_22IdentityHashTranslatorIS7_S5_EES3_EENSt3__24pairIPS3_bEERKT0_
3610:__ZN3WTF6VectorIN3JSC20AbstractModuleRecord10ResolutionELm8ENS_15CrashOnOverflowELm16EE15reserveCapacityEm
3611:__ZN3JSC20AbstractModuleRecord18getModuleNamespaceEPNS_9ExecStateE
3612:__ZN3WTF6VectorINSt3__24pairIN3JSC10IdentifierENS3_20AbstractModuleRecord10ResolutionEEELm0ENS_15CrashOnOverflowELm16EE14appendSlowCaseIS7_EEvOT_
3613:__ZN3WTF6VectorINSt3__24pairIN3JSC10IdentifierENS3_20AbstractModuleRecord10ResolutionEEELm0ENS_15CrashOnOverflowELm16EED2Ev
3614:__ZN3WTF6VectorINSt3__24pairIN3JSC10IdentifierENS3_20AbstractModuleRecord10ResolutionEEELm0ENS_15CrashOnOverflowELm16EE15reserveCapacityEm
3615:__ZN3JSC20AbstractModuleRecord4dumpEv
3616:__ZN3JSCL13printableNameERKNS_10IdentifierE
3617:__ZN3JSCL13printableNameERKN3WTF6RefPtrINS0_17UniquedStringImplEEE
3618:__ZN3JSC20MarkedArgumentBuffer10addMarkSetENS_7JSValueE
3619:__ZN3JSC20MarkedArgumentBuffer9markListsERNS_11SlotVisitorERN3WTF7HashSetIPS0_NS3_7PtrHashIS5_EENS3_10HashTraitsIS5_EEEE
3620:__ZN3JSC20MarkedArgumentBuffer14expandCapacityEi
3621:__ZN3JSC20MarkedArgumentBuffer10slowAppendENS_7JSValueE
3622:__ZN3JSC19ArrayBufferContentsC2Ev
3623:__ZN3JSC19ArrayBufferContents5resetEv
3624:__ZN3JSC19ArrayBufferContentsC2EOS0_
3625:__ZN3WTF6RefPtrIN3JSC25SharedArrayBufferContentsEEaSERKS3_
3626:__ZN3JSC19ArrayBufferContentsD2Ev
3627:__ZN3JSC19ArrayBufferContents11tryAllocateEjjNS0_20InitializationPolicyE
3628:__ZN3JSC19ArrayBufferContents10makeSharedEv
3629:__ZN3JSC11ArrayBuffer9tryCreateEjjNS_19ArrayBufferContents20InitializationPolicyE
3630:__ZN3JSC11ArrayBuffer9tryCreateEPKvj
3631:__ZN3JSC11ArrayBuffer14createInternalEONS_19ArrayBufferContentsEPKvj
3632:__ZN3JSC11ArrayBuffer6createEPKvj
3633:__ZN3JSC11ArrayBuffer6createEONS_19ArrayBufferContentsE
3634:__ZN3JSC11ArrayBuffer13createAdoptedEPKvj
3635:__ZN3JSC11ArrayBuffer15createFromBytesEPKvjON3WTF8FunctionIFvPvEEE
3636:__ZNK3JSC11ArrayBuffer5sliceEii
3637:__ZNK3JSC11ArrayBuffer9sliceImplEjj
3638:__ZN3JSC11ArrayBuffer10transferToERNS_2VMERNS_19ArrayBufferContentsE
3639:__ZN3JSC30ArrayBufferNeuteringWatchpoint7destroyEPNS_6JSCellE
3640:__ZN3JSC6JSCell13visitChildrenEPS0_RNS_11SlotVisitorE
3641:__ZN3JSC30ArrayBufferNeuteringWatchpoint15createStructureERNS_2VME
3642:__ZN3JSC30ArrayBufferNeuteringWatchpoint7fireAllEv
3643:__ZN3JSC15ArrayBufferViewD2Ev
3644:__ZN3JSC15ArrayBufferViewC2EON3WTF6RefPtrINS_11ArrayBufferEEEj
3645:__ZN3JSC16ArrayConstructor11getCallDataEPNS_6JSCellERNS_8CallDataE
3646:__ZN3JSC16ArrayConstructor16getConstructDataEPNS_6JSCellERNS_13ConstructDataE
3647:__ZN3JSCL29constructWithArrayConstructorEPNS_9ExecStateE
3648:__ZN3JSC27constructArrayWithSizeQuirkEPNS_9ExecStateEPNS_22ArrayAllocationProfileEPNS_14JSGlobalObjectENS_7JSValueES6_
3649:__ZN3JSCL20callArrayConstructorEPNS_9ExecStateE
3650:__ZN3JSC16ArrayConstructor14finishCreationERNS_2VMEPNS_14JSGlobalObjectEPNS_14ArrayPrototypeEPNS_12GetterSetterE
3651:__ZN3JSC8JSObject26putDirectWithoutTransitionERNS_2VMENS_12PropertyNameENS_7JSValueEj
3652:__ZN3JSC11isArraySlowEPNS_9ExecStateEPNS_11ProxyObjectE
3653:__ZN3JSC38arrayConstructorPrivateFuncIsArraySlowEPNS_9ExecStateE
3654:__ZN3JSC45arrayConstructorPrivateFuncIsArrayConstructorEPNS_9ExecStateE
3655:__ZN3JSC31ArrayIteratorAdaptiveWatchpointD0Ev
3656:__ZN3JSC31ArrayIteratorAdaptiveWatchpoint10handleFireERKNS_10FireDetailE
3657:__ZN3JSC31ArrayIteratorAdaptiveWatchpointC2ERKNS_23ObjectPropertyConditionEPNS_14JSGlobalObjectE
3658:__ZN3JSC22ArrayIteratorPrototype14finishCreationERNS_2VMEPNS_14JSGlobalObjectE
3659:__ZN3JSC14ArrayPrototype7destroyEPNS_6JSCellE
3660:__ZN3JSC48ArrayPrototypeAdaptiveInferredPropertyWatchpoint10handleFireERKNS_10FireDetailE
3661:__ZN3JSC14ArrayPrototype6createERNS_2VMEPNS_14JSGlobalObjectEPNS_9StructureE
3662:__ZN3JSC14ArrayPrototype14finishCreationERNS_2VMEPNS_14JSGlobalObjectE
3663:__ZN3JSC28arrayProtoFuncToLocaleStringEPNS_9ExecStateE
3664:f64-to-uint64
3665:__ZN3JSC18arrayProtoFuncJoinEPNS_9ExecStateE
3666:__ZN3JSC17arrayProtoFuncPopEPNS_9ExecStateE
3667:__ZN3JSC18arrayProtoFuncPushEPNS_9ExecStateE
3668:__ZN3JSC21arrayProtoFuncReverseEPNS_9ExecStateE
3669:__ZN3JSC19arrayProtoFuncShiftEPNS_9ExecStateE
3670:__ZN3JSC19arrayProtoFuncSliceEPNS_9ExecStateE
3671:__ZN3JSC20arrayProtoFuncSpliceEPNS_9ExecStateE
3672:__ZN3JSC21arrayProtoFuncUnShiftEPNS_9ExecStateE
3673:__ZN3JSC21arrayProtoFuncIndexOfEPNS_9ExecStateE
3674:__ZN3JSC25arrayProtoFuncLastIndexOfEPNS_9ExecStateE
3675:__ZN3JSC7unshiftILNS_7JSArray14ShiftCountModeE0EEEvPNS_9ExecStateEPNS_8JSObjectEjjjj
3676:__ZN3JSC14ArrayPrototype30tryInitializeSpeciesWatchpointEPNS_9ExecStateE
3677:__ZN3JSC5shiftILNS_7JSArray14ShiftCountModeE1EEEvPNS_9ExecStateEPNS_8JSObjectEjjjj
3678:__ZN3JSC7unshiftILNS_7JSArray14ShiftCountModeE1EEEvPNS_9ExecStateEPNS_8JSObjectEjjjj
3679:__ZNK3JSC8JSObject8getIndexEPNS_9ExecStateEj
3680:__ZN3JSC5shiftILNS_7JSArray14ShiftCountModeE0EEEvPNS_9ExecStateEPNS_8JSObjectEjjjj
3681:__ZN3JSC22StringRecursionCheckerC2EPNS_9ExecStateEPNS_8JSObjectE
3682:__ZN3JSCL8slowJoinERNS_9ExecStateEPNS_8JSObjectEPNS_8JSStringEy
3683:__ZN3JSCL8fastJoinERNS_9ExecStateEPNS_8JSObjectEN3WTF10StringViewEj
3684:__ZN3JSC14JSStringJoinerC2ERNS_9ExecStateEN3WTF10StringViewEj
3685:__ZN3WTF6VectorIN3JSC30StringViewWithUnderlyingStringELm0ENS_15CrashOnOverflowELm16EE18tryReserveCapacityEm
3686:__ZN3JSC12JSRopeString6createERNS_2VMEPNS_8JSStringES4_
3687:__ZN3JSC12JSRopeString14finishCreationERNS_2VMEPNS_8JSStringES4_S4_
3688:__ZN3JSC14JSStringJoinerC2ERNS_9ExecStateEhj
3689:__ZN3JSC22arrayProtoFuncToStringEPNS_9ExecStateE
3690:__ZN3JSC22jsMakeNontrivialStringIA9_cJN3WTF6StringEA2_cEEENS_7JSValueEPNS_9ExecStateERKT_DpRKT0_
3691:__ZN3JSC33arrayProtoPrivateFuncConcatMemcpyEPNS_9ExecStateE
3692:__ZN3JSCL12moveElementsEPNS_9ExecStateERNS_2VMEPNS_7JSArrayEjS5_j
3693:__ZN3JSC33arrayProtoPrivateFuncAppendMemcpyEPNS_9ExecStateE
3694:__ZN3JSC24AsyncFunctionConstructor11getCallDataEPNS_6JSCellERNS_8CallDataE
3695:__ZN3JSC24AsyncFunctionConstructor16getConstructDataEPNS_6JSCellERNS_13ConstructDataE
3696:__ZN3JSCL33constructAsyncFunctionConstructorEPNS_9ExecStateE
3697:__ZN3JSC24AsyncFunctionConstructor14finishCreationERNS_2VMEPNS_22AsyncFunctionPrototypeE
3698:__ZN3JSC22AsyncFunctionPrototypeC2ERNS_2VMEPNS_9StructureE
3699:__ZN3JSC22AsyncFunctionPrototype14finishCreationERNS_2VME
3700:__ZN3JSC13AtomicsObject6createERNS_2VMEPNS_14JSGlobalObjectEPNS_9StructureE
3701:__ZN3JSC13AtomicsObject14finishCreationERNS_2VMEPNS_14JSGlobalObjectE
3702:__ZN3JSC14atomicsFuncAddEPNS_9ExecStateE
3703:__ZN3JSC14atomicsFuncAndEPNS_9ExecStateE
3704:__ZN3JSC26atomicsFuncCompareExchangeEPNS_9ExecStateE
3705:__ZN3JSC19atomicsFuncExchangeEPNS_9ExecStateE
3706:__ZN3JSC21atomicsFuncIsLockFreeEPNS_9ExecStateE
3707:__ZN3JSC15atomicsFuncLoadEPNS_9ExecStateE
3708:__ZN3JSC13atomicsFuncOrEPNS_9ExecStateE
3709:__ZN3JSC16atomicsFuncStoreEPNS_9ExecStateE
3710:__ZN3JSC14atomicsFuncSubEPNS_9ExecStateE
3711:__ZN3JSC15atomicsFuncWaitEPNS_9ExecStateE
3712:__ZN3JSC15atomicsFuncWakeEPNS_9ExecStateE
3713:__ZN3JSC14atomicsFuncXorEPNS_9ExecStateE
3714:__ZN3JSC12_GLOBAL__N_123atomicOperationWithArgsINS0_7XorFuncEEExRNS_2VMEPNS_9ExecStateEPKNS_7JSValueERKT_
3715:__ZN3JSC12_GLOBAL__N_120validatedAccessIndexERNS_2VMEPNS_9ExecStateENS_7JSValueEPNS_17JSArrayBufferViewE
3716:__ZN3WTF22ScopedLambdaRefFunctorIFbvEZN3JSC15atomicsFuncWaitEPNS2_9ExecStateEE3__0E12implFunctionEPv
3717:__ZN3JSC12_GLOBAL__N_123atomicOperationWithArgsINS0_7SubFuncEEExRNS_2VMEPNS_9ExecStateEPKNS_7JSValueERKT_
3718:__ZN3JSC12_GLOBAL__N_123atomicOperationWithArgsINS0_9StoreFuncEEExRNS_2VMEPNS_9ExecStateEPKNS_7JSValueERKT_
3719:__ZN3JSC12_GLOBAL__N_123atomicOperationWithArgsINS0_6OrFuncEEExRNS_2VMEPNS_9ExecStateEPKNS_7JSValueERKT_
3720:__ZN3JSC12_GLOBAL__N_123atomicOperationWithArgsINS0_8LoadFuncEEExRNS_2VMEPNS_9ExecStateEPKNS_7JSValueERKT_
3721:__ZN3JSC12_GLOBAL__N_123atomicOperationWithArgsINS0_12ExchangeFuncEEExRNS_2VMEPNS_9ExecStateEPKNS_7JSValueERKT_
3722:__ZN3JSC12_GLOBAL__N_123atomicOperationWithArgsINS0_19CompareExchangeFuncEEExRNS_2VMEPNS_9ExecStateEPKNS_7JSValueERKT_
3723:__ZN3JSC12_GLOBAL__N_123atomicOperationWithArgsINS0_7AndFuncEEExRNS_2VMEPNS_9ExecStateEPKNS_7JSValueERKT_
3724:__ZN3JSC12_GLOBAL__N_123atomicOperationWithArgsINS0_7AddFuncEEExRNS_2VMEPNS_9ExecStateEPKNS_7JSValueERKT_
3725:__ZN3JSC13AtomicsObject15createStructureERNS_2VMEPNS_14JSGlobalObjectENS_7JSValueE
3726:__ZN3JSC18BasicBlockLocationC2Eii
3727:__ZN3JSC18BasicBlockLocation9insertGapEii
3728:__ZN3WTF6VectorINSt3__24pairIiiEELm0ENS_15CrashOnOverflowELm16EE14expandCapacityEmPS3_
3729:__ZNK3JSC18BasicBlockLocation17getExecutedRangesEv
3730:__ZNK3JSC18BasicBlockLocation8dumpDataEv
3731:__ZN3JSC18BooleanConstructor11getCallDataEPNS_6JSCellERNS_8CallDataE
3732:__ZN3JSC18BooleanConstructor16getConstructDataEPNS_6JSCellERNS_13ConstructDataE
3733:__ZN3JSCL31constructWithBooleanConstructorEPNS_9ExecStateE
3734:__ZN3JSCL22callBooleanConstructorEPNS_9ExecStateE
3735:__ZN3JSC18BooleanConstructor14finishCreationERNS_2VMEPNS_16BooleanPrototypeE
3736:__ZN3JSC36constructBooleanFromImmediateBooleanEPNS_9ExecStateEPNS_14JSGlobalObjectENS_7JSValueE
3737:__ZN3JSC13BooleanObjectC2ERNS_2VMEPNS_9StructureE
3738:__ZN3JSC13BooleanObject14finishCreationERNS_2VME
3739:__ZN3JSCL24booleanProtoFuncToStringEPNS_9ExecStateE
3740:__ZN3JSCL23booleanProtoFuncValueOfEPNS_9ExecStateE
3741:__ZN3JSC4callEPNS_9ExecStateENS_7JSValueENS_8CallTypeERKNS_8CallDataES2_RKNS_7ArgListE
3742:__ZN3JSC4callEPNS_9ExecStateENS_7JSValueENS_8CallTypeERKNS_8CallDataES2_RKNS_7ArgListERN3WTF8NakedPtrINS_9ExceptionEEE
3743:__ZN3JSC12profiledCallEPNS_9ExecStateENS_15ProfilingReasonENS_7JSValueENS_8CallTypeERKNS_8CallDataES3_RKNS_7ArgListE
3744:__ZN3JSC15ClonedArguments3putEPNS_6JSCellEPNS_9ExecStateENS_12PropertyNameENS_7JSValueERNS_15PutPropertySlotE
3745:__ZN3JSC15ClonedArguments14deletePropertyEPNS_6JSCellEPNS_9ExecStateENS_12PropertyNameE
3746:__ZN3JSC15ClonedArguments18getOwnPropertySlotEPNS_8JSObjectEPNS_9ExecStateENS_12PropertyNameERNS_12PropertySlotE
3747:__ZN3JSC15ClonedArguments19getOwnPropertyNamesEPNS_8JSObjectEPNS_9ExecStateERNS_17PropertyNameArrayENS_15EnumerationModeE
3748:__ZN3JSC15ClonedArguments17defineOwnPropertyEPNS_8JSObjectEPNS_9ExecStateENS_12PropertyNameERKNS_18PropertyDescriptorEb
3749:__ZN3JSC15ClonedArguments19materializeSpecialsEPNS_9ExecStateE
3750:__ZN3JSC15ClonedArguments11createEmptyERNS_2VMEPNS_9StructureEPNS_10JSFunctionEj
3751:__ZN3JSC15ClonedArguments21createWithInlineFrameEPNS_9ExecStateES2_PNS_15InlineCallFrameENS_13ArgumentsModeE
3752:__ZN3JSC15ClonedArguments22createWithMachineFrameEPNS_9ExecStateES2_NS_13ArgumentsModeE
3753:__ZN3JSC15ClonedArguments15createStructureERNS_2VMEPNS_14JSGlobalObjectENS_7JSValueE
3754:__ZN3JSC15ClonedArguments22createSlowPutStructureERNS_2VMEPNS_14JSGlobalObjectENS_7JSValueE
3755:__ZN3JSC12CodeCacheMap13pruneSlowCaseEv
3756:__ZN3WTF22KeyValuePairHashTraitsIN3JSC13SourceCodeKey10HashTraitsENS_10HashTraitsINS1_15SourceCodeValueEEEE18customDeleteBucketERNS_12KeyValuePairIS2_S5_EE
3757:__ZN3WTF9HashTableIN3JSC13SourceCodeKeyENS_12KeyValuePairIS2_NS1_15SourceCodeValueEEENS_24KeyValuePairKeyExtractorIS5_EENS2_4HashENS_7HashMapIS2_S4_S8_NS2_10HashTraitsENS_10HashTraitsIS4_EEE18KeyValuePairTraitsESA_E6rehashEjPS5_
3758:__ZN3WTF9HashTableIN3JSC13SourceCodeKeyENS_12KeyValuePairIS2_NS1_15SourceCodeValueEEENS_24KeyValuePairKeyExtractorIS5_EENS2_4HashENS_7HashMapIS2_S4_S8_NS2_10HashTraitsENS_10HashTraitsIS4_EEE18KeyValuePairTraitsESA_E8reinsertEOS5_
3759:__ZNK3JSC13SourceCodeKeyeqERKS0_
3760:__ZN3WTF12KeyValuePairIN3JSC13SourceCodeKeyENS1_15SourceCodeValueEEC2EOS4_
3761:__ZN3JSC9CodeCache26getUnlinkedGlobalCodeBlockINS_24UnlinkedProgramCodeBlockENS_17ProgramExecutableEEEPT_RNS_2VMEPT0_RKNS_10SourceCodeENS_18JSParserStrictModeENS_18JSParserScriptModeENS_12DebuggerModeERNS_11ParserErrorENS_15EvalContextTypeE
3762:__ZN3JSC13SourceCodeKeyC2ERKNS_18UnlinkedSourceCodeERKN3WTF6StringENS_14SourceCodeTypeENS_18JSParserStrictModeENS_18JSParserScriptModeENS_18DerivedContextTypeENS_15EvalContextTypeEbNS_12DebuggerModeENS_19TypeProfilerEnabledENS_26ControlFlowProfilerEnabledE
3763:__ZN3JSC12CodeCacheMap21findCacheAndUpdateAgeERKNS_13SourceCodeKeyE
3764:__ZN3JSC25generateUnlinkedCodeBlockINS_24UnlinkedProgramCodeBlockENS_17ProgramExecutableEEEPT_RNS_2VMEPT0_RKNS_10SourceCodeENS_18JSParserStrictModeENS_18JSParserScriptModeENS_12DebuggerModeERNS_11ParserErrorENS_15EvalContextTypeEPKNS_19VariableEnvironmentE
3765:__ZN3WTF7HashMapIN3JSC13SourceCodeKeyENS1_15SourceCodeValueENS2_4HashENS2_10HashTraitsENS_10HashTraitsIS3_EEE3addIRKS3_EENS_18HashTableAddResultINS_17HashTableIteratorIS2_NS_12KeyValuePairIS2_S3_EENS_24KeyValuePairKeyExtractorISF_EES4_NS8_18KeyValuePairTraitsES5_EEEERKS2_OT_
3766:__ZN3WTF17HashMapTranslatorINS_7HashMapIN3JSC13SourceCodeKeyENS2_15SourceCodeValueENS3_4HashENS3_10HashTraitsENS_10HashTraitsIS4_EEE18KeyValuePairTraitsES5_E9translateINS_12KeyValuePairIS3_S4_EERKS3_RKS4_EEvRT_OT0_OT1_
3767:__ZN3JSC17BytecodeGenerator8generateIJPNS_11ProgramNodeERPNS_24UnlinkedProgramCodeBlockERNS_12DebuggerModeERPKNS_19VariableEnvironmentEEEENS_11ParserErrorERNS_2VMEDpOT_
3768:__ZN3JSC9CodeCache26getUnlinkedGlobalCodeBlockINS_21UnlinkedEvalCodeBlockENS_22IndirectEvalExecutableEEEPT_RNS_2VMEPT0_RKNS_10SourceCodeENS_18JSParserStrictModeENS_18JSParserScriptModeENS_12DebuggerModeERNS_11ParserErrorENS_15EvalContextTypeE
3769:__ZN3JSC25generateUnlinkedCodeBlockINS_21UnlinkedEvalCodeBlockENS_22IndirectEvalExecutableEEEPT_RNS_2VMEPT0_RKNS_10SourceCodeENS_18JSParserStrictModeENS_18JSParserScriptModeENS_12DebuggerModeERNS_11ParserErrorENS_15EvalContextTypeEPKNS_19VariableEnvironmentE
3770:__ZN3JSC5parseINS_8EvalNodeEEENSt3__210unique_ptrIT_NS2_14default_deleteIS4_EEEEPNS_2VMERKNS_10SourceCodeERKNS_10IdentifierENS_19JSParserBuiltinModeENS_18JSParserStrictModeENS_18JSParserScriptModeENS_15SourceParseModeENS_12SuperBindingERNS_11ParserErrorEPNS_14JSTextPositionENS_15ConstructorKindENS_18DerivedContextTypeENS_15EvalContextTypeEPNS_17DebuggerParseDataE
3771:__ZN3JSC17BytecodeGenerator8generateIJPNS_8EvalNodeERPNS_21UnlinkedEvalCodeBlockERNS_12DebuggerModeERPKNS_19VariableEnvironmentEEEENS_11ParserErrorERNS_2VMEDpOT_
3772:__ZN3JSC6ParserINS_5LexerIhEEE5parseINS_8EvalNodeEEENSt3__210unique_ptrIT_NS6_14default_deleteIS8_EEEERNS_11ParserErrorERKNS_10IdentifierENS_15SourceParseModeE
3773:__ZN3JSC6ParserINS_5LexerItEEE5parseINS_8EvalNodeEEENSt3__210unique_ptrIT_NS6_14default_deleteIS8_EEEERNS_11ParserErrorERKNS_10IdentifierENS_15SourceParseModeE
3774:__ZN3JSC9CodeCache26getUnlinkedGlobalCodeBlockINS_30UnlinkedModuleProgramCodeBlockENS_23ModuleProgramExecutableEEEPT_RNS_2VMEPT0_RKNS_10SourceCodeENS_18JSParserStrictModeENS_18JSParserScriptModeENS_12DebuggerModeERNS_11ParserErrorENS_15EvalContextTypeE
3775:__ZN3JSC25generateUnlinkedCodeBlockINS_30UnlinkedModuleProgramCodeBlockENS_23ModuleProgramExecutableEEEPT_RNS_2VMEPT0_RKNS_10SourceCodeENS_18JSParserStrictModeENS_18JSParserScriptModeENS_12DebuggerModeERNS_11ParserErrorENS_15EvalContextTypeEPKNS_19VariableEnvironmentE
3776:__ZN3JSC17BytecodeGenerator8generateIJPNS_17ModuleProgramNodeERPNS_30UnlinkedModuleProgramCodeBlockERNS_12DebuggerModeERPKNS_19VariableEnvironmentEEEENS_11ParserErrorERNS_2VMEDpOT_
3777:__ZN3JSC9CodeCache35getUnlinkedGlobalFunctionExecutableERNS_2VMERKNS_10IdentifierERKNS_10SourceCodeENS_12DebuggerModeERNS_11ParserErrorE
3778:__ZN3WTF13printInternalERNS_11PrintStreamEN3JSC22CodeSpecializationKindE
3779:__ZN3JSC17CommonIdentifiersC2EPNS_2VME
3780:__ZN3JSC12BuiltinNamesC2EPNS_2VMEPNS_17CommonIdentifiersE
3781:__ZN3JSC12BuiltinNamesD2Ev
3782:__ZN3WTF7HashMapINS_6RefPtrINS_17UniquedStringImplEEEPKN3JSC10IdentifierENS4_17IdentifierRepHashENS_10HashTraitsIS3_EENS9_IS7_EEE3addIS7_EENS_18HashTableAddResultINS_17HashTableIteratorIS3_NS_12KeyValuePairIS3_S7_EENS_24KeyValuePairKeyExtractorISH_EES8_NSC_18KeyValuePairTraitsESA_EEEEOS3_OT_
3783:__ZN3WTF9HashTableINS_6RefPtrINS_17UniquedStringImplEEENS_12KeyValuePairIS3_PKN3JSC10IdentifierEEENS_24KeyValuePairKeyExtractorIS9_EENS5_17IdentifierRepHashENS_7HashMapIS3_S8_SC_NS_10HashTraitsIS3_EENSE_IS8_EEE18KeyValuePairTraitsESF_E6rehashEjPS9_
3784:__ZN3JSC17CommonIdentifiersD2Ev
3785:__ZNK3JSC17CommonIdentifiers13isPrivateNameERKNS_10IdentifierE
3786:__ZNK3JSC17CommonIdentifiers17lookUpPrivateNameERKNS_10IdentifierE
3787:__ZNK3JSC17CommonIdentifiers16lookUpPublicNameERKNS_10IdentifierE
3788:_slow_path_call_arityCheck
3789:_slow_path_construct_arityCheck
3790:_slow_path_create_direct_arguments
3791:_slow_path_create_scoped_arguments
3792:_slow_path_create_cloned_arguments
3793:_slow_path_create_this
3794:_slow_path_to_this
3795:_slow_path_throw_tdz_error
3796:_slow_path_throw_strict_mode_readonly_property_write_error
3797:_slow_path_not
3798:_slow_path_eq
3799:_slow_path_neq
3800:_slow_path_stricteq
3801:_slow_path_nstricteq
3802:_slow_path_less
3803:_slow_path_lesseq
3804:_slow_path_greater
3805:_slow_path_greatereq
3806:_slow_path_inc
3807:_slow_path_dec
3808:_slow_path_to_string
3809:_slow_path_negate
3810:_slow_path_to_number
3811:_slow_path_add
3812:_slow_path_mul
3813:_slow_path_sub
3814:_slow_path_div
3815:_slow_path_mod
3816:_slow_path_pow
3817:_slow_path_lshift
3818:_slow_path_rshift
3819:_slow_path_urshift
3820:_slow_path_unsigned
3821:_slow_path_bitand
3822:_slow_path_bitor
3823:_slow_path_bitxor
3824:_slow_path_typeof
3825:_slow_path_is_object_or_null
3826:_slow_path_is_function
3827:_slow_path_in
3828:__ZN3JSC15CommonSlowPaths4opInEPNS_9ExecStateENS_7JSValueES3_PNS_12ArrayProfileE
3829:_slow_path_strcat
3830:_slow_path_to_primitive
3831:_slow_path_enter
3832:_slow_path_get_enumerable_length
3833:_slow_path_has_indexed_property
3834:_slow_path_has_structure_property
3835:_slow_path_has_generic_property
3836:_slow_path_get_direct_pname
3837:_slow_path_get_property_enumerator
3838:__ZN3JSC22propertyNameEnumeratorEPNS_9ExecStateEPNS_8JSObjectE
3839:_slow_path_next_structure_enumerator_pname
3840:_slow_path_next_generic_enumerator_pname
3841:_slow_path_to_index_string
3842:_slow_path_profile_type_clear_log
3843:_slow_path_assert
3844:_slow_path_create_lexical_environment
3845:__ZN3JSC19JSSymbolTableObjectC2ERNS_2VMEPNS_9StructureEPNS_7JSScopeEPNS_11SymbolTableE
3846:_slow_path_push_with_scope
3847:_slow_path_resolve_scope_for_hoisting_func_decl_in_eval
3848:_slow_path_resolve_scope
3849:_slow_path_create_rest
3850:_slow_path_get_by_id_with_this
3851:_slow_path_get_by_val_with_this
3852:_slow_path_put_by_id_with_this
3853:_slow_path_put_by_val_with_this
3854:_slow_path_define_data_property
3855:_slow_path_define_accessor_property
3856:_slow_path_throw_static_error
3857:_slow_path_new_array_with_spread
3858:_slow_path_spread
3859:__ZN3JSC8JSObject14getDirectIndexEPNS_9ExecStateEj
3860:__ZN3JSC15CommonSlowPaths24interpreterThrowInCallerEPNS_9ExecStateEPNS_8JSObjectE
3861:__ZN3JSC11checkSyntaxEPNS_9ExecStateERKNS_10SourceCodeEPNS_7JSValueE
3862:__ZN3JSC11checkSyntaxERNS_2VMERKNS_10SourceCodeERNS_11ParserErrorE
3863:__ZN3JSC17checkModuleSyntaxEPNS_9ExecStateERKNS_10SourceCodeERNS_11ParserErrorE
3864:__ZN3JSC8evaluateEPNS_9ExecStateERKNS_10SourceCodeENS_7JSValueERN3WTF8NakedPtrINS_9ExceptionEEE
3865:__ZN3JSC26evaluateWithScopeExtensionEPNS_9ExecStateERKNS_10SourceCodeEPNS_8JSObjectERN3WTF8NakedPtrINS_9ExceptionEEE
3866:__ZN3JSC21loadAndEvaluateModuleEPNS_9ExecStateERKN3WTF6StringENS_7JSValueE
3867:__ZN3JSC19identifierToJSValueERNS_2VMERKNS_10IdentifierE
3868:__ZN3JSC21loadAndEvaluateModuleEPNS_9ExecStateERKNS_10SourceCodeENS_7JSValueE
3869:__ZN3JSCL31createSymbolForEntryPointModuleERNS_2VME
3870:__ZN3JSC12importModuleEPNS_9ExecStateERKNS_10IdentifierENS_7JSValueE
3871:__ZN3JSC13ConsoleClient32printConsoleMessageWithArgumentsENS_13MessageSourceENS_11MessageTypeENS_12MessageLevelEPNS_9ExecStateEON3WTF3RefIN9Inspector15ScriptArgumentsEEE
3872:__ZN3JSC13ConsoleClient12logWithLevelEPNS_9ExecStateEON3WTF3RefIN9Inspector15ScriptArgumentsEEENS_12MessageLevelE
3873:__ZN3JSC13ConsoleClient5clearEPNS_9ExecStateE
3874:__ZN3JSC13ConsoleClient3dirEPNS_9ExecStateEON3WTF3RefIN9Inspector15ScriptArgumentsEEE
3875:__ZN3JSC13ConsoleClient6dirXMLEPNS_9ExecStateEON3WTF3RefIN9Inspector15ScriptArgumentsEEE
3876:__ZN3JSC13ConsoleClient5tableEPNS_9ExecStateEON3WTF3RefIN9Inspector15ScriptArgumentsEEE
3877:__ZN3JSC13ConsoleClient5traceEPNS_9ExecStateEON3WTF3RefIN9Inspector15ScriptArgumentsEEE
3878:__ZN3JSC13ConsoleClient9assertionEPNS_9ExecStateEON3WTF3RefIN9Inspector15ScriptArgumentsEEE
3879:__ZN3JSC13ConsoleClient5groupEPNS_9ExecStateEON3WTF3RefIN9Inspector15ScriptArgumentsEEE
3880:__ZN3JSC13ConsoleClient14groupCollapsedEPNS_9ExecStateEON3WTF3RefIN9Inspector15ScriptArgumentsEEE
3881:__ZN3JSC13ConsoleClient8groupEndEPNS_9ExecStateEON3WTF3RefIN9Inspector15ScriptArgumentsEEE
3882:__ZN3JSC13ConsoleObject14finishCreationERNS_2VMEPNS_14JSGlobalObjectE
3883:__ZN3JSCL21consoleProtoFuncDebugEPNS_9ExecStateE
3884:__ZN3JSCL21consoleProtoFuncErrorEPNS_9ExecStateE
3885:__ZN3JSCL19consoleProtoFuncLogEPNS_9ExecStateE
3886:__ZN3JSCL20consoleProtoFuncInfoEPNS_9ExecStateE
3887:__ZN3JSCL20consoleProtoFuncWarnEPNS_9ExecStateE
3888:__ZN3JSCL21consoleProtoFuncClearEPNS_9ExecStateE
3889:__ZN3JSCL19consoleProtoFuncDirEPNS_9ExecStateE
3890:__ZN3JSCL22consoleProtoFuncDirXMLEPNS_9ExecStateE
3891:__ZN3JSCL21consoleProtoFuncTableEPNS_9ExecStateE
3892:__ZN3JSCL21consoleProtoFuncTraceEPNS_9ExecStateE
3893:__ZN3JSCL22consoleProtoFuncAssertEPNS_9ExecStateE
3894:__ZN3JSCL21consoleProtoFuncCountEPNS_9ExecStateE
3895:__ZN3JSCL23consoleProtoFuncProfileEPNS_9ExecStateE
3896:__ZN3JSCL26consoleProtoFuncProfileEndEPNS_9ExecStateE
3897:__ZN3JSCL20consoleProtoFuncTimeEPNS_9ExecStateE
3898:__ZN3JSCL23consoleProtoFuncTimeEndEPNS_9ExecStateE
3899:__ZN3JSCL25consoleProtoFuncTimeStampEPNS_9ExecStateE
3900:__ZN3JSCL32consoleProtoFuncTakeHeapSnapshotEPNS_9ExecStateE
3901:__ZN3JSCL21consoleProtoFuncGroupEPNS_9ExecStateE
3902:__ZN3JSCL30consoleProtoFuncGroupCollapsedEPNS_9ExecStateE
3903:__ZN3JSCL24consoleProtoFuncGroupEndEPNS_9ExecStateE
3904:__ZN3JSCL19consoleLogWithLevelEPNS_9ExecStateENS_12MessageLevelE
3905:__ZN3JSC9constructEPNS_9ExecStateENS_7JSValueERKNS_7ArgListEPKc
3906:__ZN3JSC9constructEPNS_9ExecStateENS_7JSValueENS_13ConstructTypeERKNS_13ConstructDataERKNS_7ArgListES2_
3907:__ZN3JSC19ControlFlowProfilerC2Ev
3908:__ZN3JSC19ControlFlowProfilerD2Ev
3909:__ZN3JSC19ControlFlowProfiler21getBasicBlockLocationElii
3910:__ZN3WTF7HashMapIlNS0_IN3JSC13BasicBlockKeyEPNS1_18BasicBlockLocationENS1_17BasicBlockKeyHashENS_10HashTraitsIS2_EENS6_IS4_EEEENS_7IntHashImEENS6_IlEENS6_IS9_EEE3addIS9_EENS_18HashTableAddResultINS_17HashTableIteratorIlNS_12KeyValuePairIlS9_EENS_24KeyValuePairKeyExtractorISJ_EESB_NSE_18KeyValuePairTraitsESC_EEEERKlOT_
3911:__ZN3WTF7HashMapIN3JSC13BasicBlockKeyEPNS1_18BasicBlockLocationENS1_17BasicBlockKeyHashENS_10HashTraitsIS2_EENS6_IS4_EEE3addIDnEENS_18HashTableAddResultINS_17HashTableIteratorIS2_NS_12KeyValuePairIS2_S4_EENS_24KeyValuePairKeyExtractorISE_EES5_NS9_18KeyValuePairTraitsES7_EEEERKS2_OT_
3912:__ZN3WTF9HashTableIN3JSC13BasicBlockKeyENS_12KeyValuePairIS2_PNS1_18BasicBlockLocationEEENS_24KeyValuePairKeyExtractorIS6_EENS1_17BasicBlockKeyHashENS_7HashMapIS2_S5_S9_NS_10HashTraitsIS2_EENSB_IS5_EEE18KeyValuePairTraitsESC_E6rehashEjPS6_
3913:__ZN3WTF9HashTableIlNS_12KeyValuePairIlNS_7HashMapIN3JSC13BasicBlockKeyEPNS3_18BasicBlockLocationENS3_17BasicBlockKeyHashENS_10HashTraitsIS4_EENS8_IS6_EEEEEENS_24KeyValuePairKeyExtractorISC_EENS_7IntHashImEENS2_IlSB_SG_NS8_IlEENS8_ISB_EEE18KeyValuePairTraitsESH_E6rehashEjPSC_
3914:__ZNK3JSC19ControlFlowProfiler8dumpDataEv
3915:__ZNK3JSC19ControlFlowProfiler25getBasicBlocksForSourceIDElRNS_2VME
3916:__ZN3JSC19ControlFlowProfiler37hasBasicBlockAtTextOffsetBeenExecutedEilRNS_2VME
3917:__ZN3JSC19ControlFlowProfiler36basicBlockExecutionCountAtTextOffsetEilRNS_2VME
3918:__ZN3JSC16callCustomSetterEPNS_9ExecStateEPFbS1_xxEbNS_7JSValueES4_
3919:__ZN3JSC16callCustomSetterEPNS_9ExecStateENS_7JSValueEbPNS_8JSObjectES2_S2_
3920:__ZNK3JSC8DataView7getTypeEv
3921:__ZNK3JSC8DataView10byteLengthEv
3922:__ZN3JSC8DataViewD0Ev
3923:__ZN3JSC8DataView4wrapEPNS_9ExecStateEPNS_14JSGlobalObjectE
3924:__ZN3JSC8DataView6createEON3WTF6RefPtrINS_11ArrayBufferEEEjj
3925:__ZN3JSC15DateConstructor11getCallDataEPNS_6JSCellERNS_8CallDataE
3926:__ZN3JSC15DateConstructor16getConstructDataEPNS_6JSCellERNS_13ConstructDataE
3927:__ZN3JSCL28constructWithDateConstructorEPNS_9ExecStateE
3928:__ZN3JSC13constructDateEPNS_9ExecStateEPNS_14JSGlobalObjectENS_7JSValueERKNS_7ArgListE
3929:__ZN3JSCL26millisecondsFromComponentsEPNS_9ExecStateERKNS_7ArgListEN3WTF8TimeTypeE
3930:__ZN3JSCL8callDateEPNS_9ExecStateE
3931:__ZN3JSC9dateParseEPNS_9ExecStateE
3932:__ZN3JSC7dateUTCEPNS_9ExecStateE
3933:__ZN3JSC7dateNowEPNS_9ExecStateE
3934:__ZN3JSC15DateConstructor14finishCreationERNS_2VMEPNS_13DatePrototypeE
3935:i32s-rem
3936:__ZN3JSC14formatDateTimeERKN3WTF17GregorianDateTimeENS_14DateTimeFormatEb
3937:__ZN3JSC12DateInstance7destroyEPNS_6JSCellE
3938:__ZN3JSC12DateInstanceC2ERNS_2VMEPNS_9StructureE
3939:__ZN3JSC12DateInstance14finishCreationERNS_2VMEd
3940:__ZNK3JSC12DateInstance26calculateGregorianDateTimeEPNS_9ExecStateE
3941:__ZN3JSC17DateInstanceCache3addEd
3942:__ZNK3JSC12DateInstance29calculateGregorianDateTimeUTCEPNS_9ExecStateE
3943:__ZN3JSC21dateProtoFuncToStringEPNS_9ExecStateE
3944:__ZN3JSC24dateProtoFuncToISOStringEPNS_9ExecStateE
3945:__ZN3JSC25dateProtoFuncToDateStringEPNS_9ExecStateE
3946:__ZN3JSC25dateProtoFuncToTimeStringEPNS_9ExecStateE
3947:__ZN3JSC27dateProtoFuncToLocaleStringEPNS_9ExecStateE
3948:__ZN3JSC31dateProtoFuncToLocaleDateStringEPNS_9ExecStateE
3949:__ZN3JSC31dateProtoFuncToLocaleTimeStringEPNS_9ExecStateE
3950:__ZN3JSC20dateProtoFuncGetTimeEPNS_9ExecStateE
3951:__ZN3JSC24dateProtoFuncGetFullYearEPNS_9ExecStateE
3952:__ZN3JSC27dateProtoFuncGetUTCFullYearEPNS_9ExecStateE
3953:__ZN3JSC21dateProtoFuncGetMonthEPNS_9ExecStateE
3954:__ZN3JSC24dateProtoFuncGetUTCMonthEPNS_9ExecStateE
3955:__ZN3JSC20dateProtoFuncGetDateEPNS_9ExecStateE
3956:__ZN3JSC23dateProtoFuncGetUTCDateEPNS_9ExecStateE
3957:__ZN3JSC19dateProtoFuncGetDayEPNS_9ExecStateE
3958:__ZN3JSC22dateProtoFuncGetUTCDayEPNS_9ExecStateE
3959:__ZN3JSC21dateProtoFuncGetHoursEPNS_9ExecStateE
3960:__ZN3JSC24dateProtoFuncGetUTCHoursEPNS_9ExecStateE
3961:__ZN3JSC23dateProtoFuncGetMinutesEPNS_9ExecStateE
3962:__ZN3JSC26dateProtoFuncGetUTCMinutesEPNS_9ExecStateE
3963:__ZN3JSC23dateProtoFuncGetSecondsEPNS_9ExecStateE
3964:__ZN3JSC26dateProtoFuncGetUTCSecondsEPNS_9ExecStateE
3965:__ZN3JSC28dateProtoFuncGetMilliSecondsEPNS_9ExecStateE
3966:__ZN3JSC30dateProtoFuncGetTimezoneOffsetEPNS_9ExecStateE
3967:__ZN3JSC20dateProtoFuncSetTimeEPNS_9ExecStateE
3968:__ZN3JSC28dateProtoFuncSetMilliSecondsEPNS_9ExecStateE
3969:__ZN3JSC31dateProtoFuncSetUTCMillisecondsEPNS_9ExecStateE
3970:__ZN3JSC23dateProtoFuncSetSecondsEPNS_9ExecStateE
3971:__ZN3JSC26dateProtoFuncSetUTCSecondsEPNS_9ExecStateE
3972:__ZN3JSC23dateProtoFuncSetMinutesEPNS_9ExecStateE
3973:__ZN3JSC26dateProtoFuncSetUTCMinutesEPNS_9ExecStateE
3974:__ZN3JSC21dateProtoFuncSetHoursEPNS_9ExecStateE
3975:__ZN3JSC24dateProtoFuncSetUTCHoursEPNS_9ExecStateE
3976:__ZN3JSC20dateProtoFuncSetDateEPNS_9ExecStateE
3977:__ZN3JSC23dateProtoFuncSetUTCDateEPNS_9ExecStateE
3978:__ZN3JSC21dateProtoFuncSetMonthEPNS_9ExecStateE
3979:__ZN3JSC24dateProtoFuncSetUTCMonthEPNS_9ExecStateE
3980:__ZN3JSC24dateProtoFuncSetFullYearEPNS_9ExecStateE
3981:__ZN3JSC27dateProtoFuncSetUTCFullYearEPNS_9ExecStateE
3982:__ZN3JSC20dateProtoFuncSetYearEPNS_9ExecStateE
3983:__ZN3JSC20dateProtoFuncGetYearEPNS_9ExecStateE
3984:__ZN3JSC19dateProtoFuncToJSONEPNS_9ExecStateE
3985:__ZN3JSCL23setNewValueFromDateArgsEPNS_9ExecStateEiN3WTF8TimeTypeE
3986:__ZN3JSCL27fillStructuresUsingDateArgsEPNS_9ExecStateEiPdPN3WTF17GregorianDateTimeE
3987:__ZN3JSCL23setNewValueFromTimeArgsEPNS_9ExecStateEiN3WTF8TimeTypeE
3988:__ZN3JSCL16formatLocaleDateEPNS_9ExecStateEPNS_12DateInstanceEdNS_20LocaleDateTimeFormatE
3989:__ZN3JSCL19formateDateInstanceEPNS_9ExecStateENS_14DateTimeFormatEb
3990:__ZN3JSC13DatePrototype14finishCreationERNS_2VMEPNS_14JSGlobalObjectE
3991:__ZN3JSC24dateProtoFuncToUTCStringEPNS_9ExecStateE
3992:__ZN3JSC30dateProtoFuncToPrimitiveSymbolEPNS_9ExecStateE
3993:__ZN3JSC15DirectArguments13visitChildrenEPNS_6JSCellERNS_11SlotVisitorE
3994:__ZN3JSC16GenericArgumentsINS_15DirectArgumentsEE3putEPNS_6JSCellEPNS_9ExecStateENS_12PropertyNameENS_7JSValueERNS_15PutPropertySlotE
3995:__ZN3JSC16GenericArgumentsINS_15DirectArgumentsEE10putByIndexEPNS_6JSCellEPNS_9ExecStateEjNS_7JSValueEb
3996:__ZN3JSC16GenericArgumentsINS_15DirectArgumentsEE14deletePropertyEPNS_6JSCellEPNS_9ExecStateENS_12PropertyNameE
3997:__ZN3JSC16GenericArgumentsINS_15DirectArgumentsEE21deletePropertyByIndexEPNS_6JSCellEPNS_9ExecStateEj
3998:__ZN3JSC16GenericArgumentsINS_15DirectArgumentsEE18getOwnPropertySlotEPNS_8JSObjectEPNS_9ExecStateENS_12PropertyNameERNS_12PropertySlotE
3999:__ZN3JSC16GenericArgumentsINS_15DirectArgumentsEE25getOwnPropertySlotByIndexEPNS_8JSObjectEPNS_9ExecStateEjRNS_12PropertySlotE
4000:__ZN3JSC16GenericArgumentsINS_15DirectArgumentsEE19getOwnPropertyNamesEPNS_8JSObjectEPNS_9ExecStateERNS_17PropertyNameArrayENS_15EnumerationModeE
4001:__ZN3JSC16GenericArgumentsINS_15DirectArgumentsEE17defineOwnPropertyEPNS_8JSObjectEPNS_9ExecStateENS_12PropertyNameERKNS_18PropertyDescriptorEb
4002:__ZN3JSC15DirectArguments13estimatedSizeEPNS_6JSCellE
4003:__ZN3JSC15DirectArguments14overrideThingsERNS_2VME
4004:__ZN3JSC15DirectArguments19createUninitializedERNS_2VMEPNS_9StructureEjj
4005:__ZN3JSC15DirectArguments15createByCopyingEPNS_9ExecStateE
4006:__ZN3JSC15DirectArguments15createStructureERNS_2VMEPNS_14JSGlobalObjectENS_7JSValueE
4007:__ZN3JSC15DirectArguments15copyToArgumentsEPNS_9ExecStateENS_15VirtualRegisterEjj
4008:__ZN3JSC16GenericArgumentsINS_15DirectArgumentsEE15copyToArgumentsEPNS_9ExecStateENS_15VirtualRegisterEjj
4009:__ZNK3JSC21DirectArgumentsOffset4dumpERN3WTF11PrintStreamE
4010:__ZN3JSC20DirectEvalExecutable6createEPNS_9ExecStateERKNS_10SourceCodeEbNS_18DerivedContextTypeEbNS_15EvalContextTypeEPKNS_19VariableEnvironmentE
4011:__ZN3JSC25generateUnlinkedCodeBlockINS_21UnlinkedEvalCodeBlockENS_20DirectEvalExecutableEEEPT_RNS_2VMEPT0_RKNS_10SourceCodeENS_18JSParserStrictModeENS_18JSParserScriptModeENS_12DebuggerModeERNS_11ParserErrorENS_15EvalContextTypeEPKNS_19VariableEnvironmentE
4012:__ZN3JSC19esSpecIsConstructorEPNS_9ExecStateE
4013:__ZN3JSC15createTypeErrorEPNS_9ExecStateERKN3WTF6StringEPFS3_S5_S5_NS_11RuntimeTypeENS_13ErrorInstance28SourceTextWhereErrorOccurredEES6_
4014:__ZN3JSC11createErrorEPNS_9ExecStateENS_9ErrorTypeERKN3WTF6StringE
4015:__ZN3JSC11createErrorEPNS_9ExecStateERKN3WTF6StringE
4016:__ZN3JSC15createEvalErrorEPNS_9ExecStateERKN3WTF6StringE
4017:__ZN3JSC16createRangeErrorEPNS_9ExecStateERKN3WTF6StringE
4018:__ZN3JSC20createReferenceErrorEPNS_9ExecStateERKN3WTF6StringE
4019:__ZN3JSC17createSyntaxErrorEPNS_9ExecStateERKN3WTF6StringE
4020:__ZN3JSC15createTypeErrorEPNS_9ExecStateERKN3WTF6StringE
4021:__ZN3JSC14createURIErrorEPNS_9ExecStateERKN3WTF6StringE
4022:__ZN3JSC32addErrorInfoAndGetBytecodeOffsetEPNS_9ExecStateERNS_2VMEPNS_8JSObjectEbRS1_Pj
4023:__ZN3JSC12addErrorInfoEPNS_9ExecStateEPNS_8JSObjectEiRKNS_10SourceCodeE
4024:__ZN3JSC49throwConstructorCannotBeCalledAsFunctionTypeErrorEPNS_9ExecStateERNS_10ThrowScopeEPKc
4025:__ZN3WTF13tryMakeStringIJPKcS2_S2_EEENS_6StringEDpT_
4026:__ZN3JSC14throwTypeErrorEPNS_9ExecStateERNS_10ThrowScopeERKN3WTF6StringE
4027:__ZN3JSC14throwTypeErrorEPNS_9ExecStateERNS_10ThrowScopeE
4028:__ZN3JSC15createTypeErrorEPNS_9ExecStateE
4029:__ZN3JSC14throwTypeErrorEPNS_9ExecStateERNS_10ThrowScopeEN3WTF12ASCIILiteralE
4030:__ZN3JSC16throwSyntaxErrorEPNS_9ExecStateERNS_10ThrowScopeE
4031:__ZN3JSC16throwSyntaxErrorEPNS_9ExecStateERNS_10ThrowScopeERKN3WTF6StringE
4032:__ZN3JSC22createOutOfMemoryErrorEPNS_9ExecStateE
4033:__ZN3WTF13printInternalERNS_11PrintStreamEN3JSC9ErrorTypeE
4034:__ZN3JSC16ErrorConstructor11getCallDataEPNS_6JSCellERNS_8CallDataE
4035:__ZN3JSC16ErrorConstructor16getConstructDataEPNS_6JSCellERNS_13ConstructDataE
4036:__ZN3JSC16ErrorConstructor3putEPNS_6JSCellEPNS_9ExecStateENS_12PropertyNameENS_7JSValueERNS_15PutPropertySlotE
4037:__ZN3JSC16ErrorConstructor14deletePropertyEPNS_6JSCellEPNS_9ExecStateENS_12PropertyNameE
4038:__ZN3JSC11Interpreter29constructWithErrorConstructorEPNS_9ExecStateE
4039:__ZN3JSC11Interpreter20callErrorConstructorEPNS_9ExecStateE
4040:__ZN3JSC16ErrorConstructor14finishCreationERNS_2VMEPNS_14ErrorPrototypeE
4041:__ZN3JSC18ErrorHandlingScopeC2ERNS_2VME
4042:__ZN3JSC18ErrorHandlingScopeD2Ev
4043:__ZN3JSC13ErrorInstanceC2ERNS_2VMEPNS_9StructureE
4044:__ZN3JSC13ErrorInstance6createEPNS_9ExecStateEPNS_9StructureENS_7JSValueEPFN3WTF6StringERKS7_S9_NS_11RuntimeTypeENS0_28SourceTextWhereErrorOccurredEESA_b
4045:__ZN3JSC13ErrorInstance14finishCreationEPNS_9ExecStateERNS_2VMERKN3WTF6StringEb
4046:__ZN3JSCL22errorProtoFuncToStringEPNS_9ExecStateE
4047:__ZN3JSC22jsMakeNontrivialStringIN3WTF6StringEJA3_cS2_EEENS_7JSValueEPNS_9ExecStateERKT_DpRKT0_
4048:__ZN3JSC14ErrorPrototype14finishCreationERNS_2VME
4049:__ZN3JSC14EvalExecutable7destroyEPNS_6JSCellE
4050:__ZN3JSC14EvalExecutable13visitChildrenEPNS_6JSCellERNS_11SlotVisitorE
4051:__ZN3JSC14EvalExecutableC2EPNS_9ExecStateERKNS_10SourceCodeEbNS_18DerivedContextTypeEbNS_15EvalContextTypeE
4052:__ZN3JSC9Exception7destroyEPNS_6JSCellE
4053:__ZN3JSC9Exception6createERNS_2VMENS_7JSValueENS0_18StackCaptureActionE
4054:__ZN3JSC9Exception14finishCreationERNS_2VMENS_7JSValueENS0_18StackCaptureActionE
4055:__ZN3JSC9Exception15createStructureERNS_2VMEPNS_14JSGlobalObjectENS_7JSValueE
4056:__ZN3JSC18doExceptionFuzzingEPNS_9ExecStateERNS_10ThrowScopeEPKcPv
4057:__ZN3JSC24TerminatedExecutionError12defaultValueEPKNS_8JSObjectEPNS_9ExecStateENS_22PreferredPrimitiveTypeE
4058:__ZN3JSC34createTerminatedExecutionExceptionEPNS_2VME
4059:__ZN3JSC30isTerminatedExecutionExceptionERNS_2VMEPNS_9ExceptionE
4060:__ZN3JSC24createStackOverflowErrorEPNS_9ExecStateE
4061:__ZN3JSC28createUndefinedVariableErrorEPNS_9ExecStateERKNS_10IdentifierE
4062:__ZN3WTF10makeStringIJPKcNS_6StringEEEES3_DpT_
4063:__ZN3JSC24errorDescriptionForValueEPNS_9ExecStateENS_7JSValueE
4064:__ZN3WTF10makeStringIJcNS_6StringEcEEES1_DpT_
4065:__ZN3WTF25tryMakeStringFromAdaptersINS_17StringTypeAdapterIcEEJNS1_INS_6StringEEES2_EEES3_T_DpT0_
4066:__ZN3JSC21defaultSourceAppenderERKN3WTF6StringES3_NS_11RuntimeTypeENS_13ErrorInstance28SourceTextWhereErrorOccurredE
4067:__ZN3JSCL29defaultApproximateSourceErrorERKN3WTF6StringES3_
4068:__ZN3WTF10makeStringIJNS_6StringEPKcS1_S3_EEES1_DpT_
4069:__ZN3WTF25tryMakeStringFromAdaptersINS_17StringTypeAdapterINS_6StringEEEJNS1_IPKcEES3_S6_EEES2_T_DpT0_
4070:__ZN3JSC11createErrorEPNS_9ExecStateENS_7JSValueERKN3WTF6StringEPFS4_S6_S6_NS_11RuntimeTypeENS_13ErrorInstance28SourceTextWhereErrorOccurredEE
4071:__ZN3WTF10makeStringIJNS_6StringEcS1_EEES1_DpT_
4072:__ZN3WTF25tryMakeStringFromAdaptersINS_17StringTypeAdapterINS_6StringEEEJNS1_IcEES3_EEES2_T_DpT0_
4073:__ZN3JSC40createInvalidFunctionApplyParameterErrorEPNS_9ExecStateENS_7JSValueE
4074:__ZN3JSC29createInvalidInParameterErrorEPNS_9ExecStateENS_7JSValueE
4075:__ZN3JSCL32invalidParameterInSourceAppenderERKN3WTF6StringES3_NS_11RuntimeTypeENS_13ErrorInstance28SourceTextWhereErrorOccurredE
4076:__ZN3JSC48createInvalidInstanceofParameterErrorNotFunctionEPNS_9ExecStateENS_7JSValueE
4077:__ZN3JSCL51invalidParameterInstanceofNotFunctionSourceAppenderERKN3WTF6StringES3_NS_11RuntimeTypeENS_13ErrorInstance28SourceTextWhereErrorOccurredE
4078:__ZN3JSC40invalidParameterInstanceofSourceAppenderERKN3WTF6StringES3_S3_NS_11RuntimeTypeENS_13ErrorInstance28SourceTextWhereErrorOccurredE
4079:__ZN3WTF10makeStringIJNS_6StringES1_PKcS1_S3_EEES1_DpT_
4080:__ZN3WTF25tryMakeStringFromAdaptersINS_17StringTypeAdapterINS_6StringEEEJS3_NS1_IPKcEES3_S6_EEES2_T_DpT0_
4081:__ZN3JSC64createInvalidInstanceofParameterErrorHasInstanceValueNotFunctionEPNS_9ExecStateENS_7JSValueE
4082:__ZN3JSCL67invalidParameterInstanceofhasInstanceValueNotFunctionSourceAppenderERKN3WTF6StringES3_NS_11RuntimeTypeENS_13ErrorInstance28SourceTextWhereErrorOccurredE
4083:__ZN3JSC26createNotAConstructorErrorEPNS_9ExecStateENS_7JSValueE
4084:__ZN3JSC23createNotAFunctionErrorEPNS_9ExecStateENS_7JSValueE
4085:__ZN3JSCL26notAFunctionSourceAppenderERKN3WTF6StringES3_NS_11RuntimeTypeENS_13ErrorInstance28SourceTextWhereErrorOccurredE
4086:__ZN3JSC22createNotAnObjectErrorEPNS_9ExecStateENS_7JSValueE
4087:__ZN3WTF10makeStringIJPKcNS_6StringEcEEES3_DpT_
4088:__ZN3WTF25tryMakeStringFromAdaptersINS_17StringTypeAdapterIPKcEEJNS1_INS_6StringEEENS1_IcEEEEES5_T_DpT0_
4089:__ZN3JSC14createTDZErrorEPNS_9ExecStateE
4090:__ZN3JSC21throwOutOfMemoryErrorEPNS_9ExecStateERNS_10ThrowScopeE
4091:__ZN3JSC23throwStackOverflowErrorEPNS_9ExecStateERNS_10ThrowScopeE
4092:__ZN3JSC14ExecutableBase7destroyEPNS_6JSCellE
4093:__ZN3JSC14ExecutableBase9clearCodeEv
4094:__ZN3JSC19FunctionConstructor11getCallDataEPNS_6JSCellERNS_8CallDataE
4095:__ZN3JSC19FunctionConstructor16getConstructDataEPNS_6JSCellERNS_13ConstructDataE
4096:__ZN3JSCL32constructWithFunctionConstructorEPNS_9ExecStateE
4097:__ZN3JSC17constructFunctionEPNS_9ExecStateEPNS_14JSGlobalObjectERKNS_7ArgListENS_24FunctionConstructionModeENS_7JSValueE
4098:__ZN3JSC41constructFunctionSkippingEvalEnabledCheckEPNS_9ExecStateEPNS_14JSGlobalObjectERKNS_7ArgListERKNS_10IdentifierERKNS_12SourceOriginERKN3WTF6StringERKNSD_12TextPositionEiNS_24FunctionConstructionModeENS_7JSValueE
4099:__ZN3WTF10makeStringIJPKcNS_6StringES2_S3_S2_EEES3_DpT_
4100:__ZN3WTF25tryMakeStringFromAdaptersINS_17StringTypeAdapterIPKcEEJNS1_INS_6StringEEES4_S6_S4_EEES5_T_DpT0_
4101:__ZN3JSCL23callFunctionConstructorEPNS_9ExecStateE
4102:__ZN3JSC18FunctionExecutable7destroyEPNS_6JSCellE
4103:__ZN3JSC18FunctionExecutable13visitChildrenEPNS_6JSCellERNS_11SlotVisitorE
4104:__ZN3JSC18FunctionExecutableD2Ev
4105:__ZN3JSC18FunctionExecutableC2ERNS_2VMERKNS_10SourceCodeEPNS_26UnlinkedFunctionExecutableEjjNS_9IntrinsicE
4106:__ZN3JSC18FunctionExecutable14finishCreationERNS_2VME
4107:__ZN3JSC18FunctionExecutable20baselineCodeBlockForENS_22CodeSpecializationKindE
4108:__ZN3JSC18FunctionExecutable14fromGlobalCodeERKNS_10IdentifierERNS_9ExecStateERKNS_10SourceCodeERPNS_8JSObjectEi
4109:__ZNK3JSC22FunctionExecutableDump4dumpERN3WTF11PrintStreamE
4110:__ZN3JSC24FunctionHasExecutedCache19hasExecutedAtOffsetElj
4111:__ZN3JSC24FunctionHasExecutedCache21insertUnexecutedRangeEljj
4112:f32-to-uint
4113:__ZNSt3__213unordered_mapIlNS0_IN3JSC24FunctionHasExecutedCache13FunctionRangeEbN3WTF10HashMethodIS3_EENS_8equal_toIS3_EENS_9allocatorINS_4pairIKS3_bEEEEEENS_4hashIlEENS7_IlEENS9_INSA_IKlSE_EEEEEixERSI_
4114:__ZNSt3__212__hash_tableINS_17__hash_value_typeIN3JSC24FunctionHasExecutedCache13FunctionRangeEbEENS_22__unordered_map_hasherIS4_S5_N3WTF10HashMethodIS4_EELb1EEENS_21__unordered_map_equalIS4_S5_NS_8equal_toIS4_EELb1EEENS_9allocatorIS5_EEE14__assign_multiINS_21__hash_const_iteratorIPNS_11__hash_nodeIS5_PvEEEEEEvT_SP_
4115:__ZNSt3__213unordered_mapIN3JSC24FunctionHasExecutedCache13FunctionRangeEbN3WTF10HashMethodIS3_EENS_8equal_toIS3_EENS_9allocatorINS_4pairIKS3_bEEEEEixERSB_
4116:__ZNSt3__212__hash_tableINS_17__hash_value_typeIN3JSC24FunctionHasExecutedCache13FunctionRangeEbEENS_22__unordered_map_hasherIS4_S5_N3WTF10HashMethodIS4_EELb1EEENS_21__unordered_map_equalIS4_S5_NS_8equal_toIS4_EELb1EEENS_9allocatorIS5_EEE6rehashEm
4117:__ZNSt3__212__hash_tableINS_17__hash_value_typeIN3JSC24FunctionHasExecutedCache13FunctionRangeEbEENS_22__unordered_map_hasherIS4_S5_N3WTF10HashMethodIS4_EELb1EEENS_21__unordered_map_equalIS4_S5_NS_8equal_toIS4_EELb1EEENS_9allocatorIS5_EEE8__rehashEm
4118:__ZNSt3__212__hash_tableINS_17__hash_value_typeIN3JSC24FunctionHasExecutedCache13FunctionRangeEbEENS_22__unordered_map_hasherIS4_S5_N3WTF10HashMethodIS4_EELb1EEENS_21__unordered_map_equalIS4_S5_NS_8equal_toIS4_EELb1EEENS_9allocatorIS5_EEE19__node_insert_multiEPNS_11__hash_nodeIS5_PvEE
4119:__ZNSt3__212__hash_tableINS_17__hash_value_typeIlNS_13unordered_mapIN3JSC24FunctionHasExecutedCache13FunctionRangeEbN3WTF10HashMethodIS5_EENS_8equal_toIS5_EENS_9allocatorINS_4pairIKS5_bEEEEEEEENS_22__unordered_map_hasherIlSH_NS_4hashIlEELb1EEENS_21__unordered_map_equalIlSH_NS9_IlEELb1EEENSB_ISH_EEE6rehashEm
4120:__ZNSt3__212__hash_tableINS_17__hash_value_typeIlNS_13unordered_mapIN3JSC24FunctionHasExecutedCache13FunctionRangeEbN3WTF10HashMethodIS5_EENS_8equal_toIS5_EENS_9allocatorINS_4pairIKS5_bEEEEEEEENS_22__unordered_map_hasherIlSH_NS_4hashIlEELb1EEENS_21__unordered_map_equalIlSH_NS9_IlEELb1EEENSB_ISH_EEE8__rehashEm
4121:__ZN3JSC24FunctionHasExecutedCache21removeUnexecutedRangeEljj
4122:__ZN3JSC24FunctionHasExecutedCache17getFunctionRangesEl
4123:__ZN3WTF6VectorINSt3__25tupleIJbjjEEELm0ENS_15CrashOnOverflowELm16EE6appendEOS3_
4124:__ZN3JSC17FunctionPrototype11getCallDataEPNS_6JSCellERNS_8CallDataE
4125:__ZN3JSC17FunctionPrototype14finishCreationERNS_2VMERKN3WTF6StringE
4126:__ZN3JSC17FunctionPrototype21addFunctionPropertiesEPNS_9ExecStateEPNS_14JSGlobalObjectEPPNS_10JSFunctionES7_S7_
4127:__ZN3JSCL25functionProtoFuncToStringEPNS_9ExecStateE
4128:__ZN3JSC22jsMakeNontrivialStringIA10_cJN3WTF6StringEA25_cEEENS_7JSValueEPNS_9ExecStateERKT_DpRKT0_
4129:__ZN3JSC22jsMakeNontrivialStringIN3WTF6StringEJS2_NS1_10StringViewEEEENS_7JSValueEPNS_9ExecStateERKT_DpRKT0_
4130:__ZN3JSC22jsMakeNontrivialStringIA10_cJPKcA25_cEEENS_7JSValueEPNS_9ExecStateERKT_DpRKT0_
4131:__ZN3WTF25tryMakeStringFromAdaptersINS_17StringTypeAdapterINS_6StringEEEJS3_NS1_INS_10StringViewEEEEEES2_T_DpT0_
4132:__ZN3JSC17FunctionPrototype24initRestrictedPropertiesEPNS_9ExecStateEPNS_14JSGlobalObjectE
4133:__ZN3JSC16FunctionRareData7destroyEPNS_6JSCellE
4134:__ZN3JSC16FunctionRareData13visitChildrenEPNS_6JSCellERNS_11SlotVisitorE
4135:__ZN3JSC16FunctionRareData6createERNS_2VME
4136:__ZN3JSC16FunctionRareData15createStructureERNS_2VMEPNS_14JSGlobalObjectENS_7JSValueE
4137:__ZN3JSC16FunctionRareData33initializeObjectAllocationProfileERNS_2VMEPNS_14JSGlobalObjectEPNS_8JSObjectEm
4138:__ZN3JSC16FunctionRareData5clearEPKc
4139:__ZN3JSC28GeneratorFunctionConstructor11getCallDataEPNS_6JSCellERNS_8CallDataE
4140:__ZN3JSC28GeneratorFunctionConstructor16getConstructDataEPNS_6JSCellERNS_13ConstructDataE
4141:__ZN3JSCL37constructGeneratorFunctionConstructorEPNS_9ExecStateE
4142:__ZN3JSCL32callGeneratorFunctionConstructorEPNS_9ExecStateE
4143:__ZN3JSC28GeneratorFunctionConstructor14finishCreationERNS_2VMEPNS_26GeneratorFunctionPrototypeE
4144:__ZN3JSC26GeneratorFunctionPrototype14finishCreationERNS_2VME
4145:__ZN3JSC18GeneratorPrototype14finishCreationERNS_2VME
4146:__ZN3JSC12GetterSetter13visitChildrenEPNS_6JSCellERNS_11SlotVisitorE
4147:__ZN3JSC12GetterSetter18getOwnPropertySlotEPNS_8JSObjectEPNS_9ExecStateENS_12PropertyNameERNS_12PropertySlotE
4148:__ZN3JSC12GetterSetter10withGetterERNS_2VMEPNS_14JSGlobalObjectEPNS_8JSObjectE
4149:__ZN3JSC12GetterSetter10withSetterERNS_2VMEPNS_14JSGlobalObjectEPNS_8JSObjectE
4150:__ZN3JSC10callGetterEPNS_9ExecStateENS_7JSValueES2_
4151:__ZN3JSC10callSetterEPNS_9ExecStateENS_7JSValueES2_S2_NS_8ECMAModeE
4152:__ZN3JSC13HashMapBucketINS_20HashMapBucketDataKeyEE13visitChildrenEPNS_6JSCellERNS_11SlotVisitorE
4153:__ZN3JSC13HashMapBucketINS_25HashMapBucketDataKeyValueEE13visitChildrenEPNS_6JSCellERNS_11SlotVisitorE
4154:__ZN3JSC11HashMapImplINS_13HashMapBucketINS_20HashMapBucketDataKeyEEEE13visitChildrenEPNS_6JSCellERNS_11SlotVisitorE
4155:__ZN3JSC10Identifier3addEPNS_2VMEPKc
4156:__ZN3JSC10Identifier4add8EPNS_2VMEPKti
4157:__ZN3JSC10Identifier4fromEPNS_9ExecStateEj
4158:__ZN3JSC10Identifier4fromEPNS_9ExecStateEi
4159:__ZN3JSC10Identifier4fromEPNS_9ExecStateEd
4160:__ZN3JSC10Identifier4fromEPNS_2VMEj
4161:__ZNK3JSC10Identifier4dumpERN3WTF11PrintStreamE
4162:__ZN3JSC16dumpIndexingTypeERN3WTF11PrintStreamEh
4163:__ZN3JSC22IndirectEvalExecutable6createEPNS_9ExecStateERKNS_10SourceCodeEbNS_18DerivedContextTypeEbNS_15EvalContextTypeE
4164:__ZN3JSC12InferredType7destroyEPNS_6JSCellE
4165:__ZN3JSC12InferredType13visitChildrenEPNS_6JSCellERNS_11SlotVisitorE
4166:__ZN3JSC12InferredType27InferredStructureWatchpoint12fireInternalERKNS_10FireDetailE
4167:__ZN3JSC12InferredType15removeStructureEv
4168:__ZN3JSC12InferredType3setERKNS_18ConcurrentJSLockerERNS_2VMENS0_10DescriptorE
4169:__ZN3JSC12_GLOBAL__N_122InferredTypeFireDetailD2Ev
4170:__ZN3JSC12_GLOBAL__N_122InferredTypeFireDetailD0Ev
4171:__ZNK3JSC12_GLOBAL__N_122InferredTypeFireDetail4dumpERN3WTF11PrintStreamE
4172:__ZN3WTF11PrintStream9printImplINS_10RawPointerEJA15_cNS_6RefPtrINS_17UniquedStringImplEEEA16_cN3JSC12InferredType10DescriptorEA24_cSA_EEEvRKT_DpRKT0_
4173:__ZN3WTF11PrintStream9printImplIN3JSC12InferredType10DescriptorEJA24_cS4_EEEvRKT_DpRKT0_
4174:__ZN3WTF13printInternalERNS_11PrintStreamEN3JSC12InferredType4KindE
4175:__ZN3JSC12InferredType26InferredStructureFinalizer23finalizeUnconditionallyEv
4176:__ZN3JSC12InferredType6createERNS_2VME
4177:__ZN3JSC12InferredType15createStructureERNS_2VMEPNS_14JSGlobalObjectENS_7JSValueE
4178:__ZN3JSC12InferredType12kindForFlagsENS_12PutByIdFlagsE
4179:__ZNK3JSC12InferredType10Descriptor12putByIdFlagsEv
4180:__ZN3JSC12InferredType10Descriptor5mergeERKS1_
4181:__ZN3JSC12InferredType18willStoreValueSlowERNS_2VMENS_12PropertyNameENS_7JSValueE
4182:__ZN3JSC12InferredType11makeTopSlowERNS_2VMENS_12PropertyNameE
4183:__ZN3JSC17InferredTypeTable7destroyEPNS_6JSCellE
4184:__ZN3JSC17InferredTypeTable13visitChildrenEPNS_6JSCellERNS_11SlotVisitorE
4185:__ZN3JSC17InferredTypeTable6createERNS_2VME
4186:__ZN3JSC17InferredTypeTable15createStructureERNS_2VMEPNS_14JSGlobalObjectENS_7JSValueE
4187:__ZN3JSC17InferredTypeTable3getEPN3WTF17UniquedStringImplE
4188:__ZN3JSC17InferredTypeTable14willStoreValueERNS_2VMENS_12PropertyNameENS_7JSValueENS0_17StoredPropertyAgeE
4189:__ZN3WTF7HashMapINS_6RefPtrINS_17UniquedStringImplEEEN3JSC12WriteBarrierINS4_12InferredTypeEEENS4_17IdentifierRepHashENS_10HashTraitsIS3_EENS9_IS7_EEE3addIS7_EENS_18HashTableAddResultINS_17HashTableIteratorIS3_NS_12KeyValuePairIS3_S7_EENS_24KeyValuePairKeyExtractorISH_EES8_NSC_18KeyValuePairTraitsESA_EEEEOS3_OT_
4190:__ZN3JSC17InferredTypeTable7makeTopERNS_2VMENS_12PropertyNameENS0_17StoredPropertyAgeE
4191:__ZN3JSC13InferredValue7destroyEPNS_6JSCellE
4192:__ZN3JSC13InferredValue13visitChildrenEPNS_6JSCellERNS_11SlotVisitorE
4193:__ZN3JSC13InferredValue12ValueCleanup23finalizeUnconditionallyEv
4194:__ZN3JSC13InferredValue6createERNS_2VME
4195:__ZN3JSC13InferredValue15createStructureERNS_2VMEPNS_14JSGlobalObjectENS_7JSValueE
4196:__ZN3JSC13InferredValue15notifyWriteSlowERNS_2VMENS_7JSValueERKNS_10FireDetailE
4197:__ZN3JSC13InferredValue15notifyWriteSlowERNS_2VMENS_7JSValueEPKc
4198:__ZN3JSC19initializeThreadingEv
4199:__ZNSt3__217__call_once_proxyINS_5tupleIJOZN3JSC19initializeThreadingEvE3__0EEEEEvPv
4200:__ZN3JSC33inspectorInstrumentationObjectLogEPNS_9ExecStateE
4201:__ZN3JSC30InspectorInstrumentationObject14finishCreationERNS_2VMEPNS_14JSGlobalObjectE
4202:__ZN3JSC16InternalFunction13visitChildrenEPNS_6JSCellERNS_11SlotVisitorE
4203:__ZN3JSC16InternalFunction11getCallDataEPNS_6JSCellERNS_8CallDataE
4204:__ZN3JSC16InternalFunctionC2ERNS_2VMEPNS_9StructureE
4205:__ZN3JSC16InternalFunction14finishCreationERNS_2VMERKN3WTF6StringE
4206:__ZN3JSC16InternalFunction4nameEv
4207:__ZN3JSC16InternalFunction21calculatedDisplayNameERNS_2VME
4208:__ZN3JSC16InternalFunction23createSubclassStructureEPNS_9ExecStateENS_7JSValueEPNS_9StructureE
4209:__ZN3JSC12iteratorNextEPNS_9ExecStateENS_7JSValueES2_
4210:__ZN3JSC13iteratorValueEPNS_9ExecStateENS_7JSValueE
4211:__ZN3JSC16iteratorCompleteEPNS_9ExecStateENS_7JSValueE
4212:__ZN3JSC12iteratorStepEPNS_9ExecStateENS_7JSValueE
4213:__ZN3JSC13iteratorCloseEPNS_9ExecStateENS_7JSValueE
4214:__ZN3JSC35createIteratorResultObjectStructureERNS_2VMERNS_14JSGlobalObjectE
4215:__ZN3JSC26createIteratorResultObjectEPNS_9ExecStateENS_7JSValueEb
4216:__ZN3JSC19iteratorForIterableEPNS_9ExecStateENS_7JSValueE
4217:__ZN3JSC17IteratorPrototype14finishCreationERNS_2VMEPNS_14JSGlobalObjectE
4218:__ZN3JSC7JSArray3putEPNS_6JSCellEPNS_9ExecStateENS_12PropertyNameENS_7JSValueERNS_15PutPropertySlotE
4219:__ZN3JSC7JSArray14deletePropertyEPNS_6JSCellEPNS_9ExecStateENS_12PropertyNameE
4220:__ZN3JSC7JSArray18getOwnPropertySlotEPNS_8JSObjectEPNS_9ExecStateENS_12PropertyNameERNS_12PropertySlotE
4221:__ZN3JSC7JSArray27getOwnNonIndexPropertyNamesEPNS_8JSObjectEPNS_9ExecStateERNS_17PropertyNameArrayENS_15EnumerationModeE
4222:__ZN3JSC7JSArray17defineOwnPropertyEPNS_8JSObjectEPNS_9ExecStateENS_12PropertyNameERKNS_18PropertyDescriptorEb
4223:__ZN3JSC7JSArray9setLengthEPNS_9ExecStateEjb
4224:__ZN3JSC7JSArray25setLengthWithArrayStorageEPNS_9ExecStateEjbPNS_12ArrayStorageE
4225:__ZN3JSCL19compareKeysForQSortEPKvS1_
4226:__ZN3JSC7JSArray33tryCreateForInitializationPrivateERNS_2VMEPNS_17GCDeferralContextEPNS_9StructureEj
4227:__ZN3JSC7JSArray20unshiftCountSlowCaseERKN3WTF14AbstractLockerERNS_2VMERNS_7DeferGCEbj
4228:__ZN3JSC7JSArray12appendMemcpyEPNS_9ExecStateERNS_2VMEjPS0_
4229:__ZN3JSC7JSArray3popEPNS_9ExecStateE
4230:__ZN3JSC7JSArray4pushEPNS_9ExecStateENS_7JSValueE
4231:__ZN3JSC7JSArray9fastSliceERNS_9ExecStateEjj
4232:__ZN3JSC7JSArray26shiftCountWithArrayStorageERNS_2VMEjjPNS_12ArrayStorageE
4233:__ZN3JSC7JSArray29shiftCountWithAnyIndexingTypeEPNS_9ExecStateERjj
4234:__ZN3JSC7JSArray28unshiftCountWithArrayStorageEPNS_9ExecStateEjjPNS_12ArrayStorageE
4235:__ZN3JSC7JSArray31unshiftCountWithAnyIndexingTypeEPNS_9ExecStateEjj
4236:__ZN3JSC7JSArray15copyToArgumentsEPNS_9ExecStateENS_15VirtualRegisterEjj
4237:__ZN3JSC13JSArrayBuffer13estimatedSizeEPNS_6JSCellE
4238:__ZN3JSC13JSArrayBuffer6createERNS_2VMEPNS_9StructureEON3WTF6RefPtrINS_11ArrayBufferEEE
4239:__ZN3JSC13JSArrayBuffer15createStructureERNS_2VMEPNS_14JSGlobalObjectENS_7JSValueE
4240:__ZNK3JSC13JSArrayBuffer8isSharedEv
4241:__ZN3JSC24JSArrayBufferConstructor11getCallDataEPNS_6JSCellERNS_8CallDataE
4242:__ZN3JSC24JSArrayBufferConstructor16getConstructDataEPNS_6JSCellERNS_13ConstructDataE
4243:__ZN3JSCL20constructArrayBufferEPNS_9ExecStateE
4244:__ZNK3JSC7JSValue7toIndexEPNS_9ExecStateEPKc
4245:__ZN3WTF10makeStringIJPKcS2_EEENS_6StringEDpT_
4246:__ZN3JSCL15callArrayBufferEPNS_9ExecStateE
4247:__ZN3JSC24JSArrayBufferConstructor14finishCreationERNS_2VMEPNS_22JSArrayBufferPrototypeEPNS_12GetterSetterE
4248:__ZN3JSCL21arrayBufferFuncIsViewEPNS_9ExecStateE
4249:__ZN3JSC24JSArrayBufferConstructor6createERNS_2VMEPNS_9StructureEPNS_22JSArrayBufferPrototypeEPNS_12GetterSetterENS_22ArrayBufferSharingModeE
4250:__ZN3JSC24JSArrayBufferConstructor15createStructureERNS_2VMEPNS_14JSGlobalObjectENS_7JSValueE
4251:__ZN3JSC22JSArrayBufferPrototype14finishCreationERNS_2VMEPNS_14JSGlobalObjectE
4252:__ZN3JSCL25arrayBufferProtoFuncSliceEPNS_9ExecStateE
4253:__ZN3JSCL36arrayBufferProtoGetterFuncByteLengthEPNS_9ExecStateE
4254:__ZN3JSCL42sharedArrayBufferProtoGetterFuncByteLengthEPNS_9ExecStateE
4255:__ZN3JSC22JSArrayBufferPrototype6createERNS_2VMEPNS_14JSGlobalObjectEPNS_9StructureENS_22ArrayBufferSharingModeE
4256:__ZN3JSC22JSArrayBufferPrototype15createStructureERNS_2VMEPNS_14JSGlobalObjectENS_7JSValueE
4257:__ZN3JSC17JSArrayBufferView13visitChildrenEPNS_6JSCellERNS_11SlotVisitorE
4258:__ZN3JSC17JSArrayBufferView3putEPNS_6JSCellEPNS_9ExecStateENS_12PropertyNameENS_7JSValueERNS_15PutPropertySlotE
4259:__ZN3JSC17JSArrayBufferView12toStringNameEPKNS_8JSObjectEPNS_9ExecStateE
4260:__ZN3JSC17JSArrayBufferView19ConstructionContextC2ERNS_2VMEPNS_9StructureEjjNS1_18InitializationModeE
4261:__ZN3JSC17JSArrayBufferView19ConstructionContextC2ERNS_2VMEPNS_9StructureEON3WTF6RefPtrINS_11ArrayBufferEEEjj
4262:__ZN3JSC17JSArrayBufferView19ConstructionContextC2EPNS_9StructureEON3WTF6RefPtrINS_11ArrayBufferEEEjjNS1_11DataViewTagE
4263:__ZN3JSC17JSArrayBufferViewC2ERNS_2VMERNS0_19ConstructionContextE
4264:__ZN3JSC17JSArrayBufferView14finishCreationERNS_2VME
4265:__ZN3JSC17JSArrayBufferView8finalizeEPNS_6JSCellE
4266:__ZN3JSC17JSArrayBufferView22possiblySharedJSBufferEPNS_9ExecStateE
4267:__ZN3JSC17JSArrayBufferView6neuterEv
4268:__ZN3JSC15JSAsyncFunction6createERNS_2VMEPNS_18FunctionExecutableEPNS_7JSScopeE
4269:__ZN3JSC15JSAsyncFunction6createERNS_2VMEPNS_18FunctionExecutableEPNS_7JSScopeEPNS_9StructureE
4270:__ZN3JSC15JSBoundFunction13visitChildrenEPNS_6JSCellERNS_11SlotVisitorE
4271:__ZN3JSC15JSBoundFunction17customHasInstanceEPNS_8JSObjectEPNS_9ExecStateENS_7JSValueE
4272:__ZN3JSC27boundThisNoArgsFunctionCallEPNS_9ExecStateE
4273:__ZN3JSC17boundFunctionCallEPNS_9ExecStateE
4274:__ZN3JSC32boundThisNoArgsFunctionConstructEPNS_9ExecStateE
4275:__ZN3JSC22boundFunctionConstructEPNS_9ExecStateE
4276:__ZN3JSC15isBoundFunctionEPNS_9ExecStateE
4277:__ZN3JSC24hasInstanceBoundFunctionEPNS_9ExecStateE
4278:__ZN3JSC15JSBoundFunction6createERNS_2VMEPNS_9ExecStateEPNS_14JSGlobalObjectEPNS_8JSObjectENS_7JSValueEPNS_7JSArrayEiRKN3WTF6StringE
4279:__ZN3JSC25getBoundFunctionStructureERNS_2VMEPNS_9ExecStateEPNS_14JSGlobalObjectEPNS_8JSObjectE
4280:__ZN3JSC15JSBoundFunction14finishCreationERNS_2VMEPNS_16NativeExecutableEi
4281:__ZNK3JSC7JSValue9toIntegerEPNS_9ExecStateE
4282:__ZNK3JSC7JSValue20toIntegerPreserveNaNEPNS_9ExecStateE
4283:__ZNK3JSC7JSValue8toLengthEPNS_9ExecStateE
4284:__ZNK3JSC7JSValue16toNumberSlowCaseEPNS_9ExecStateE
4285:__ZNK3JSC7JSValue16toObjectSlowCaseEPNS_9ExecStateEPNS_14JSGlobalObjectE
4286:__ZNK3JSC7JSValue14toThisSlowCaseEPNS_9ExecStateENS_8ECMAModeE
4287:__ZNK3JSC7JSValue19synthesizePrototypeEPNS_9ExecStateE
4288:__ZN3JSC7JSValue14putToPrimitiveEPNS_9ExecStateENS_12PropertyNameES0_RNS_15PutPropertySlotE
4289:__ZN3JSC7JSValue21putToPrimitiveByIndexEPNS_9ExecStateEjS0_b
4290:__ZNK3JSC7JSValue4dumpERN3WTF11PrintStreamE
4291:__ZNK3JSC7JSValue30dumpInContextAssumingStructureERN3WTF11PrintStreamEPNS_11DumpContextEPNS_9StructureE
4292:__ZNK3JSC7JSValue13dumpInContextERN3WTF11PrintStreamEPNS_11DumpContextE
4293:__ZNK3JSC7JSValue16toStringSlowCaseEPNS_9ExecStateEb
4294:__ZNK3JSC7JSValue19toWTFStringSlowCaseEPNS_9ExecStateE
4295:__ZN3JSC8JSCalleeC2ERNS_2VMEPNS_14JSGlobalObjectEPNS_9StructureE
4296:__ZN3JSC8JSCalleeC2ERNS_2VMEPNS_7JSScopeEPNS_9StructureE
4297:__ZN3JSC6JSCell12dumpToStreamEPKS0_RN3WTF11PrintStreamE
4298:__ZNK3JSC6JSCell20estimatedSizeInBytesEv
4299:__ZN3JSC6JSCell13estimatedSizeEPS0_
4300:__ZNK3JSC6JSCell9getStringEPNS_9ExecStateE
4301:__ZN3JSC6JSCell9getObjectEv
4302:__ZN3JSC6JSCell11getCallDataEPS0_RNS_8CallDataE
4303:__ZN3JSC6JSCell3putEPS0_PNS_9ExecStateENS_12PropertyNameENS_7JSValueERNS_15PutPropertySlotE
4304:__ZN3JSC6JSCell10putByIndexEPS0_PNS_9ExecStateEjNS_7JSValueEb
4305:__ZN3JSC6JSCell14deletePropertyEPS0_PNS_9ExecStateENS_12PropertyNameE
4306:__ZN3JSC6JSCell21deletePropertyByIndexEPS0_PNS_9ExecStateEj
4307:__ZN3JSC6JSCell6toThisEPS0_PNS_9ExecStateENS_8ECMAModeE
4308:__ZNK3JSC6JSCell11toPrimitiveEPNS_9ExecStateENS_22PreferredPrimitiveTypeE
4309:__ZNK3JSC6JSCell18getPrimitiveNumberEPNS_9ExecStateERdRNS_7JSValueE
4310:__ZNK3JSC6JSCell8toNumberEPNS_9ExecStateE
4311:__ZNK3JSC6JSCell12toObjectSlowEPNS_9ExecStateEPNS_14JSGlobalObjectE
4312:__ZN3JSC6JSCell12defaultValueEPKNS_8JSObjectEPNS_9ExecStateENS_22PreferredPrimitiveTypeE
4313:__ZN3JSC6JSCell9classNameEPKNS_8JSObjectE
4314:__ZN3JSC28JSCustomGetterSetterFunction13visitChildrenEPNS_6JSCellERNS_11SlotVisitorE
4315:__ZN3JSC28JSCustomGetterSetterFunction30customGetterSetterFunctionCallEPNS_9ExecStateE
4316:__ZN3JSC28JSCustomGetterSetterFunction6createERNS_2VMEPNS_14JSGlobalObjectEPNS_18CustomGetterSetterENS0_4TypeERKNS_12PropertyNameE
4317:__ZN3JSC10JSDataView3putEPNS_6JSCellEPNS_9ExecStateENS_12PropertyNameENS_7JSValueERNS_15PutPropertySlotE
4318:__ZN3JSC10JSDataView14deletePropertyEPNS_6JSCellEPNS_9ExecStateENS_12PropertyNameE
4319:__ZN3JSC10JSDataView18getOwnPropertySlotEPNS_8JSObjectEPNS_9ExecStateENS_12PropertyNameERNS_12PropertySlotE
4320:__ZN3JSC10JSDataView27getOwnNonIndexPropertyNamesEPNS_8JSObjectEPNS_9ExecStateERNS_17PropertyNameArrayENS_15EnumerationModeE
4321:__ZN3JSC10JSDataView17defineOwnPropertyEPNS_8JSObjectEPNS_9ExecStateENS_12PropertyNameERKNS_18PropertyDescriptorEb
4322:__ZN3JSC10JSDataView17getTypedArrayImplEPNS_17JSArrayBufferViewE
4323:__ZN3JSC10JSDataView23possiblySharedTypedImplEv
4324:__ZN3JSC10JSDataView6createEPNS_9ExecStateEPNS_9StructureEON3WTF6RefPtrINS_11ArrayBufferEEEjj
4325:__ZN3JSC10JSDataView15createStructureERNS_2VMEPNS_14JSGlobalObjectENS_7JSValueE
4326:__ZN3JSC24dataViewProtoFuncGetInt8EPNS_9ExecStateE
4327:__ZN3JSC25dataViewProtoFuncGetUint8EPNS_9ExecStateE
4328:__ZN3JSC25dataViewProtoFuncGetInt16EPNS_9ExecStateE
4329:__ZN3JSC26dataViewProtoFuncGetUint16EPNS_9ExecStateE
4330:__ZN3JSC25dataViewProtoFuncGetInt32EPNS_9ExecStateE
4331:__ZN3JSC26dataViewProtoFuncGetUint32EPNS_9ExecStateE
4332:__ZN3JSC27dataViewProtoFuncGetFloat32EPNS_9ExecStateE
4333:__ZN3JSC27dataViewProtoFuncGetFloat64EPNS_9ExecStateE
4334:__ZN3JSC24dataViewProtoFuncSetInt8EPNS_9ExecStateE
4335:__ZN3JSC25dataViewProtoFuncSetInt16EPNS_9ExecStateE
4336:__ZN3JSC25dataViewProtoFuncSetInt32EPNS_9ExecStateE
4337:__ZN3JSC27dataViewProtoFuncSetFloat32EPNS_9ExecStateE
4338:__ZN3JSC27dataViewProtoFuncSetFloat64EPNS_9ExecStateE
4339:__ZN3JSC25dataViewProtoGetterBufferEPNS_9ExecStateE
4340:__ZN3JSC29dataViewProtoGetterByteLengthEPNS_9ExecStateE
4341:__ZN3JSC29dataViewProtoGetterByteOffsetEPNS_9ExecStateE
4342:__ZN3JSC7setDataINS_14Float64AdaptorEEExPNS_9ExecStateE
4343:__ZN3JSC7setDataINS_14Float32AdaptorEEExPNS_9ExecStateE
4344:__ZN3JSC7setDataINS_13Uint32AdaptorEEExPNS_9ExecStateE
4345:__ZN3JSC17toNativeFromValueINS_13Uint32AdaptorEEENT_4TypeEPNS_9ExecStateENS_7JSValueE
4346:__ZN3JSC7setDataINS_13Uint16AdaptorEEExPNS_9ExecStateE
4347:__ZN3JSC17toNativeFromValueINS_13Uint16AdaptorEEENT_4TypeEPNS_9ExecStateENS_7JSValueE
4348:__ZN3JSC7setDataINS_12Uint8AdaptorEEExPNS_9ExecStateE
4349:__ZN3JSC17toNativeFromValueINS_12Uint8AdaptorEEENT_4TypeEPNS_9ExecStateENS_7JSValueE
4350:__ZN3JSC7getDataINS_14Float64AdaptorEEExPNS_9ExecStateE
4351:__ZN3JSC7getDataINS_14Float32AdaptorEEExPNS_9ExecStateE
4352:__ZN3JSC7getDataINS_13Uint32AdaptorEEExPNS_9ExecStateE
4353:__ZN3JSC7getDataINS_12Int32AdaptorEEExPNS_9ExecStateE
4354:__ZN3JSC7getDataINS_13Uint16AdaptorEEExPNS_9ExecStateE
4355:__ZN3JSC7getDataINS_12Int16AdaptorEEExPNS_9ExecStateE
4356:__ZN3JSC7getDataINS_12Uint8AdaptorEEExPNS_9ExecStateE
4357:__ZN3JSC7getDataINS_11Int8AdaptorEEExPNS_9ExecStateE
4358:__ZN3JSC19JSDataViewPrototype6createERNS_2VMEPNS_9StructureE
4359:__ZN3JSC19JSDataViewPrototype14finishCreationERNS_2VME
4360:__ZN3JSC19JSDataViewPrototype15createStructureERNS_2VMEPNS_14JSGlobalObjectENS_7JSValueE
4361:__ZN3JSC21gregorianDateTimeToMSERNS_2VMERKN3WTF17GregorianDateTimeEdNS2_8TimeTypeE
4362:__ZN3JSCL15localTimeOffsetERNS_2VMEdN3WTF8TimeTypeE
4363:__ZN3JSC21msToGregorianDateTimeERNS_2VMEdN3WTF8TimeTypeERNS2_17GregorianDateTimeE
4364:__ZN3JSC9parseDateERNS_2VMERKN3WTF6StringE
4365:__ZN3JSC28JSDestructibleObjectSubspaceD2Ev
4366:__ZN3JSC28JSDestructibleObjectSubspaceD0Ev
4367:__ZN3JSC28JSDestructibleObjectSubspace11finishSweepERNS_11MarkedBlock6HandleENS2_9SweepModeE
4368:__ZN3JSC28JSDestructibleObjectSubspace7destroyERNS_2VMEPNS_6JSCellE
4369:__ZN3JSC28JSDestructibleObjectSubspaceC2EN3WTF7CStringERNS_4HeapE
4370:__ZN3JSC19JSEnvironmentRecord13visitChildrenEPNS_6JSCellERNS_11SlotVisitorE
4371:__ZN3JSC19JSEnvironmentRecord12heapSnapshotEPNS_6JSCellERNS_19HeapSnapshotBuilderE
4372:__ZN3JSC12JSFixedArray13visitChildrenEPNS_6JSCellERNS_11SlotVisitorE
4373:__ZN3JSC10JSFunction13visitChildrenEPNS_6JSCellERNS_11SlotVisitorE
4374:__ZN3JSC10JSFunction11getCallDataEPNS_6JSCellERNS_8CallDataE
4375:__ZN3JSC10JSFunction16getConstructDataEPNS_6JSCellERNS_13ConstructDataE
4376:__ZN3JSC10JSFunction3putEPNS_6JSCellEPNS_9ExecStateENS_12PropertyNameENS_7JSValueERNS_15PutPropertySlotE
4377:__ZN3JSC10JSFunction14deletePropertyEPNS_6JSCellEPNS_9ExecStateENS_12PropertyNameE
4378:__ZN3JSC10JSFunction18getOwnPropertySlotEPNS_8JSObjectEPNS_9ExecStateENS_12PropertyNameERNS_12PropertySlotE
4379:__ZN3JSC10JSFunction27getOwnNonIndexPropertyNamesEPNS_8JSObjectEPNS_9ExecStateERNS_17PropertyNameArrayENS_15EnumerationModeE
4380:__ZN3JSC10JSFunction17defineOwnPropertyEPNS_8JSObjectEPNS_9ExecStateENS_12PropertyNameERKNS_18PropertyDescriptorEb
4381:__ZN3JSC10JSFunction22reifyBoundNameIfNeededERNS_2VMEPNS_9ExecStateENS_12PropertyNameE
4382:__ZN3JSC10JSFunction11reifyLengthERNS_2VME
4383:__ZN3JSC10JSFunction9reifyNameERNS_2VMEPNS_9ExecStateE
4384:__ZN3JSC10JSFunction9reifyNameERNS_2VMEPNS_9ExecStateEN3WTF6StringE
4385:__ZZN3JSC10JSFunction9reifyNameERNS_2VMEPNS_9ExecStateEN3WTF6StringEEN3__08__invokeEt
4386:__ZN3JSC8JSObject15getDirectOffsetERNS_2VMENS_12PropertyNameERj
4387:__ZN3JSC10JSFunction15argumentsGetterEPNS_9ExecStateExNS_12PropertyNameE
4388:__ZN3JSC10JSFunction12callerGetterEPNS_9ExecStateExNS_12PropertyNameE
4389:__ZN3JSC29callHostFunctionAsConstructorEPNS_9ExecStateE
4390:__ZN3JSC10JSFunction6createERNS_2VMEPNS_18FunctionExecutableEPNS_7JSScopeE
4391:__ZN3JSC10JSFunction6createERNS_2VMEPNS_18FunctionExecutableEPNS_7JSScopeEPNS_9StructureE
4392:__ZN3JSC10JSFunction6createERNS_2VMEPNS_14JSGlobalObjectEiRKN3WTF6StringEPFxPNS_9ExecStateEENS_9IntrinsicESC_PKNS_6DOMJIT9SignatureE
4393:__ZN3JSC10JSFunction14finishCreationERNS_2VMEPNS_16NativeExecutableEiRKN3WTF6StringE
4394:__ZN3JSC10JSFunctionC2ERNS_2VMEPNS_14JSGlobalObjectEPNS_9StructureE
4395:__ZN3JSC10JSFunction21createBuiltinFunctionERNS_2VMEPNS_18FunctionExecutableEPNS_14JSGlobalObjectE
4396:__ZN3JSC10JSFunction21createBuiltinFunctionERNS_2VMEPNS_18FunctionExecutableEPNS_14JSGlobalObjectERKN3WTF6StringE
4397:__ZN3JSC10JSFunction16allocateRareDataERNS_2VME
4398:__ZN3JSC10JSFunction29allocateAndInitializeRareDataEPNS_9ExecStateEm
4399:__ZN3JSC10JSFunction18initializeRareDataEPNS_9ExecStateEm
4400:__ZN3JSC10JSFunction4nameERNS_2VME
4401:__ZN3JSC10JSFunction11displayNameERNS_2VME
4402:__ZN3JSC10JSFunction21calculatedDisplayNameERNS_2VME
4403:__ZNK3JSC10JSFunction10sourceCodeEv
4404:__ZN3JSC24getCalculatedDisplayNameERNS_2VMEPNS_8JSObjectE
4405:__ZN3JSC10JSFunction15setFunctionNameEPNS_9ExecStateENS_7JSValueE
4406:__ZN3JSC19JSGeneratorFunction6createERNS_2VMEPNS_18FunctionExecutableEPNS_7JSScopeE
4407:__ZN3JSC19JSGeneratorFunction6createERNS_2VMEPNS_18FunctionExecutableEPNS_7JSScopeEPNS_9StructureE
4408:__ZN3JSC26JSGlobalLexicalEnvironment7destroyEPNS_6JSCellE
4409:__ZN3JSC26JSGlobalLexicalEnvironment3putEPNS_6JSCellEPNS_9ExecStateENS_12PropertyNameENS_7JSValueERNS_15PutPropertySlotE
4410:__ZN3JSC26JSGlobalLexicalEnvironment18getOwnPropertySlotEPNS_8JSObjectEPNS_9ExecStateENS_12PropertyNameERNS_12PropertySlotE
4411:__ZN3JSC26JSGlobalLexicalEnvironment6toThisEPNS_6JSCellEPNS_9ExecStateENS_8ECMAModeE
4412:__ZN3JSC14symbolTableGetINS_26JSGlobalLexicalEnvironmentEEEbPT_NS_12PropertyNameERNS_12PropertySlotE
4413:__ZN3JSC14symbolTablePutILNS_18SymbolTablePutModeE0ENS_26JSGlobalLexicalEnvironmentEEEbPT0_PNS_9ExecStateENS_12PropertyNameENS_7JSValueEbbRb
4414:__ZN3JSC26JSGlobalLexicalEnvironment15isConstVariableEPN3WTF17UniquedStringImplE
4415:__ZN3JSC14JSGlobalObject7destroyEPNS_6JSCellE
4416:__ZN3JSC14JSGlobalObject13visitChildrenEPNS_6JSCellERNS_11SlotVisitorE
4417:__ZN3JSC14JSGlobalObject3putEPNS_6JSCellEPNS_9ExecStateENS_12PropertyNameENS_7JSValueERNS_15PutPropertySlotE
4418:__ZN3JSC14JSGlobalObject18getOwnPropertySlotEPNS_8JSObjectEPNS_9ExecStateENS_12PropertyNameERNS_12PropertySlotE
4419:__ZN3JSC14JSGlobalObject17defineOwnPropertyEPNS_8JSObjectEPNS_9ExecStateENS_12PropertyNameERKNS_18PropertyDescriptorEb
4420:__ZN3JSC14symbolTablePutILNS_18SymbolTablePutModeE0ENS_14JSGlobalObjectEEEbPT0_PNS_9ExecStateENS_12PropertyNameENS_7JSValueEbbRb
4421:__ZN3JSC14JSGlobalObjectD2Ev
4422:__ZN3JSC16TemplateRegistryD2Ev
4423:__ZN3JSCL19createProxyPropertyERNS_2VMEPNS_8JSObjectE
4424:__ZN3JSCL18createJSONPropertyERNS_2VMEPNS_8JSObjectE
4425:__ZN3JSCL18createMathPropertyERNS_2VMEPNS_8JSObjectE
4426:__ZN3JSCL21createAtomicsPropertyERNS_2VMEPNS_8JSObjectE
4427:__ZN3JSCL21createConsolePropertyERNS_2VMEPNS_8JSObjectE
4428:__ZN3JSC14JSGlobalObjectC2ERNS_2VMEPNS_9StructureEPKNS_23GlobalObjectMethodTableE
4429:__ZN3JSC14JSGlobalObject4initERNS_2VME
4430:__ZN3JSC17FunctionPrototype6createERNS_2VMEPNS_9StructureE
4431:__ZN3JSC18NullGetterFunction6createERNS_2VMEPNS_9StructureE
4432:__ZN3JSC11ProxyObject15createStructureERNS_2VMEPNS_14JSGlobalObjectENS_7JSValueEb
4433:__ZN3JSCL13getGetterByIdEPNS_9ExecStateEPNS_8JSObjectERKNS_10IdentifierE
4434:__ZN3JSCL10enqueueJobEPNS_9ExecStateE
4435:__ZN3JSCL17makeBoundFunctionEPNS_9ExecStateE
4436:__ZN3JSCL20hasOwnLengthPropertyEPNS_9ExecStateE
4437:__ZN3JSC14JSGlobalObject16addStaticGlobalsEPNS0_18GlobalPropertyInfoEi
4438:__ZZN3JSC14JSGlobalObject4initERNS_2VMEENK4__40clEPNS_8JSObjectERKNS_10IdentifierE
4439:__ZN3JSC14JSGlobalObject14resetPrototypeERNS_2VMENS_7JSValueE
4440:__ZN3JSC11SymbolTable3addINS_16SymbolTableEntryEEEvRKNS_18ConcurrentJSLockerEPN3WTF17UniquedStringImplEOT_
4441:__ZN3WTF7HashMapINS_6RefPtrINS_17UniquedStringImplEEEN3JSC16SymbolTableEntryENS4_17IdentifierRepHashENS_10HashTraitsIS3_EENS4_26SymbolTableIndexHashTraitsEE3addIS5_EENS_18HashTableAddResultINS_17HashTableIteratorIS3_NS_12KeyValuePairIS3_S5_EENS_24KeyValuePairKeyExtractorISF_EES6_NSA_18KeyValuePairTraitsES8_EEEEOS3_OT_
4442:__ZN3JSC12LazyPropertyINS_14JSGlobalObjectENS_22NativeErrorConstructorEE8callFuncIZNS1_4initERNS_2VMEE4__39EEPS2_RKNS3_11InitializerE
4443:__ZN3JSC12LazyPropertyINS_14JSGlobalObjectENS_22NativeErrorConstructorEE8callFuncIZNS1_4initERNS_2VMEE4__38EEPS2_RKNS3_11InitializerE
4444:__ZN3JSC12LazyPropertyINS_14JSGlobalObjectENS_22NativeErrorConstructorEE8callFuncIZNS1_4initERNS_2VMEE4__37EEPS2_RKNS3_11InitializerE
4445:__ZN3JSC12LazyPropertyINS_14JSGlobalObjectENS_22NativeErrorConstructorEE8callFuncIZNS1_4initERNS_2VMEE4__36EEPS2_RKNS3_11InitializerE
4446:__ZN3JSC12LazyPropertyINS_14JSGlobalObjectENS_9StructureEE8callFuncIZNS1_4initERNS_2VMEE4__35EEPS2_RKNS3_11InitializerE
4447:__ZN3JSC12LazyPropertyINS_14JSGlobalObjectENS_9StructureEE8callFuncIZNS1_4initERNS_2VMEE4__34EEPS2_RKNS3_11InitializerE
4448:__ZN3JSC12LazyPropertyINS_14JSGlobalObjectENS_9StructureEE8callFuncIZNS1_4initERNS_2VMEE4__33EEPS2_RKNS3_11InitializerE
4449:__ZN3JSC12LazyPropertyINS_14JSGlobalObjectENS_9StructureEE8callFuncIZNS_18LazyClassStructure9initLaterIZNS1_4initERNS_2VMEE4__32EEvRKT_EUlRKNS3_11InitializerEE_EEPS2_SF_
4450:__ZN3JSC12LazyPropertyINS_14JSGlobalObjectENS_9StructureEE8callFuncIZNS_18LazyClassStructure9initLaterIZNS1_4initERNS_2VMEE4__31EEvRKT_EUlRKNS3_11InitializerEE_EEPS2_SF_
4451:__ZN3JSC12LazyPropertyINS_14JSGlobalObjectENS_9StructureEE8callFuncIZNS_18LazyClassStructure9initLaterIZNS1_4initERNS_2VMEE4__30EEvRKT_EUlRKNS3_11InitializerEE_EEPS2_SF_
4452:__ZN3JSC12LazyPropertyINS_14JSGlobalObjectENS_9StructureEE8callFuncIZNS_18LazyClassStructure9initLaterIZNS1_4initERNS_2VMEE4__29EEvRKT_EUlRKNS3_11InitializerEE_EEPS2_SF_
4453:__ZN3JSC12LazyPropertyINS_14JSGlobalObjectENS_9StructureEE8callFuncIZNS_18LazyClassStructure9initLaterIZNS1_4initERNS_2VMEE4__28EEvRKT_EUlRKNS3_11InitializerEE_EEPS2_SF_
4454:__ZN3JSC12LazyPropertyINS_14JSGlobalObjectENS_9StructureEE8callFuncIZNS1_4initERNS_2VMEE4__27EEPS2_RKNS3_11InitializerE
4455:__ZN3JSC12LazyPropertyINS_14JSGlobalObjectENS_9StructureEE8callFuncIZNS1_4initERNS_2VMEE4__26EEPS2_RKNS3_11InitializerE
4456:__ZN3JSC12LazyPropertyINS_14JSGlobalObjectENS_9StructureEE8callFuncIZNS1_4initERNS_2VMEE4__25EEPS2_RKNS3_11InitializerE
4457:__ZN3JSC12LazyPropertyINS_14JSGlobalObjectENS_9StructureEE8callFuncIZNS1_4initERNS_2VMEE4__24EEPS2_RKNS3_11InitializerE
4458:__ZN3JSC12LazyPropertyINS_14JSGlobalObjectENS_9StructureEE8callFuncIZNS1_4initERNS_2VMEE4__23EEPS2_RKNS3_11InitializerE
4459:__ZN3JSC12LazyPropertyINS_14JSGlobalObjectENS_9StructureEE8callFuncIZNS1_4initERNS_2VMEE4__22EEPS2_RKNS3_11InitializerE
4460:__ZN3JSC12LazyPropertyINS_14JSGlobalObjectENS_9StructureEE8callFuncIZNS1_4initERNS_2VMEE4__21EEPS2_RKNS3_11InitializerE
4461:__ZN3JSC12LazyPropertyINS_14JSGlobalObjectENS_9StructureEE8callFuncIZNS_18LazyClassStructure9initLaterIZNS1_4initERNS_2VMEE4__20EEvRKT_EUlRKNS3_11InitializerEE_EEPS2_SF_
4462:__ZN3JSC12LazyPropertyINS_14JSGlobalObjectENS_9StructureEE8callFuncIZNS_18LazyClassStructure9initLaterIZNS1_4initERNS_2VMEE4__19EEvRKT_EUlRKNS3_11InitializerEE_EEPS2_SF_
4463:__ZN3JSC32JSGenericTypedArrayViewPrototypeINS_23JSGenericTypedArrayViewINS_14Float64AdaptorEEEE6createERNS_2VMEPNS_14JSGlobalObjectEPNS_9StructureE
4464:__ZN3JSC34JSGenericTypedArrayViewConstructorINS_23JSGenericTypedArrayViewINS_14Float64AdaptorEEEE14finishCreationERNS_2VMEPNS_14JSGlobalObjectEPNS_8JSObjectERKN3WTF6StringEPNS_18FunctionExecutableE
4465:__ZN3JSC12LazyPropertyINS_14JSGlobalObjectENS_9StructureEE8callFuncIZNS_18LazyClassStructure9initLaterIZNS1_4initERNS_2VMEE4__18EEvRKT_EUlRKNS3_11InitializerEE_EEPS2_SF_
4466:__ZN3JSC32JSGenericTypedArrayViewPrototypeINS_23JSGenericTypedArrayViewINS_14Float32AdaptorEEEE6createERNS_2VMEPNS_14JSGlobalObjectEPNS_9StructureE
4467:__ZN3JSC34JSGenericTypedArrayViewConstructorINS_23JSGenericTypedArrayViewINS_14Float32AdaptorEEEE14finishCreationERNS_2VMEPNS_14JSGlobalObjectEPNS_8JSObjectERKN3WTF6StringEPNS_18FunctionExecutableE
4468:__ZN3JSC12LazyPropertyINS_14JSGlobalObjectENS_9StructureEE8callFuncIZNS_18LazyClassStructure9initLaterIZNS1_4initERNS_2VMEE4__17EEvRKT_EUlRKNS3_11InitializerEE_EEPS2_SF_
4469:__ZN3JSC12LazyPropertyINS_14JSGlobalObjectENS_9StructureEE8callFuncIZNS_18LazyClassStructure9initLaterIZNS1_4initERNS_2VMEE4__16EEvRKT_EUlRKNS3_11InitializerEE_EEPS2_SF_
4470:__ZN3JSC12LazyPropertyINS_14JSGlobalObjectENS_9StructureEE8callFuncIZNS_18LazyClassStructure9initLaterIZNS1_4initERNS_2VMEE4__15EEvRKT_EUlRKNS3_11InitializerEE_EEPS2_SF_
4471:__ZN3JSC32JSGenericTypedArrayViewPrototypeINS_23JSGenericTypedArrayViewINS_13Uint16AdaptorEEEE6createERNS_2VMEPNS_14JSGlobalObjectEPNS_9StructureE
4472:__ZN3JSC34JSGenericTypedArrayViewConstructorINS_23JSGenericTypedArrayViewINS_13Uint16AdaptorEEEE14finishCreationERNS_2VMEPNS_14JSGlobalObjectEPNS_8JSObjectERKN3WTF6StringEPNS_18FunctionExecutableE
4473:__ZN3JSC12LazyPropertyINS_14JSGlobalObjectENS_9StructureEE8callFuncIZNS_18LazyClassStructure9initLaterIZNS1_4initERNS_2VMEE4__14EEvRKT_EUlRKNS3_11InitializerEE_EEPS2_SF_
4474:__ZN3JSC12LazyPropertyINS_14JSGlobalObjectENS_9StructureEE8callFuncIZNS_18LazyClassStructure9initLaterIZNS1_4initERNS_2VMEE4__13EEvRKT_EUlRKNS3_11InitializerEE_EEPS2_SF_
4475:__ZN3JSC32JSGenericTypedArrayViewPrototypeINS_23JSGenericTypedArrayViewINS_19Uint8ClampedAdaptorEEEE6createERNS_2VMEPNS_14JSGlobalObjectEPNS_9StructureE
4476:__ZN3JSC34JSGenericTypedArrayViewConstructorINS_23JSGenericTypedArrayViewINS_19Uint8ClampedAdaptorEEEE14finishCreationERNS_2VMEPNS_14JSGlobalObjectEPNS_8JSObjectERKN3WTF6StringEPNS_18FunctionExecutableE
4477:__ZN3JSC12LazyPropertyINS_14JSGlobalObjectENS_9StructureEE8callFuncIZNS_18LazyClassStructure9initLaterIZNS1_4initERNS_2VMEE4__12EEvRKT_EUlRKNS3_11InitializerEE_EEPS2_SF_
4478:__ZN3JSC12LazyPropertyINS_14JSGlobalObjectENS_9StructureEE8callFuncIZNS_18LazyClassStructure9initLaterIZNS1_4initERNS_2VMEE4__11EEvRKT_EUlRKNS3_11InitializerEE_EEPS2_SF_
4479:__ZN3JSC12LazyPropertyINS_14JSGlobalObjectENS_27JSTypedArrayViewConstructorEE8callFuncIZNS1_4initERNS_2VMEE4__10EEPS2_RKNS3_11InitializerE
4480:__ZN3JSC12LazyPropertyINS_14JSGlobalObjectENS_25JSTypedArrayViewPrototypeEE8callFuncIZNS1_4initERNS_2VMEE3__9EEPS2_RKNS3_11InitializerE
4481:__ZN3JSC12LazyPropertyINS_14JSGlobalObjectENS_12GetterSetterEE8callFuncIZNS1_4initERNS_2VMEE3__8EEPS2_RKNS3_11InitializerE
4482:__ZN3JSC12LazyPropertyINS_14JSGlobalObjectENS_10JSFunctionEE8callFuncIZNS1_4initERNS_2VMEE3__7EEPS2_RKNS3_11InitializerE
4483:__ZN3JSC12LazyPropertyINS_14JSGlobalObjectENS_10JSFunctionEE8callFuncIZNS1_4initERNS_2VMEE3__6EEPS2_RKNS3_11InitializerE
4484:__ZN3JSC12LazyPropertyINS_14JSGlobalObjectENS_10JSFunctionEE8callFuncIZNS1_4initERNS_2VMEE3__5EEPS2_RKNS3_11InitializerE
4485:__ZN3JSC12LazyPropertyINS_14JSGlobalObjectENS_10JSFunctionEE8callFuncIZNS1_4initERNS_2VMEE3__4EEPS2_RKNS3_11InitializerE
4486:__ZN3JSC12LazyPropertyINS_14JSGlobalObjectENS_9StructureEE8callFuncIZNS1_4initERNS_2VMEE3__3EEPS2_RKNS3_11InitializerE
4487:__ZN3JSC12LazyPropertyINS_14JSGlobalObjectENS_9StructureEE8callFuncIZNS1_4initERNS_2VMEE3__2EEPS2_RKNS3_11InitializerE
4488:__ZN3JSC12LazyPropertyINS_14JSGlobalObjectENS_9StructureEE8callFuncIZNS1_4initERNS_2VMEE3__1EEPS2_RKNS3_11InitializerE
4489:__ZN3JSC12LazyPropertyINS_14JSGlobalObjectENS_9StructureEE8callFuncIZNS1_4initERNS_2VMEE3__0EEPS2_RKNS3_11InitializerE
4490:__ZN3JSC14JSGlobalObject10globalExecEv
4491:__ZN3JSC14JSGlobalObject12addGlobalVarERKNS_10IdentifierE
4492:__ZN3JSC14JSGlobalObject11addFunctionEPNS_9ExecStateERKNS_10IdentifierE
4493:__ZN3JSC14JSGlobalObject23setGlobalScopeExtensionEPNS_7JSScopeE
4494:__ZN3JSC14JSGlobalObject25clearGlobalScopeExtensionEv
4495:__ZN3JSC14JSGlobalObject12haveABadTimeERNS_2VME
4496:__ZN3JSC14JSGlobalObject25setRemoteDebuggingEnabledEb
4497:__ZNK3JSC14JSGlobalObject11hasDebuggerEv
4498:__ZNK3JSC14JSGlobalObject22hasInteractiveDebuggerEv
4499:__ZN3JSC14JSGlobalObject6createERNS_2VMEPNS_9StructureE
4500:__ZN3JSC14JSGlobalObject14finishCreationERNS_2VME
4501:__ZN3JSC24JSGlobalObjectDebuggableD0Ev
4502:__ZN3JSC24JSGlobalObjectDebuggable7connectEPN9Inspector15FrontendChannelEb
4503:__ZN3JSC24JSGlobalObjectDebuggable10disconnectEPN9Inspector15FrontendChannelE
4504:__ZN3JSC24JSGlobalObjectDebuggable25dispatchMessageFromRemoteERKN3WTF6StringE
4505:__ZNK3JSC24JSGlobalObjectDebuggable4nameEv
4506:__ZN3JSC24JSGlobalObjectDebuggable5pauseEv
4507:__ZN3JSC24JSGlobalObjectDebuggable34pauseWaitingForAutomaticInspectionEv
4508:__ZN3JSC24JSGlobalObjectDebuggableC2ERNS_14JSGlobalObjectE
4509:__ZN3JSC10jsToNumberEN3WTF10StringViewE
4510:__ZN3JSCL19jsStrDecimalLiteralIhEEdRPKT_S3_
4511:__ZN3JSCL19jsStrDecimalLiteralItEEdRPKT_S3_
4512:__ZN3JSC14globalFuncEvalEPNS_9ExecStateE
4513:__ZN3JSC18globalFuncParseIntEPNS_9ExecStateE
4514:__ZN3JSCL16parseIntOverflowEN3WTF10StringViewEi
4515:__ZN3JSC20globalFuncParseFloatEPNS_9ExecStateE
4516:__ZN3JSC19globalFuncDecodeURIEPNS_9ExecStateE
4517:__ZN3JSCL6decodeEPNS_9ExecStateERKN3WTF6BitmapILm256EjEEb
4518:__ZN3JSC15JSStringBuilder6appendEt
4519:__ZN3WTF6VectorIhLm64ENS_20UnsafeVectorOverflowELm16EE9tryAppendIhEEbPKT_m
4520:__ZN3WTF6VectorItLm64ENS_20UnsafeVectorOverflowELm16EE9tryAppendItEEbPKT_m
4521:__ZN3JSC15JSStringBuilder5buildEPNS_9ExecStateE
4522:__ZN3WTF10StringImpl5adoptIhLm64ENS_20UnsafeVectorOverflowEEENS_3RefIS0_EEONS_6VectorIT_XT0_ET1_Lm16EEE
4523:__ZN3WTF6VectorItLm64ENS_20UnsafeVectorOverflowELm16EE14shrinkCapacityEm
4524:__ZN3WTF10StringImpl5adoptItLm64ENS_20UnsafeVectorOverflowEEENS_3RefIS0_EEONS_6VectorIT_XT0_ET1_Lm16EEE
4525:__ZN3WTF6VectorItLm64ENS_20UnsafeVectorOverflowELm16EE13releaseBufferEv
4526:__ZN3WTF6VectorIhLm64ENS_20UnsafeVectorOverflowELm16EE13releaseBufferEv
4527:__ZN3WTF6VectorItLm64ENS_20UnsafeVectorOverflowELm16EE14appendSlowCaseIRhEEvOT_
4528:__ZN3JSC28globalFuncDecodeURIComponentEPNS_9ExecStateE
4529:__ZN3JSC19globalFuncEncodeURIEPNS_9ExecStateE
4530:__ZN3JSCL6encodeEPNS_9ExecStateERKN3WTF6BitmapILm256EjEE
4531:__ZZN3JSCL6encodeItEENS_7JSValueEPNS_9ExecStateERKN3WTF6BitmapILm256EjEEPKT_jENKUlvE_clEv
4532:__ZN3JSC28globalFuncEncodeURIComponentEPNS_9ExecStateE
4533:__ZN3JSC16globalFuncEscapeEPNS_9ExecStateE
4534:__ZN3WTF15appendByteAsHexIN3JSC15JSStringBuilderEEEvhRT_NS_17HexConversionModeE
4535:__ZN3JSC18globalFuncUnescapeEPNS_9ExecStateE
4536:__ZN3JSC24globalFuncThrowTypeErrorEPNS_9ExecStateE
4537:__ZN3JSC48globalFuncThrowTypeErrorArgumentsCalleeAndCallerEPNS_9ExecStateE
4538:__ZN3JSC21globalFuncProtoGetterEPNS_9ExecStateE
4539:__ZN3JSC21globalFuncProtoSetterEPNS_9ExecStateE
4540:__ZN3JSC20globalFuncBuiltinLogEPNS_9ExecStateE
4541:__ZN3JSC22globalFuncImportModuleEPNS_9ExecStateE
4542:__ZN3JSC17JSInternalPromise6createERNS_2VMEPNS_9StructureE
4543:__ZN3JSC17JSInternalPromise15createStructureERNS_2VMEPNS_14JSGlobalObjectENS_7JSValueE
4544:__ZN3JSC17JSInternalPromise4thenEPNS_9ExecStateEPNS_10JSFunctionES4_
4545:__ZN3JSC28JSInternalPromiseConstructor11getCallDataEPNS_6JSCellERNS_8CallDataE
4546:__ZN3JSCL16constructPromiseEPNS_9ExecStateE
4547:__ZN3JSC28JSInternalPromiseConstructor6createERNS_2VMEPNS_9StructureEPNS_26JSInternalPromisePrototypeEPNS_12GetterSetterE
4548:__ZN3JSC28JSInternalPromiseConstructor15createStructureERNS_2VMEPNS_14JSGlobalObjectENS_7JSValueE
4549:__ZN3JSC25JSInternalPromiseDeferred6createEPNS_9ExecStateEPNS_14JSGlobalObjectE
4550:__ZN3JSC25JSInternalPromiseDeferred7resolveEPNS_9ExecStateENS_7JSValueE
4551:__ZN3JSC25JSInternalPromiseDeferred6rejectEPNS_9ExecStateENS_7JSValueE
4552:__ZN3JSC26JSInternalPromisePrototype6createERNS_2VMEPNS_14JSGlobalObjectEPNS_9StructureE
4553:__ZN3JSC26JSInternalPromisePrototype15createStructureERNS_2VMEPNS_14JSGlobalObjectENS_7JSValueE
4554:__ZN3JSC14JSJobMicrotaskD2Ev
4555:__ZN3JSC14JSJobMicrotaskD0Ev
4556:__ZN3JSC14JSJobMicrotask3runEPNS_9ExecStateE
4557:__ZN3JSC11createJSJobERNS_2VMENS_7JSValueEPNS_7JSArrayE
4558:__ZN3JSC14JSJobMicrotaskC2ERNS_2VMENS_7JSValueEPNS_7JSArrayE
4559:__ZN3JSC20JSLexicalEnvironment3putEPNS_6JSCellEPNS_9ExecStateENS_12PropertyNameENS_7JSValueERNS_15PutPropertySlotE
4560:__ZN3JSC20JSLexicalEnvironment14deletePropertyEPNS_6JSCellEPNS_9ExecStateENS_12PropertyNameE
4561:__ZN3JSC20JSLexicalEnvironment18getOwnPropertySlotEPNS_8JSObjectEPNS_9ExecStateENS_12PropertyNameERNS_12PropertySlotE
4562:__ZN3JSC20JSLexicalEnvironment27getOwnNonIndexPropertyNamesEPNS_8JSObjectEPNS_9ExecStateERNS_17PropertyNameArrayENS_15EnumerationModeE
4563:__ZNK3JSC8JSObject9getDirectERNS_2VMENS_12PropertyNameERj
4564:__ZN3JSC14symbolTablePutILNS_18SymbolTablePutModeE1ENS_20JSLexicalEnvironmentEEEbPT0_PNS_9ExecStateENS_12PropertyNameENS_7JSValueEbbRb
4565:__ZN3JSC12JSLockHolderC2EPNS_9ExecStateE
4566:__ZN3JSC6JSLock4lockEl
4567:__ZN3JSC6JSLock14didAcquireLockEv
4568:__ZN3JSC12JSLockHolderC2EPNS_2VME
4569:__ZN3JSC12JSLockHolderD2Ev
4570:__ZN3JSC6JSLock15willReleaseLockEv
4571:__ZN3JSC6JSLock6unlockEv
4572:__ZN3JSC6JSLockC2EPNS_2VME
4573:__ZN3JSC6JSLockD2Ev
4574:__ZN3JSC6JSLock12dropAllLocksEPNS0_12DropAllLocksE
4575:__ZN3JSC6JSLock12grabAllLocksEPNS0_12DropAllLocksEj
4576:__ZN3JSC6JSLock12DropAllLocksC2EPNS_2VME
4577:__ZN3JSC6JSLock12DropAllLocksC2EPNS_9ExecStateE
4578:__ZN3JSC6JSLock12DropAllLocksD2Ev
4579:__ZN3JSC13JSMapIterator14finishCreationERNS_2VMEPNS_5JSMapE
4580:__ZN3JSC13JSMapIterator10createPairEPNS_9ExecStateENS_7JSValueES3_
4581:__ZN3JSC13JSMapIterator5cloneEPNS_9ExecStateE
4582:__ZN3JSC13JSMapIterator6createERNS_2VMEPNS_9StructureEPNS_5JSMapENS_13IterationKindE
4583:__ZN3JSC19JSModuleEnvironment13visitChildrenEPNS_6JSCellERNS_11SlotVisitorE
4584:__ZN3JSC19JSModuleEnvironment3putEPNS_6JSCellEPNS_9ExecStateENS_12PropertyNameENS_7JSValueERNS_15PutPropertySlotE
4585:__ZN3JSC19JSModuleEnvironment14deletePropertyEPNS_6JSCellEPNS_9ExecStateENS_12PropertyNameE
4586:__ZN3JSC19JSModuleEnvironment18getOwnPropertySlotEPNS_8JSObjectEPNS_9ExecStateENS_12PropertyNameERNS_12PropertySlotE
4587:__ZN3JSC19JSModuleEnvironment27getOwnNonIndexPropertyNamesEPNS_8JSObjectEPNS_9ExecStateERNS_17PropertyNameArrayENS_15EnumerationModeE
4588:__ZN3JSC19JSModuleEnvironment6createERNS_2VMEPNS_9StructureEPNS_7JSScopeEPNS_11SymbolTableENS_7JSValueEPNS_20AbstractModuleRecordE
4589:__ZN3JSC14JSModuleLoader14finishCreationEPNS_9ExecStateERNS_2VMEPNS_14JSGlobalObjectE
4590:__ZN3JSC14JSModuleLoader7provideEPNS_9ExecStateENS_7JSValueENS0_6StatusERKNS_10SourceCodeE
4591:__ZN3JSC14JSModuleLoader21loadAndEvaluateModuleEPNS_9ExecStateENS_7JSValueES3_S3_
4592:__ZN3JSC14JSModuleLoader19requestImportModuleEPNS_9ExecStateERKNS_10IdentifierENS_7JSValueE
4593:__ZN3JSC14JSModuleLoader12importModuleEPNS_9ExecStateEPNS_8JSStringERKNS_12SourceOriginE
4594:__ZN3JSCL18printableModuleKeyEPNS_9ExecStateENS_7JSValueE
4595:__ZN3JSC14JSModuleLoader7resolveEPNS_9ExecStateENS_7JSValueES3_S3_
4596:__ZN3JSC14JSModuleLoader5fetchEPNS_9ExecStateENS_7JSValueES3_
4597:__ZN3JSC14JSModuleLoader11instantiateEPNS_9ExecStateENS_7JSValueES3_S3_
4598:__ZN3JSC14JSModuleLoader8evaluateEPNS_9ExecStateENS_7JSValueES3_S3_
4599:__ZN3JSC14JSModuleLoader24getModuleNamespaceObjectEPNS_9ExecStateENS_7JSValueE
4600:__ZN3JSC23JSModuleNamespaceObject7destroyEPNS_6JSCellE
4601:__ZN3JSC23JSModuleNamespaceObject13visitChildrenEPNS_6JSCellERNS_11SlotVisitorE
4602:__ZN3JSC23JSModuleNamespaceObject3putEPNS_6JSCellEPNS_9ExecStateENS_12PropertyNameENS_7JSValueERNS_15PutPropertySlotE
4603:__ZN3JSC23JSModuleNamespaceObject10putByIndexEPNS_6JSCellEPNS_9ExecStateEjNS_7JSValueEb
4604:__ZN3JSC23JSModuleNamespaceObject14deletePropertyEPNS_6JSCellEPNS_9ExecStateENS_12PropertyNameE
4605:__ZN3JSC23JSModuleNamespaceObject18getOwnPropertySlotEPNS_8JSObjectEPNS_9ExecStateENS_12PropertyNameERNS_12PropertySlotE
4606:__ZN3JSC23JSModuleNamespaceObject25getOwnPropertySlotByIndexEPNS_8JSObjectEPNS_9ExecStateEjRNS_12PropertySlotE
4607:__ZN3JSC23JSModuleNamespaceObject19getOwnPropertyNamesEPNS_8JSObjectEPNS_9ExecStateERNS_17PropertyNameArrayENS_15EnumerationModeE
4608:__ZN3JSC23JSModuleNamespaceObject17defineOwnPropertyEPNS_8JSObjectEPNS_9ExecStateENS_12PropertyNameERKNS_18PropertyDescriptorEb
4609:__ZN3JSC23JSModuleNamespaceObject24getOwnPropertySlotCommonEPNS_9ExecStateENS_12PropertyNameERNS_12PropertySlotE
4610:__ZN3WTF7HashMapINS_6RefPtrINS_17UniquedStringImplEEEN3JSC23JSModuleNamespaceObject11ExportEntryENS4_17IdentifierRepHashENS_10HashTraitsIS3_EENS8_IS6_EEED2Ev
4611:__ZN3JSC23JSModuleNamespaceObjectC2ERNS_2VMEPNS_9StructureE
4612:__ZN3JSC23JSModuleNamespaceObject14finishCreationEPNS_9ExecStateEPNS_14JSGlobalObjectEPNS_20AbstractModuleRecordEON3WTF6VectorINSt3__24pairINS_10IdentifierENS5_10ResolutionEEELm0ENS7_15CrashOnOverflowELm16EEE
4613:__ZNSt3__26__sortIRZN3JSC23JSModuleNamespaceObject14finishCreationEPNS1_9ExecStateEPNS1_14JSGlobalObjectEPNS1_20AbstractModuleRecordEON3WTF6VectorINS_4pairINS1_10IdentifierENS7_10ResolutionEEELm0ENS9_15CrashOnOverflowELm16EEEE3__0PSE_EEvT0_SL_T_
4614:__ZN3WTF7HashMapINS_6RefPtrINS_17UniquedStringImplEEEN3JSC23JSModuleNamespaceObject11ExportEntryENS4_17IdentifierRepHashENS_10HashTraitsIS3_EENS8_IS6_EEE3addIS6_EENS_18HashTableAddResultINS_17HashTableIteratorIS3_NS_12KeyValuePairIS3_S6_EENS_24KeyValuePairKeyExtractorISG_EES7_NSB_18KeyValuePairTraitsES9_EEEEOS3_OT_
4615:__ZN3WTF9HashTableINS_6RefPtrINS_17UniquedStringImplEEENS_12KeyValuePairIS3_N3JSC23JSModuleNamespaceObject11ExportEntryEEENS_24KeyValuePairKeyExtractorIS8_EENS5_17IdentifierRepHashENS_7HashMapIS3_S7_SB_NS_10HashTraitsIS3_EENSD_IS7_EEE18KeyValuePairTraitsESE_E6rehashEjPS8_
4616:__ZN3WTF9HashTableINS_6RefPtrINS_17UniquedStringImplEEENS_12KeyValuePairIS3_N3JSC23JSModuleNamespaceObject11ExportEntryEEENS_24KeyValuePairKeyExtractorIS8_EENS5_17IdentifierRepHashENS_7HashMapIS3_S7_SB_NS_10HashTraitsIS3_EENSD_IS7_EEE18KeyValuePairTraitsESE_E8reinsertEOS8_
4617:__ZNSt3__27__sort3IRZN3JSC23JSModuleNamespaceObject14finishCreationEPNS1_9ExecStateEPNS1_14JSGlobalObjectEPNS1_20AbstractModuleRecordEON3WTF6VectorINS_4pairINS1_10IdentifierENS7_10ResolutionEEELm0ENS9_15CrashOnOverflowELm16EEEE3__0PSE_EEjT0_SL_SL_T_
4618:__ZNSt3__27__sort4IRZN3JSC23JSModuleNamespaceObject14finishCreationEPNS1_9ExecStateEPNS1_14JSGlobalObjectEPNS1_20AbstractModuleRecordEON3WTF6VectorINS_4pairINS1_10IdentifierENS7_10ResolutionEEELm0ENS9_15CrashOnOverflowELm16EEEE3__0PSE_EEjT0_SL_SL_SL_T_
4619:__ZNSt3__27__sort5IRZN3JSC23JSModuleNamespaceObject14finishCreationEPNS1_9ExecStateEPNS1_14JSGlobalObjectEPNS1_20AbstractModuleRecordEON3WTF6VectorINS_4pairINS1_10IdentifierENS7_10ResolutionEEELm0ENS9_15CrashOnOverflowELm16EEEE3__0PSE_EEjT0_SL_SL_SL_SL_T_
4620:__ZNSt3__227__insertion_sort_incompleteIRZN3JSC23JSModuleNamespaceObject14finishCreationEPNS1_9ExecStateEPNS1_14JSGlobalObjectEPNS1_20AbstractModuleRecordEON3WTF6VectorINS_4pairINS1_10IdentifierENS7_10ResolutionEEELm0ENS9_15CrashOnOverflowELm16EEEE3__0PSE_EEbT0_SL_T_
4621:__ZN3JSC14JSModuleRecord7destroyEPNS_6JSCellE
4622:__ZN3JSC14JSModuleRecord13visitChildrenEPNS_6JSCellERNS_11SlotVisitorE
4623:__ZN3JSC14JSModuleRecordD2Ev
4624:__ZN3JSC14JSModuleRecord15createStructureERNS_2VMEPNS_14JSGlobalObjectENS_7JSValueE
4625:__ZN3JSC14JSModuleRecord6createEPNS_9ExecStateERNS_2VMEPNS_9StructureERKNS_10IdentifierERKNS_10SourceCodeERKNS_19VariableEnvironmentESF_
4626:__ZN3JSC14JSModuleRecordC2ERNS_2VMEPNS_9StructureERKNS_10IdentifierERKNS_10SourceCodeERKNS_19VariableEnvironmentESD_
4627:__ZN3JSC14JSModuleRecord4linkEPNS_9ExecStateE
4628:__ZN3JSC14JSModuleRecord23instantiateDeclarationsEPNS_9ExecStateEPNS_23ModuleProgramExecutableE
4629:__ZN3JSC14symbolTablePutILNS_18SymbolTablePutModeE0ENS_19JSModuleEnvironmentEEEbPT0_PNS_9ExecStateENS_12PropertyNameENS_7JSValueEbbRb
4630:__ZN3JSC14JSModuleRecord8evaluateEPNS_9ExecStateE
4631:__ZN3JSC19JSNativeStdFunction6createERNS_2VMEPNS_14JSGlobalObjectEiRKN3WTF6StringEONSt3__28functionIFxPNS_9ExecStateEEEENS_9IntrinsicEPSD_
4632:__ZN3JSCL14runStdFunctionEPNS_9ExecStateE
4633:__ZN3JSC18JSONProtoFuncParseEPNS_9ExecStateE
4634:__ZN3JSC22JSONProtoFuncStringifyEPNS_9ExecStateE
4635:__ZN3JSC11StringifierC2EPNS_9ExecStateERKNS_5LocalINS_7UnknownEEES7_
4636:__ZN3JSC11Stringifier9stringifyENS_6HandleINS_7UnknownEEE
4637:__ZN3JSC11StringifierD2Ev
4638:__ZN3JSC11Stringifier6HolderD2Ev
4639:__ZN3JSC11Stringifier22appendStringifiedValueERN3WTF13StringBuilderENS_7JSValueERKNS0_6HolderERKNS_27PropertyNameForFunctionCallE
4640:__ZN3JSC11Stringifier10toJSONImplENS_7JSValueES1_RKNS_27PropertyNameForFunctionCallE
4641:__ZNK3JSC27PropertyNameForFunctionCall5valueEPNS_9ExecStateE
4642:__ZN3WTF6VectorIN3JSC11Stringifier6HolderELm16ENS_20UnsafeVectorOverflowELm16EE14appendSlowCaseIS3_EEvOT_
4643:__ZN3JSC11Stringifier6Holder18appendNextPropertyERS0_RN3WTF13StringBuilderE
4644:__ZN3WTF6RefPtrIN3JSC21PropertyNameArrayDataEEaSEPS2_
4645:__ZN3WTF6RefPtrIN3JSC21PropertyNameArrayDataEEaSEOS3_
4646:__ZN3JSC11Stringifier6indentEv
4647:__ZN3JSC11Stringifier8unindentEv
4648:__ZN3WTF6VectorIN3JSC11Stringifier6HolderELm16ENS_20UnsafeVectorOverflowELm16EE15reserveCapacityEm
4649:__ZN3JSC13LiteralParserIhE15getErrorMessageEv
4650:__ZN3JSC6Walker4walkENS_7JSValueE
4651:__ZN3WTF6VectorIN3JSC5LocalINS1_7JSArrayEEELm16ENS_15CrashOnOverflowELm16EE6appendEOS4_
4652:__ZN3WTF6VectorIjLm16ENS_20UnsafeVectorOverflowELm16EE6appendEOj
4653:__ZN3WTF6VectorIN3JSC11WalkerStateELm16ENS_20UnsafeVectorOverflowELm16EE6appendEOS2_
4654:__ZN3JSC6Walker11callReviverEPNS_8JSObjectENS_7JSValueES3_
4655:__ZN3WTF6VectorIN3JSC17PropertyNameArrayELm16ENS_20UnsafeVectorOverflowELm16EE14appendSlowCaseIS2_EEvOT_
4656:__ZN3WTF6VectorIN3JSC17PropertyNameArrayELm16ENS_20UnsafeVectorOverflowELm16EE15reserveCapacityEm
4657:__ZN3JSC10JSONObject14finishCreationERNS_2VME
4658:__ZN3JSC9JSONParseEPNS_9ExecStateERKN3WTF6StringE
4659:__ZN3JSC13JSONStringifyEPNS_9ExecStateENS_7JSValueEj
4660:__ZN3JSC8JSObject13visitChildrenEPNS_6JSCellERNS_11SlotVisitorE
4661:__ZN3JSC8JSObject3putEPNS_6JSCellEPNS_9ExecStateENS_12PropertyNameENS_7JSValueERNS_15PutPropertySlotE
4662:__ZN3JSC8JSObject10putByIndexEPNS_6JSCellEPNS_9ExecStateEjNS_7JSValueEb
4663:__ZN3JSC8JSObject14deletePropertyEPNS_6JSCellEPNS_9ExecStateENS_12PropertyNameE
4664:__ZN3JSC8JSObject21deletePropertyByIndexEPNS_6JSCellEPNS_9ExecStateEj
4665:__ZN3JSC8JSObject25getOwnPropertySlotByIndexEPS0_PNS_9ExecStateEjRNS_12PropertySlotE
4666:__ZN3JSC8JSObject6toThisEPNS_6JSCellEPNS_9ExecStateENS_8ECMAModeE
4667:__ZN3JSC8JSObject12defaultValueEPKS0_PNS_9ExecStateENS_22PreferredPrimitiveTypeE
4668:__ZN3JSC8JSObject19getOwnPropertyNamesEPS0_PNS_9ExecStateERNS_17PropertyNameArrayENS_15EnumerationModeE
4669:__ZN3JSC8JSObject27getOwnNonIndexPropertyNamesEPS0_PNS_9ExecStateERNS_17PropertyNameArrayENS_15EnumerationModeE
4670:__ZN3JSC8JSObject16getPropertyNamesEPS0_PNS_9ExecStateERNS_17PropertyNameArrayENS_15EnumerationModeE
4671:__ZN3JSC8JSObject19getEnumerableLengthEPNS_9ExecStateEPS0_
4672:__ZN3JSC8JSObject25getStructurePropertyNamesEPS0_PNS_9ExecStateERNS_17PropertyNameArrayENS_15EnumerationModeE
4673:__ZN3JSC8JSObject23getGenericPropertyNamesEPS0_PNS_9ExecStateERNS_17PropertyNameArrayENS_15EnumerationModeE
4674:__ZN3JSC8JSObject9classNameEPKS0_
4675:__ZN3JSC8JSObject12toStringNameEPKS0_PNS_9ExecStateE
4676:__ZN3JSC8JSObject17defineOwnPropertyEPS0_PNS_9ExecStateENS_12PropertyNameERKNS_18PropertyDescriptorEb
4677:__ZN3JSC8JSObject17preventExtensionsEPS0_PNS_9ExecStateE
4678:__ZN3JSC8JSObject12isExtensibleEPS0_PNS_9ExecStateE
4679:__ZN3JSC8JSObject12setPrototypeEPS0_PNS_9ExecStateENS_7JSValueEb
4680:__ZN3JSC8JSObject12getPrototypeEPS0_PNS_9ExecStateE
4681:__ZN3JSC8JSObject12heapSnapshotEPNS_6JSCellERNS_19HeapSnapshotBuilderE
4682:__ZN3JSC8JSObject13estimatedSizeEPNS_6JSCellE
4683:__ZN3JSC8JSObject26setPrototypeWithCycleCheckERNS_2VMEPNS_9ExecStateENS_7JSValueEb
4684:__ZN3JSC8JSObject18setPrototypeDirectERNS_2VMENS_7JSValueE
4685:__ZN3JSC8JSObject27switchToSlowPutArrayStorageERNS_2VME
4686:__ZN3JSC8JSObject30convertUndecidedToArrayStorageERNS_2VMENS_21NonPropertyTransitionE
4687:__ZN3JSC8JSObject26convertInt32ToArrayStorageERNS_2VMENS_21NonPropertyTransitionE
4688:__ZN3JSC8JSObject27convertDoubleToArrayStorageERNS_2VMENS_21NonPropertyTransitionE
4689:__ZN3JSC8JSObject31convertContiguousToArrayStorageERNS_2VMENS_21NonPropertyTransitionE
4690:__ZN3JSC8JSObject22ensureArrayStorageSlowERNS_2VME
4691:__ZN3JSC8JSObject56enterDictionaryIndexingModeWhenArrayStorageAlreadyExistsERNS_2VMEPNS_12ArrayStorageE
4692:__ZN3JSC8JSObject54ensureArrayStorageExistsAndEnterDictionaryIndexingModeERNS_2VME
4693:__ZN3JSC8JSObject18createArrayStorageERNS_2VMEjj
4694:__ZN3JSC8JSObject27createArrayStorageButterflyERNS_2VMEPNS_6JSCellEPNS_9StructureEjjPNS_9ButterflyE
4695:__ZN3JSC8JSObject24defineOwnIndexedPropertyEPNS_9ExecStateEjRKNS_18PropertyDescriptorEb
4696:__ZN3JSC8JSObject25defineOwnNonIndexPropertyEPNS_9ExecStateENS_12PropertyNameERKNS_18PropertyDescriptorEb
4697:__ZN3JSC8JSObject24getOwnPropertyDescriptorEPNS_9ExecStateENS_12PropertyNameERNS_18PropertyDescriptorE
4698:__ZN3JSC34validateAndApplyPropertyDescriptorEPNS_9ExecStateEPNS_8JSObjectENS_12PropertyNameEbRKNS_18PropertyDescriptorEbS7_b
4699:__ZN3JSCL13putDescriptorEPNS_9ExecStateEPNS_8JSObjectENS_12PropertyNameERKNS_18PropertyDescriptorEjS7_
4700:__ZN3JSCL44getCustomGetterSetterFunctionForGetterSetterEPNS_9ExecStateENS_12PropertyNameEPNS_18CustomGetterSetterENS_28JSCustomGetterSetterFunction4TypeE
4701:__ZN3JSC8JSObject17putDirectAccessorEPNS_9ExecStateENS_12PropertyNameENS_7JSValueEj
4702:__ZN3JSC8JSObject32putDirectIndexBeyondVectorLengthEPNS_9ExecStateEjNS_7JSValueEjNS_18PutDirectIndexModeE
4703:__ZN3JSC8JSObject32notifyPresenceOfIndexedAccessorsERNS_2VME
4704:__ZN3JSC8JSObject48putDirectIndexBeyondVectorLengthWithArrayStorageEPNS_9ExecStateEjNS_7JSValueEjNS_18PutDirectIndexModeEPNS_12ArrayStorageE
4705:__ZN3JSC8JSObject27createInitialForValueAndSetERNS_2VMEjNS_7JSValueE
4706:__ZN3JSC8JSObject24convertUndecidedForValueERNS_2VMENS_7JSValueE
4707:__ZN3JSC8JSObject20convertInt32ToDoubleERNS_2VME
4708:__ZN3JSC8JSObject45putByIndexBeyondVectorLengthWithoutAttributesILh4EEEbPNS_9ExecStateEjNS_7JSValueE
4709:__ZN3JSC8JSObject25convertDoubleToContiguousERNS_2VME
4710:__ZN3JSC8JSObject45putByIndexBeyondVectorLengthWithoutAttributesILh6EEEbPNS_9ExecStateEjNS_7JSValueE
4711:__ZN3JSC8JSObject45putByIndexBeyondVectorLengthWithoutAttributesILh8EEEbPNS_9ExecStateEjNS_7JSValueE
4712:__ZN3JSC8JSObject16ensureLengthSlowERNS_2VMEj
4713:__ZN3JSC8JSObject18createInitialInt32ERNS_2VMEj
4714:__ZN3JSC8JSObject19createInitialDoubleERNS_2VMEj
4715:__ZN3JSC8JSObject23createInitialContiguousERNS_2VMEj
4716:__ZN3JSC8JSObject27createInitialIndexedStorageERNS_2VMEj
4717:__ZN3JSC8JSObject20increaseVectorLengthERNS_2VMEj
4718:__ZN3WTF9HashTableINSt3__24pairIPN3JSC18CustomGetterSetterEiEENS_12KeyValuePairIS6_NS3_4WeakINS3_28JSCustomGetterSetterFunctionEEEEENS_24KeyValuePairKeyExtractorISB_EENS_8PairHashIS5_iEENS_7HashMapIS6_SA_SF_NS_10HashTraitsIS6_EENSH_ISA_EEE18KeyValuePairTraitsESI_E6lookupINS_22IdentityHashTranslatorISL_SF_EES6_EEPSB_RKT0_
4719:__ZN3WTF7HashMapINSt3__24pairIPN3JSC18CustomGetterSetterEiEENS3_4WeakINS3_28JSCustomGetterSetterFunctionEEENS_8PairHashIS5_iEENS_10HashTraitsIS6_EENSC_IS9_EEE9inlineSetIRKS6_S9_EENS_18HashTableAddResultINS_17HashTableIteratorIS6_NS_12KeyValuePairIS6_S9_EENS_24KeyValuePairKeyExtractorISM_EESB_NSF_18KeyValuePairTraitsESD_EEEEOT_OT0_
4720:__ZN3WTF9HashTableINSt3__24pairIPN3JSC18CustomGetterSetterEiEENS_12KeyValuePairIS6_NS3_4WeakINS3_28JSCustomGetterSetterFunctionEEEEENS_24KeyValuePairKeyExtractorISB_EENS_8PairHashIS5_iEENS_7HashMapIS6_SA_SF_NS_10HashTraitsIS6_EENSH_ISA_EEE18KeyValuePairTraitsESI_E6rehashEjPSB_
4721:__ZN3WTF9HashTableINSt3__24pairIPN3JSC18CustomGetterSetterEiEENS_12KeyValuePairIS6_NS3_4WeakINS3_28JSCustomGetterSetterFunctionEEEEENS_24KeyValuePairKeyExtractorISB_EENS_8PairHashIS5_iEENS_7HashMapIS6_SA_SF_NS_10HashTraitsIS6_EENSH_ISA_EEE18KeyValuePairTraitsESI_E16lookupForWritingINS_22IdentityHashTranslatorISL_SF_EES6_EENS2_IPSB_bEERKT0_
4722:__ZN3JSC8JSObject24reifyAllStaticPropertiesEPNS_9ExecStateE
4723:__ZN3JSC19reifyStaticPropertyERNS_2VMERKNS_12PropertyNameERKNS_14HashTableValueERNS_8JSObjectE
4724:__ZN3JSC8JSObject23putDirectNativeFunctionERNS_2VMEPNS_14JSGlobalObjectERKNS_12PropertyNameEjPFxPNS_9ExecStateEENS_9IntrinsicEPKNS_6DOMJIT9SignatureEj
4725:__ZN3JSC8JSObject23putDirectNativeFunctionERNS_2VMEPNS_14JSGlobalObjectERKNS_12PropertyNameEjPFxPNS_9ExecStateEENS_9IntrinsicEj
4726:__ZN3JSC8JSObject20putIndexedDescriptorEPNS_9ExecStateEPNS_16SparseArrayEntryERKNS_18PropertyDescriptorERS5_
4727:__ZN3JSC17PropertyNameArray3addEj
4728:__ZNK3JSC8JSObject19ordinaryToPrimitiveEPNS_9ExecStateENS_22PreferredPrimitiveTypeE
4729:__ZNK3JSC8JSObject21findPropertyHashEntryERNS_2VMENS_12PropertyNameE
4730:__ZN3JSC13PropertyTable16addDeletedOffsetEi
4731:__ZN3JSC8JSObject46attemptToInterceptPutByIndexOnHoleForPrototypeEPNS_9ExecStateENS_7JSValueEjS3_bRb
4732:__ZN3JSC8JSObject28putByIndexBeyondVectorLengthEPNS_9ExecStateEjNS_7JSValueEb
4733:__ZN3JSC8JSObject44putByIndexBeyondVectorLengthWithArrayStorageEPNS_9ExecStateEjNS_7JSValueEbPNS_12ArrayStorageE
4734:__ZN3JSC15ordinarySetSlowEPNS_9ExecStateEPNS_8JSObjectENS_12PropertyNameENS_7JSValueES5_b
4735:__ZN3JSC8JSObject13putInlineSlowEPNS_9ExecStateENS_12PropertyNameENS_7JSValueERNS_15PutPropertySlotE
4736:__ZN3JSC8putEntryEPNS_9ExecStateEPKNS_14HashTableValueEPNS_8JSObjectES6_NS_12PropertyNameENS_7JSValueERNS_15PutPropertySlotE
4737:__ZN3JSC13JSFinalObject13visitChildrenEPNS_6JSCellERNS_11SlotVisitorE
4738:__ZN3JSC8JSObject19calculatedClassNameEPS0_
4739:__ZN3JSC30getStaticPropertySlotFromTableERNS_2VMERKNS_9HashTableEPNS_8JSObjectENS_12PropertyNameERNS_12PropertySlotE
4740:__ZN3JSC8JSObject22fillGetterPropertySlotERNS_12PropertySlotENS_7JSValueEji
4741:__ZN3JSC8JSObject20convertInt32ForValueERNS_2VMENS_7JSValueE
4742:__ZN3JSC8JSObject34attemptToInterceptPutByIndexOnHoleEPNS_9ExecStateEjNS_7JSValueEbRb
4743:__ZN3JSC8JSObject27enterDictionaryIndexingModeERNS_2VME
4744:__ZN3JSC8JSObject22createInitialUndecidedERNS_2VMEj
4745:__ZN3JSC8JSObject23convertUndecidedToInt32ERNS_2VME
4746:__ZN3JSC8JSObject24convertUndecidedToDoubleERNS_2VME
4747:__ZN3JSC8JSObject28convertUndecidedToContiguousERNS_2VME
4748:__ZN3JSC8JSObject26setIndexQuicklyToUndecidedERNS_2VMEjNS_7JSValueE
4749:__ZN3JSC8JSObject55convertInt32ToDoubleOrContiguousWhilePerformingSetIndexERNS_2VMEjNS_7JSValueE
4750:__ZN3JSC8JSObject48convertDoubleToContiguousWhilePerformingSetIndexERNS_2VMEjNS_7JSValueE
4751:__ZN3JSC8JSObject12isExtensibleEPNS_9ExecStateE
4752:__ZN3JSC8JSObject12setPrototypeERNS_2VMEPNS_9ExecStateENS_7JSValueEb
4753:__ZN3JSC8JSObject9putGetterEPNS_9ExecStateENS_12PropertyNameENS_7JSValueEj
4754:__ZN3JSC8JSObject9putSetterEPNS_9ExecStateENS_12PropertyNameENS_7JSValueEj
4755:__ZN3JSC8JSObject25putDirectNonIndexAccessorERNS_2VMENS_12PropertyNameENS_7JSValueEj
4756:__ZN3JSC8JSObject23putDirectCustomAccessorERNS_2VMENS_12PropertyNameENS_7JSValueEj
4757:__ZNK3JSC8JSObject11hasPropertyEPNS_9ExecStateENS_12PropertyNameE
4758:__ZNK3JSC8JSObject18hasPropertyGenericEPNS_9ExecStateENS_12PropertyNameENS_12PropertySlot18InternalMethodTypeE
4759:__ZNK3JSC8JSObject11hasPropertyEPNS_9ExecStateEj
4760:__ZNK3JSC8JSObject18hasPropertyGenericEPNS_9ExecStateEjNS_12PropertySlot18InternalMethodTypeE
4761:__ZNK3JSC8JSObject11toPrimitiveEPNS_9ExecStateENS_22PreferredPrimitiveTypeE
4762:__ZNK3JSC8JSObject18getPrimitiveNumberEPNS_9ExecStateERdRNS_7JSValueE
4763:__ZN3JSC8JSObject24getOwnStaticPropertySlotERNS_2VMENS_12PropertyNameERNS_12PropertySlotE
4764:__ZN3JSC8JSObject11hasInstanceEPNS_9ExecStateENS_7JSValueES3_
4765:__ZN3JSC8JSObject18defaultHasInstanceEPNS_9ExecStateENS_7JSValueES3_
4766:__ZN3JSC8JSObject11hasInstanceEPNS_9ExecStateENS_7JSValueE
4767:__ZN3JSC27objectPrivateFuncInstanceOfEPNS_9ExecStateE
4768:__ZNK3JSC8JSObject8toNumberEPNS_9ExecStateE
4769:__ZNK3JSC8JSObject8toStringEPNS_9ExecStateE
4770:__ZN3JSC8JSObject4sealERNS_2VME
4771:__ZN3JSC8JSObject6freezeERNS_2VME
4772:__ZN3JSC8JSObject24deallocateSparseIndexMapEv
4773:__ZN3JSC8JSObject30putDirectNativeIntrinsicGetterERNS_2VMEPNS_14JSGlobalObjectENS_10IdentifierEPFxPNS_9ExecStateEENS_9IntrinsicEj
4774:__ZN3JSC8JSObject40putDirectNativeFunctionWithoutTransitionERNS_2VMEPNS_14JSGlobalObjectERKNS_12PropertyNameEjPFxPNS_9ExecStateEENS_9IntrinsicEj
4775:__ZN3JSC8JSObject24putDirectBuiltinFunctionERNS_2VMEPNS_14JSGlobalObjectERKNS_12PropertyNameEPNS_18FunctionExecutableEj
4776:__ZN3JSC8JSObject41putDirectBuiltinFunctionWithoutTransitionERNS_2VMEPNS_14JSGlobalObjectERKNS_12PropertyNameEPNS_18FunctionExecutableEj
4777:__ZN3JSC8JSObject13countElementsEv
4778:__ZN3JSC8JSObject28reallocateAndShrinkButterflyERNS_2VMEj
4779:__ZN3JSC8JSObject28allocateMoreOutOfLineStorageERNS_2VMEmm
4780:__ZN3JSC9Butterfly27createOrGrowPropertyStorageEPS0_RNS_2VMEPNS_6JSCellEPNS_9StructureEmm
4781:__ZN3JSC8JSObject19putDirectMayBeIndexEPNS_9ExecStateENS_12PropertyNameENS_7JSValueE
4782:__ZN3JSC8JSObject19convertToDictionaryERNS_2VME
4783:__ZN3JSC8JSObject29shiftButterflyAfterFlatteningERKNS_24GCSafeConcurrentJSLockerERNS_2VMEPNS_9StructureEm
4784:__ZN3JSC8JSObject9getMethodEPNS_9ExecStateERNS_8CallDataERNS_8CallTypeERKNS_10IdentifierERKN3WTF6StringE
4785:__ZN3JSC9JSPromise6createERNS_2VMEPNS_9StructureE
4786:__ZN3JSC9JSPromise14finishCreationERNS_2VME
4787:__ZN3JSC9JSPromise15createStructureERNS_2VMEPNS_14JSGlobalObjectENS_7JSValueE
4788:__ZN3JSC9JSPromise10initializeEPNS_9ExecStateEPNS_14JSGlobalObjectENS_7JSValueE
4789:__ZNK3JSC9JSPromise6statusERNS_2VME
4790:__ZNK3JSC9JSPromise6resultERNS_2VME
4791:__ZN3JSC20JSPromiseConstructor11getCallDataEPNS_6JSCellERNS_8CallDataE
4792:__ZN3JSC20JSPromiseConstructor16getConstructDataEPNS_6JSCellERNS_13ConstructDataE
4793:__ZN3JSCL16constructPromiseEPNS_9ExecStateE_6674
4794:__ZN3JSCL11callPromiseEPNS_9ExecStateE
4795:__ZN3JSC20JSPromiseConstructor6createERNS_2VMEPNS_9StructureEPNS_18JSPromisePrototypeEPNS_12GetterSetterE
4796:__ZN3JSC20JSPromiseConstructor14finishCreationERNS_2VMEPNS_18JSPromisePrototypeEPNS_12GetterSetterE
4797:__ZN3JSC20JSPromiseConstructor19addOwnInternalSlotsERNS_2VMEPNS_14JSGlobalObjectE
4798:__ZN3JSC20JSPromiseConstructor15createStructureERNS_2VMEPNS_14JSGlobalObjectENS_7JSValueE
4799:__ZN3JSC17JSPromiseDeferred13visitChildrenEPNS_6JSCellERNS_11SlotVisitorE
4800:__ZN3JSC20newPromiseCapabilityEPNS_9ExecStateEPNS_14JSGlobalObjectEPNS_20JSPromiseConstructorE
4801:__ZN3JSC17JSPromiseDeferred6createEPNS_9ExecStateEPNS_14JSGlobalObjectE
4802:__ZN3JSC17JSPromiseDeferred6createERNS_2VMEPNS_8JSObjectENS_7JSValueES5_
4803:__ZN3JSC17JSPromiseDeferred14finishCreationERNS_2VMEPNS_8JSObjectENS_7JSValueES5_
4804:__ZN3JSC17JSPromiseDeferredC2ERNS_2VMEPNS_9StructureE
4805:__ZN3JSC17JSPromiseDeferred7resolveEPNS_9ExecStateENS_7JSValueE
4806:__ZN3JSCL12callFunctionEPNS_9ExecStateENS_7JSValueES2_
4807:__ZN3JSC17JSPromiseDeferred6rejectEPNS_9ExecStateENS_7JSValueE
4808:__ZN3JSC18JSPromisePrototype6createERNS_2VMEPNS_14JSGlobalObjectEPNS_9StructureE
4809:__ZN3JSC18JSPromisePrototype14finishCreationERNS_2VMEPNS_9StructureE
4810:__ZN3JSC18JSPromisePrototype19addOwnInternalSlotsERNS_2VMEPNS_14JSGlobalObjectE
4811:__ZN3JSC18JSPromisePrototype15createStructureERNS_2VMEPNS_14JSGlobalObjectENS_7JSValueE
4812:__ZN3JSC24JSPropertyNameEnumerator7destroyEPNS_6JSCellE
4813:__ZN3JSC24JSPropertyNameEnumerator13visitChildrenEPNS_6JSCellERNS_11SlotVisitorE
4814:__ZN3JSC24JSPropertyNameEnumerator6createERNS_2VME
4815:__ZN3JSC24JSPropertyNameEnumerator6createERNS_2VMEPNS_9StructureEjjONS_17PropertyNameArrayE
4816:__ZN3JSC24JSPropertyNameEnumerator14finishCreationERNS_2VMEjjON3WTF6RefPtrINS_21PropertyNameArrayDataEEE
4817:__ZN3WTF6VectorIN3JSC12WriteBarrierINS1_8JSStringEEELm0ENS_15CrashOnOverflowELm16EE6resizeEm
4818:__ZN3JSC22JSPropertyNameIterator5cloneEPNS_9ExecStateE
4819:__ZN3JSC22JSPropertyNameIterator6createEPNS_9ExecStateEPNS_9StructureEPNS_8JSObjectEPNS_24JSPropertyNameEnumeratorE
4820:__ZN3JSC22JSPropertyNameIterator14finishCreationERNS_2VMEPNS_14JSGlobalObjectE
4821:__ZN3JSCL28propertyNameIteratorFuncNextEPNS_9ExecStateE
4822:__ZN3JSC22JSPropertyNameIterator4nextEPNS_9ExecStateERNS_7JSValueE
4823:__ZN3JSC22JSPropertyNameIterator6createEPNS_9ExecStateEPNS_9StructureEPNS_8JSObjectE
4824:__ZN3JSC7JSProxy3putEPNS_6JSCellEPNS_9ExecStateENS_12PropertyNameENS_7JSValueERNS_15PutPropertySlotE
4825:__ZN3JSC7JSProxy10putByIndexEPNS_6JSCellEPNS_9ExecStateEjNS_7JSValueEb
4826:__ZN3JSC7JSProxy14deletePropertyEPNS_6JSCellEPNS_9ExecStateENS_12PropertyNameE
4827:__ZN3JSC7JSProxy21deletePropertyByIndexEPNS_6JSCellEPNS_9ExecStateEj
4828:__ZN3JSC7JSProxy18getOwnPropertySlotEPNS_8JSObjectEPNS_9ExecStateENS_12PropertyNameERNS_12PropertySlotE
4829:__ZN3JSC7JSProxy25getOwnPropertySlotByIndexEPNS_8JSObjectEPNS_9ExecStateEjRNS_12PropertySlotE
4830:__ZN3JSC7JSProxy19getOwnPropertyNamesEPNS_8JSObjectEPNS_9ExecStateERNS_17PropertyNameArrayENS_15EnumerationModeE
4831:__ZN3JSC7JSProxy16getPropertyNamesEPNS_8JSObjectEPNS_9ExecStateERNS_17PropertyNameArrayENS_15EnumerationModeE
4832:__ZN3JSC7JSProxy19getEnumerableLengthEPNS_9ExecStateEPNS_8JSObjectE
4833:__ZN3JSC7JSProxy25getStructurePropertyNamesEPNS_8JSObjectEPNS_9ExecStateERNS_17PropertyNameArrayENS_15EnumerationModeE
4834:__ZN3JSC7JSProxy9classNameEPKNS_8JSObjectE
4835:__ZN3JSC7JSProxy12toStringNameEPKNS_8JSObjectEPNS_9ExecStateE
4836:__ZN3JSC7JSProxy17defineOwnPropertyEPNS_8JSObjectEPNS_9ExecStateENS_12PropertyNameERKNS_18PropertyDescriptorEb
4837:__ZN3JSC7JSProxy17preventExtensionsEPNS_8JSObjectEPNS_9ExecStateE
4838:__ZN3JSC7JSProxy12isExtensibleEPNS_8JSObjectEPNS_9ExecStateE
4839:__ZN3JSC7JSProxy12setPrototypeEPNS_8JSObjectEPNS_9ExecStateENS_7JSValueEb
4840:__ZN3JSC7JSProxy12getPrototypeEPNS_8JSObjectEPNS_9ExecStateE
4841:__ZN3JSC14JSRunLoopTimerD2Ev
4842:__ZN3JSC14JSRunLoopTimer12timerDidFireEv
4843:__ZN3JSC14JSRunLoopTimerC2EPNS_2VME
4844:__ZN3JSC14JSRunLoopTimer20timerDidFireCallbackEv
4845:__ZN3WTF7RunLoop5TimerIN3JSC14JSRunLoopTimerEED0Ev
4846:__ZN3WTF7RunLoop5TimerIN3JSC14JSRunLoopTimerEE5firedEv
4847:__ZN3JSC14JSRunLoopTimer13scheduleTimerEN3WTF7SecondsE
4848:__ZN3JSC14JSRunLoopTimer11cancelTimerEv
4849:__ZN3JSC7JSScope13objectAtScopeEPS0_
4850:__ZN3JSC7JSScope37resolveScopeForHoistingFuncDeclInEvalEPNS_9ExecStateEPS0_RKNS_10IdentifierE
4851:__ZN3JSCL12isUnscopableEPNS_9ExecStateEPNS_7JSScopeEPNS_8JSObjectERKNS_10IdentifierE
4852:__ZN3JSC7JSScope11symbolTableERNS_2VME
4853:__ZN3JSC7JSScope7resolveEPNS_9ExecStateEPS0_RKNS_10IdentifierE
4854:__ZN3JSC7JSScope15abstractResolveEPNS_9ExecStateEmPS0_RKNS_10IdentifierENS_8GetOrPutENS_11ResolveTypeENS_18InitializationModeE
4855:__ZN3JSC7JSScope31collectClosureVariablesUnderTDZEPS0_RNS_19VariableEnvironmentE
4856:__ZN3JSC7JSScope14isLexicalScopeEv
4857:__ZN3JSC7JSScope12isCatchScopeEv
4858:__ZN3JSC7JSScope25isFunctionNameScopeObjectEv
4859:__ZN3JSC7JSScope20isNestedLexicalScopeEv
4860:__ZN3JSC7JSScope25constantScopeForCodeBlockENS_11ResolveTypeEPNS_9CodeBlockE
4861:__ZN3JSC15JSScriptFetcher7destroyEPNS_6JSCellE
4862:__ZN3JSC25JSSegmentedVariableObject12addVariablesEjNS_7JSValueE
4863:__ZN3JSC25JSSegmentedVariableObject13visitChildrenEPNS_6JSCellERNS_11SlotVisitorE
4864:__ZN3JSC25JSSegmentedVariableObject12heapSnapshotEPNS_6JSCellERNS_19HeapSnapshotBuilderE
4865:__ZN3JSC25JSSegmentedVariableObjectC2ERNS_2VMEPNS_9StructureEPNS_7JSScopeE
4866:__ZN3JSC25JSSegmentedVariableObjectD2Ev
4867:__ZN3JSC25JSSegmentedVariableObject14finishCreationERNS_2VME
4868:__ZN3JSC33JSSegmentedVariableObjectSubspace11finishSweepERNS_11MarkedBlock6HandleENS2_9SweepModeE
4869:__ZN3JSC33JSSegmentedVariableObjectSubspace7destroyERNS_2VMEPNS_6JSCellE
4870:__ZN3JSC33JSSegmentedVariableObjectSubspaceC2EN3WTF7CStringERNS_4HeapE
4871:__ZN3JSC13JSSetIterator5cloneEPNS_9ExecStateE
4872:__ZN3JSC8JSString7destroyEPNS_6JSCellE
4873:__ZN3JSC8JSString13visitChildrenEPNS_6JSCellERNS_11SlotVisitorE
4874:__ZN3JSC8JSString6toThisEPNS_6JSCellEPNS_9ExecStateENS_8ECMAModeE
4875:__ZN3JSC8JSString12dumpToStreamEPKNS_6JSCellERN3WTF11PrintStreamE
4876:__ZN3JSC8JSString13estimatedSizeEPNS_6JSCellE
4877:__ZN3WTF10StringImpl12costDuringGCEv
4878:__ZN3JSC12JSRopeString11visitFibersERNS_11SlotVisitorE
4879:__ZN3JSC8JSString15createStructureERNS_2VMEPNS_14JSGlobalObjectENS_7JSValueE
4880:__ZN3JSC12JSRopeString11RopeBuilder6expandEv
4881:__ZNK3JSC8JSString13equalSlowCaseEPNS_9ExecStateEPS0_
4882:__ZNK3JSC12JSRopeString11resolveRopeEPNS_9ExecStateE
4883:__ZNK3JSC12JSRopeString31resolveRopeInternal8NoSubstringEPh
4884:__ZNK3JSC12JSRopeString32resolveRopeInternal16NoSubstringEPt
4885:__ZNK3JSC12JSRopeString19resolveRopeSlowCaseEPt
4886:__ZN3WTF6VectorIPN3JSC8JSStringELm32ENS_20UnsafeVectorOverflowELm16EE6appendEOS3_
4887:__ZNK3JSC12JSRopeString20resolveRopeSlowCase8EPh
4888:__ZNK3JSC12JSRopeString25resolveRopeToAtomicStringEPNS_9ExecStateE
4889:__ZNK3JSC12JSRopeString33resolveRopeToExistingAtomicStringEPNS_9ExecStateE
4890:__ZNK3JSC8JSString18getPrimitiveNumberEPNS_9ExecStateERdRNS_7JSValueE
4891:__ZNK3JSC8JSString8toNumberEPNS_9ExecStateE
4892:__ZNK3JSC8JSString8toObjectEPNS_9ExecStateEPNS_14JSGlobalObjectE
4893:__ZN3JSC16JSStringIterator14finishCreationERNS_2VMEPNS_14JSGlobalObjectEPNS_8JSStringE
4894:__ZNK3JSC16JSStringIterator13iteratedValueEPNS_9ExecStateE
4895:__ZN3JSC16JSStringIterator5cloneEPNS_9ExecStateE
4896:__ZN3JSC14JSStringJoinerD2Ev
4897:__ZN3JSC14JSStringJoiner4joinERNS_9ExecStateE
4898:__ZN3JSC16JSStringSubspace11finishSweepERNS_11MarkedBlock6HandleENS2_9SweepModeE
4899:__ZN3JSC16JSStringSubspace7destroyERNS_2VMEPNS_6JSCellE
4900:__ZN3JSC16JSStringSubspaceC2EN3WTF7CStringERNS_4HeapE
4901:__ZN3JSC19JSSymbolTableObject13visitChildrenEPNS_6JSCellERNS_11SlotVisitorE
4902:__ZN3JSC19JSSymbolTableObject14deletePropertyEPNS_6JSCellEPNS_9ExecStateENS_12PropertyNameE
4903:__ZN3JSC19JSSymbolTableObject27getOwnNonIndexPropertyNamesEPNS_8JSObjectEPNS_9ExecStateERNS_17PropertyNameArrayENS_15EnumerationModeE
4904:__ZN3JSC21JSTemplateRegistryKey7destroyEPNS_6JSCellE
4905:__ZN3JSC21JSTemplateRegistryKey6createERNS_2VMEON3WTF3RefINS_19TemplateRegistryKeyEEE
4906:__ZN3JSC34JSGenericTypedArrayViewConstructorINS_23JSGenericTypedArrayViewINS_11Int8AdaptorEEEE11getCallDataEPNS_6JSCellERNS_8CallDataE
4907:__ZN3JSC34JSGenericTypedArrayViewConstructorINS_23JSGenericTypedArrayViewINS_11Int8AdaptorEEEE16getConstructDataEPNS_6JSCellERNS_13ConstructDataE
4908:__ZN3JSC30constructGenericTypedArrayViewINS_23JSGenericTypedArrayViewINS_11Int8AdaptorEEEEExPNS_9ExecStateE
4909:__ZN3JSC43constructGenericTypedArrayViewWithArgumentsINS_23JSGenericTypedArrayViewINS_11Int8AdaptorEEEEEPNS_8JSObjectEPNS_9ExecStateEPNS_9StructureExjSt8optionalIjE
4910:__ZN3JSC42constructGenericTypedArrayViewFromIteratorINS_23JSGenericTypedArrayViewINS_11Int8AdaptorEEEEEPNS_8JSObjectEPNS_9ExecStateEPNS_9StructureENS_7JSValueE
4911:__ZN3JSC23JSGenericTypedArrayViewINS_11Int8AdaptorEE3setEPNS_9ExecStateEjPNS_8JSObjectEjjNS_8CopyTypeE
4912:__ZN3JSC23JSGenericTypedArrayViewINS_11Int8AdaptorEE13validateRangeEPNS_9ExecStateEjj
4913:__ZN3JSC23JSGenericTypedArrayViewINS_11Int8AdaptorEE19setWithSpecificTypeINS_12Int16AdaptorEEEbPNS_9ExecStateEjPNS0_IT_EEjjNS_8CopyTypeE
4914:__ZN3JSC23JSGenericTypedArrayViewINS_11Int8AdaptorEE19setWithSpecificTypeINS_12Int32AdaptorEEEbPNS_9ExecStateEjPNS0_IT_EEjjNS_8CopyTypeE
4915:__ZN3JSC23JSGenericTypedArrayViewINS_11Int8AdaptorEE19setWithSpecificTypeINS_12Uint8AdaptorEEEbPNS_9ExecStateEjPNS0_IT_EEjjNS_8CopyTypeE
4916:f32-to-int
4917:__ZN3JSC23JSGenericTypedArrayViewINS_11Int8AdaptorEE19setWithSpecificTypeINS_14Float32AdaptorEEEbPNS_9ExecStateEjPNS0_IT_EEjjNS_8CopyTypeE
4918:__ZN3JSC23JSGenericTypedArrayViewINS_11Int8AdaptorEE19setWithSpecificTypeINS_14Float64AdaptorEEEbPNS_9ExecStateEjPNS0_IT_EEjjNS_8CopyTypeE
4919:__ZN3JSC23JSGenericTypedArrayViewINS_11Int8AdaptorEE8setIndexEPNS_9ExecStateEjNS_7JSValueE
4920:__ZN3JSCL25callGenericTypedArrayViewINS_23JSGenericTypedArrayViewINS_11Int8AdaptorEEEEExPNS_9ExecStateE
4921:__ZN3JSC34JSGenericTypedArrayViewConstructorINS_23JSGenericTypedArrayViewINS_12Int16AdaptorEEEE11getCallDataEPNS_6JSCellERNS_8CallDataE
4922:__ZN3JSC34JSGenericTypedArrayViewConstructorINS_23JSGenericTypedArrayViewINS_12Int16AdaptorEEEE16getConstructDataEPNS_6JSCellERNS_13ConstructDataE
4923:__ZN3JSC30constructGenericTypedArrayViewINS_23JSGenericTypedArrayViewINS_12Int16AdaptorEEEEExPNS_9ExecStateE
4924:__ZN3JSC43constructGenericTypedArrayViewWithArgumentsINS_23JSGenericTypedArrayViewINS_12Int16AdaptorEEEEEPNS_8JSObjectEPNS_9ExecStateEPNS_9StructureExjSt8optionalIjE
4925:__ZN3JSC42constructGenericTypedArrayViewFromIteratorINS_23JSGenericTypedArrayViewINS_12Int16AdaptorEEEEEPNS_8JSObjectEPNS_9ExecStateEPNS_9StructureENS_7JSValueE
4926:__ZN3JSC23JSGenericTypedArrayViewINS_12Int16AdaptorEE3setEPNS_9ExecStateEjPNS_8JSObjectEjjNS_8CopyTypeE
4927:__ZN3JSC23JSGenericTypedArrayViewINS_12Int16AdaptorEE19setWithSpecificTypeINS_11Int8AdaptorEEEbPNS_9ExecStateEjPNS0_IT_EEjjNS_8CopyTypeE
4928:__ZN3JSC23JSGenericTypedArrayViewINS_12Int16AdaptorEE19setWithSpecificTypeINS_12Int32AdaptorEEEbPNS_9ExecStateEjPNS0_IT_EEjjNS_8CopyTypeE
4929:__ZN3JSC23JSGenericTypedArrayViewINS_12Int16AdaptorEE19setWithSpecificTypeINS_12Uint8AdaptorEEEbPNS_9ExecStateEjPNS0_IT_EEjjNS_8CopyTypeE
4930:__ZN3JSC23JSGenericTypedArrayViewINS_12Int16AdaptorEE19setWithSpecificTypeINS_13Uint16AdaptorEEEbPNS_9ExecStateEjPNS0_IT_EEjjNS_8CopyTypeE
4931:__ZN3JSC23JSGenericTypedArrayViewINS_12Int16AdaptorEE19setWithSpecificTypeINS_14Float32AdaptorEEEbPNS_9ExecStateEjPNS0_IT_EEjjNS_8CopyTypeE
4932:__ZN3JSC23JSGenericTypedArrayViewINS_12Int16AdaptorEE19setWithSpecificTypeINS_14Float64AdaptorEEEbPNS_9ExecStateEjPNS0_IT_EEjjNS_8CopyTypeE
4933:__ZN3JSC23JSGenericTypedArrayViewINS_12Int16AdaptorEE8setIndexEPNS_9ExecStateEjNS_7JSValueE
4934:__ZN3JSCL25callGenericTypedArrayViewINS_23JSGenericTypedArrayViewINS_12Int16AdaptorEEEEExPNS_9ExecStateE
4935:__ZN3JSC34JSGenericTypedArrayViewConstructorINS_23JSGenericTypedArrayViewINS_12Int32AdaptorEEEE11getCallDataEPNS_6JSCellERNS_8CallDataE
4936:__ZN3JSC34JSGenericTypedArrayViewConstructorINS_23JSGenericTypedArrayViewINS_12Int32AdaptorEEEE16getConstructDataEPNS_6JSCellERNS_13ConstructDataE
4937:__ZN3JSC30constructGenericTypedArrayViewINS_23JSGenericTypedArrayViewINS_12Int32AdaptorEEEEExPNS_9ExecStateE
4938:__ZN3JSC43constructGenericTypedArrayViewWithArgumentsINS_23JSGenericTypedArrayViewINS_12Int32AdaptorEEEEEPNS_8JSObjectEPNS_9ExecStateEPNS_9StructureExjSt8optionalIjE
4939:__ZN3JSC42constructGenericTypedArrayViewFromIteratorINS_23JSGenericTypedArrayViewINS_12Int32AdaptorEEEEEPNS_8JSObjectEPNS_9ExecStateEPNS_9StructureENS_7JSValueE
4940:__ZN3JSC23JSGenericTypedArrayViewINS_12Int32AdaptorEE3setEPNS_9ExecStateEjPNS_8JSObjectEjjNS_8CopyTypeE
4941:__ZN3JSC23JSGenericTypedArrayViewINS_12Int32AdaptorEE19setWithSpecificTypeINS_11Int8AdaptorEEEbPNS_9ExecStateEjPNS0_IT_EEjjNS_8CopyTypeE
4942:__ZN3JSC23JSGenericTypedArrayViewINS_12Int32AdaptorEE19setWithSpecificTypeINS_12Int16AdaptorEEEbPNS_9ExecStateEjPNS0_IT_EEjjNS_8CopyTypeE
4943:__ZN3JSC23JSGenericTypedArrayViewINS_12Int32AdaptorEE19setWithSpecificTypeINS_12Uint8AdaptorEEEbPNS_9ExecStateEjPNS0_IT_EEjjNS_8CopyTypeE
4944:__ZN3JSC23JSGenericTypedArrayViewINS_12Int32AdaptorEE19setWithSpecificTypeINS_13Uint16AdaptorEEEbPNS_9ExecStateEjPNS0_IT_EEjjNS_8CopyTypeE
4945:__ZN3JSC23JSGenericTypedArrayViewINS_12Int32AdaptorEE19setWithSpecificTypeINS_13Uint32AdaptorEEEbPNS_9ExecStateEjPNS0_IT_EEjjNS_8CopyTypeE
4946:__ZN3JSC23JSGenericTypedArrayViewINS_12Int32AdaptorEE19setWithSpecificTypeINS_14Float32AdaptorEEEbPNS_9ExecStateEjPNS0_IT_EEjjNS_8CopyTypeE
4947:__ZN3JSC23JSGenericTypedArrayViewINS_12Int32AdaptorEE19setWithSpecificTypeINS_14Float64AdaptorEEEbPNS_9ExecStateEjPNS0_IT_EEjjNS_8CopyTypeE
4948:__ZN3JSC23JSGenericTypedArrayViewINS_12Int32AdaptorEE8setIndexEPNS_9ExecStateEjNS_7JSValueE
4949:__ZN3JSCL25callGenericTypedArrayViewINS_23JSGenericTypedArrayViewINS_12Int32AdaptorEEEEExPNS_9ExecStateE
4950:__ZN3JSC34JSGenericTypedArrayViewConstructorINS_23JSGenericTypedArrayViewINS_12Uint8AdaptorEEEE11getCallDataEPNS_6JSCellERNS_8CallDataE
4951:__ZN3JSC34JSGenericTypedArrayViewConstructorINS_23JSGenericTypedArrayViewINS_12Uint8AdaptorEEEE16getConstructDataEPNS_6JSCellERNS_13ConstructDataE
4952:__ZN3JSC30constructGenericTypedArrayViewINS_23JSGenericTypedArrayViewINS_12Uint8AdaptorEEEEExPNS_9ExecStateE
4953:__ZN3JSC43constructGenericTypedArrayViewWithArgumentsINS_23JSGenericTypedArrayViewINS_12Uint8AdaptorEEEEEPNS_8JSObjectEPNS_9ExecStateEPNS_9StructureExjSt8optionalIjE
4954:__ZN3JSC23JSGenericTypedArrayViewINS_12Uint8AdaptorEE3setEPNS_9ExecStateEjPNS_8JSObjectEjjNS_8CopyTypeE
4955:__ZN3JSCL25callGenericTypedArrayViewINS_23JSGenericTypedArrayViewINS_12Uint8AdaptorEEEEExPNS_9ExecStateE
4956:__ZN3JSC34JSGenericTypedArrayViewConstructorINS_23JSGenericTypedArrayViewINS_19Uint8ClampedAdaptorEEEE11getCallDataEPNS_6JSCellERNS_8CallDataE
4957:__ZN3JSC34JSGenericTypedArrayViewConstructorINS_23JSGenericTypedArrayViewINS_19Uint8ClampedAdaptorEEEE16getConstructDataEPNS_6JSCellERNS_13ConstructDataE
4958:__ZN3JSC30constructGenericTypedArrayViewINS_23JSGenericTypedArrayViewINS_19Uint8ClampedAdaptorEEEEExPNS_9ExecStateE
4959:__ZN3JSC43constructGenericTypedArrayViewWithArgumentsINS_23JSGenericTypedArrayViewINS_19Uint8ClampedAdaptorEEEEEPNS_8JSObjectEPNS_9ExecStateEPNS_9StructureExjSt8optionalIjE
4960:__ZN3JSC42constructGenericTypedArrayViewFromIteratorINS_23JSGenericTypedArrayViewINS_19Uint8ClampedAdaptorEEEEEPNS_8JSObjectEPNS_9ExecStateEPNS_9StructureENS_7JSValueE
4961:__ZN3JSC23JSGenericTypedArrayViewINS_19Uint8ClampedAdaptorEE3setEPNS_9ExecStateEjPNS_8JSObjectEjjNS_8CopyTypeE
4962:__ZN3JSC23JSGenericTypedArrayViewINS_19Uint8ClampedAdaptorEE19setWithSpecificTypeINS_11Int8AdaptorEEEbPNS_9ExecStateEjPNS0_IT_EEjjNS_8CopyTypeE
4963:__ZN3JSC23JSGenericTypedArrayViewINS_19Uint8ClampedAdaptorEE19setWithSpecificTypeINS_12Int16AdaptorEEEbPNS_9ExecStateEjPNS0_IT_EEjjNS_8CopyTypeE
4964:__ZN3JSC23JSGenericTypedArrayViewINS_19Uint8ClampedAdaptorEE19setWithSpecificTypeINS_12Int32AdaptorEEEbPNS_9ExecStateEjPNS0_IT_EEjjNS_8CopyTypeE
4965:__ZN3JSC23JSGenericTypedArrayViewINS_19Uint8ClampedAdaptorEE19setWithSpecificTypeINS_13Uint16AdaptorEEEbPNS_9ExecStateEjPNS0_IT_EEjjNS_8CopyTypeE
4966:__ZN3JSC23JSGenericTypedArrayViewINS_19Uint8ClampedAdaptorEE19setWithSpecificTypeINS_13Uint32AdaptorEEEbPNS_9ExecStateEjPNS0_IT_EEjjNS_8CopyTypeE
4967:__ZN3JSC23JSGenericTypedArrayViewINS_19Uint8ClampedAdaptorEE19setWithSpecificTypeINS_14Float32AdaptorEEEbPNS_9ExecStateEjPNS0_IT_EEjjNS_8CopyTypeE
4968:__ZN3JSC23JSGenericTypedArrayViewINS_19Uint8ClampedAdaptorEE19setWithSpecificTypeINS_14Float64AdaptorEEEbPNS_9ExecStateEjPNS0_IT_EEjjNS_8CopyTypeE
4969:__ZN3JSC23JSGenericTypedArrayViewINS_19Uint8ClampedAdaptorEE8setIndexEPNS_9ExecStateEjNS_7JSValueE
4970:__ZN3JSCL25callGenericTypedArrayViewINS_23JSGenericTypedArrayViewINS_19Uint8ClampedAdaptorEEEEExPNS_9ExecStateE
4971:__ZN3JSC34JSGenericTypedArrayViewConstructorINS_23JSGenericTypedArrayViewINS_13Uint16AdaptorEEEE11getCallDataEPNS_6JSCellERNS_8CallDataE
4972:__ZN3JSC34JSGenericTypedArrayViewConstructorINS_23JSGenericTypedArrayViewINS_13Uint16AdaptorEEEE16getConstructDataEPNS_6JSCellERNS_13ConstructDataE
4973:__ZN3JSC30constructGenericTypedArrayViewINS_23JSGenericTypedArrayViewINS_13Uint16AdaptorEEEEExPNS_9ExecStateE
4974:__ZN3JSC43constructGenericTypedArrayViewWithArgumentsINS_23JSGenericTypedArrayViewINS_13Uint16AdaptorEEEEEPNS_8JSObjectEPNS_9ExecStateEPNS_9StructureExjSt8optionalIjE
4975:__ZN3JSC23JSGenericTypedArrayViewINS_13Uint16AdaptorEE3setEPNS_9ExecStateEjPNS_8JSObjectEjjNS_8CopyTypeE
4976:__ZN3JSCL25callGenericTypedArrayViewINS_23JSGenericTypedArrayViewINS_13Uint16AdaptorEEEEExPNS_9ExecStateE
4977:__ZN3JSC34JSGenericTypedArrayViewConstructorINS_23JSGenericTypedArrayViewINS_13Uint32AdaptorEEEE11getCallDataEPNS_6JSCellERNS_8CallDataE
4978:__ZN3JSC34JSGenericTypedArrayViewConstructorINS_23JSGenericTypedArrayViewINS_13Uint32AdaptorEEEE16getConstructDataEPNS_6JSCellERNS_13ConstructDataE
4979:__ZN3JSC30constructGenericTypedArrayViewINS_23JSGenericTypedArrayViewINS_13Uint32AdaptorEEEEExPNS_9ExecStateE
4980:__ZN3JSC43constructGenericTypedArrayViewWithArgumentsINS_23JSGenericTypedArrayViewINS_13Uint32AdaptorEEEEEPNS_8JSObjectEPNS_9ExecStateEPNS_9StructureExjSt8optionalIjE
4981:__ZN3JSC23JSGenericTypedArrayViewINS_13Uint32AdaptorEE3setEPNS_9ExecStateEjPNS_8JSObjectEjjNS_8CopyTypeE
4982:__ZN3JSCL25callGenericTypedArrayViewINS_23JSGenericTypedArrayViewINS_13Uint32AdaptorEEEEExPNS_9ExecStateE
4983:__ZN3JSC34JSGenericTypedArrayViewConstructorINS_23JSGenericTypedArrayViewINS_14Float32AdaptorEEEE11getCallDataEPNS_6JSCellERNS_8CallDataE
4984:__ZN3JSC34JSGenericTypedArrayViewConstructorINS_23JSGenericTypedArrayViewINS_14Float32AdaptorEEEE16getConstructDataEPNS_6JSCellERNS_13ConstructDataE
4985:__ZN3JSC30constructGenericTypedArrayViewINS_23JSGenericTypedArrayViewINS_14Float32AdaptorEEEEExPNS_9ExecStateE
4986:__ZN3JSC43constructGenericTypedArrayViewWithArgumentsINS_23JSGenericTypedArrayViewINS_14Float32AdaptorEEEEEPNS_8JSObjectEPNS_9ExecStateEPNS_9StructureExjSt8optionalIjE
4987:__ZN3JSC42constructGenericTypedArrayViewFromIteratorINS_23JSGenericTypedArrayViewINS_14Float32AdaptorEEEEEPNS_8JSObjectEPNS_9ExecStateEPNS_9StructureENS_7JSValueE
4988:__ZN3JSC23JSGenericTypedArrayViewINS_14Float32AdaptorEE3setEPNS_9ExecStateEjPNS_8JSObjectEjjNS_8CopyTypeE
4989:__ZN3JSC23JSGenericTypedArrayViewINS_14Float32AdaptorEE19setWithSpecificTypeINS_11Int8AdaptorEEEbPNS_9ExecStateEjPNS0_IT_EEjjNS_8CopyTypeE
4990:__ZN3JSC23JSGenericTypedArrayViewINS_14Float32AdaptorEE19setWithSpecificTypeINS_12Int16AdaptorEEEbPNS_9ExecStateEjPNS0_IT_EEjjNS_8CopyTypeE
4991:__ZN3JSC23JSGenericTypedArrayViewINS_14Float32AdaptorEE19setWithSpecificTypeINS_12Int32AdaptorEEEbPNS_9ExecStateEjPNS0_IT_EEjjNS_8CopyTypeE
4992:__ZN3JSC23JSGenericTypedArrayViewINS_14Float32AdaptorEE19setWithSpecificTypeINS_12Uint8AdaptorEEEbPNS_9ExecStateEjPNS0_IT_EEjjNS_8CopyTypeE
4993:__ZN3JSC23JSGenericTypedArrayViewINS_14Float32AdaptorEE19setWithSpecificTypeINS_13Uint16AdaptorEEEbPNS_9ExecStateEjPNS0_IT_EEjjNS_8CopyTypeE
4994:__ZN3JSC23JSGenericTypedArrayViewINS_14Float32AdaptorEE19setWithSpecificTypeINS_13Uint32AdaptorEEEbPNS_9ExecStateEjPNS0_IT_EEjjNS_8CopyTypeE
4995:__ZN3JSC23JSGenericTypedArrayViewINS_14Float32AdaptorEE19setWithSpecificTypeINS_14Float64AdaptorEEEbPNS_9ExecStateEjPNS0_IT_EEjjNS_8CopyTypeE
4996:__ZN3JSC23JSGenericTypedArrayViewINS_14Float32AdaptorEE8setIndexEPNS_9ExecStateEjNS_7JSValueE
4997:__ZN3JSCL25callGenericTypedArrayViewINS_23JSGenericTypedArrayViewINS_14Float32AdaptorEEEEExPNS_9ExecStateE
4998:__ZN3JSC34JSGenericTypedArrayViewConstructorINS_23JSGenericTypedArrayViewINS_14Float64AdaptorEEEE11getCallDataEPNS_6JSCellERNS_8CallDataE
4999:__ZN3JSC34JSGenericTypedArrayViewConstructorINS_23JSGenericTypedArrayViewINS_14Float64AdaptorEEEE16getConstructDataEPNS_6JSCellERNS_13ConstructDataE
5000:__ZN3JSC30constructGenericTypedArrayViewINS_23JSGenericTypedArrayViewINS_14Float64AdaptorEEEEExPNS_9ExecStateE
5001:__ZN3JSC43constructGenericTypedArrayViewWithArgumentsINS_23JSGenericTypedArrayViewINS_14Float64AdaptorEEEEEPNS_8JSObjectEPNS_9ExecStateEPNS_9StructureExjSt8optionalIjE
5002:__ZN3JSC42constructGenericTypedArrayViewFromIteratorINS_23JSGenericTypedArrayViewINS_14Float64AdaptorEEEEEPNS_8JSObjectEPNS_9ExecStateEPNS_9StructureENS_7JSValueE
5003:__ZN3JSC23JSGenericTypedArrayViewINS_14Float64AdaptorEE3setEPNS_9ExecStateEjPNS_8JSObjectEjjNS_8CopyTypeE
5004:__ZN3JSC23JSGenericTypedArrayViewINS_14Float64AdaptorEE19setWithSpecificTypeINS_11Int8AdaptorEEEbPNS_9ExecStateEjPNS0_IT_EEjjNS_8CopyTypeE
5005:__ZN3JSC23JSGenericTypedArrayViewINS_14Float64AdaptorEE19setWithSpecificTypeINS_12Int16AdaptorEEEbPNS_9ExecStateEjPNS0_IT_EEjjNS_8CopyTypeE
5006:__ZN3JSC23JSGenericTypedArrayViewINS_14Float64AdaptorEE19setWithSpecificTypeINS_12Int32AdaptorEEEbPNS_9ExecStateEjPNS0_IT_EEjjNS_8CopyTypeE
5007:__ZN3JSC23JSGenericTypedArrayViewINS_14Float64AdaptorEE19setWithSpecificTypeINS_12Uint8AdaptorEEEbPNS_9ExecStateEjPNS0_IT_EEjjNS_8CopyTypeE
5008:__ZN3JSC23JSGenericTypedArrayViewINS_14Float64AdaptorEE19setWithSpecificTypeINS_13Uint16AdaptorEEEbPNS_9ExecStateEjPNS0_IT_EEjjNS_8CopyTypeE
5009:__ZN3JSC23JSGenericTypedArrayViewINS_14Float64AdaptorEE19setWithSpecificTypeINS_13Uint32AdaptorEEEbPNS_9ExecStateEjPNS0_IT_EEjjNS_8CopyTypeE
5010:__ZN3JSC23JSGenericTypedArrayViewINS_14Float64AdaptorEE19setWithSpecificTypeINS_14Float32AdaptorEEEbPNS_9ExecStateEjPNS0_IT_EEjjNS_8CopyTypeE
5011:__ZN3JSC23JSGenericTypedArrayViewINS_14Float64AdaptorEE8setIndexEPNS_9ExecStateEjNS_7JSValueE
5012:__ZN3JSCL25callGenericTypedArrayViewINS_23JSGenericTypedArrayViewINS_14Float64AdaptorEEEEExPNS_9ExecStateE
5013:__ZN3JSC34JSGenericTypedArrayViewConstructorINS_10JSDataViewEE11getCallDataEPNS_6JSCellERNS_8CallDataE
5014:__ZN3JSC34JSGenericTypedArrayViewConstructorINS_10JSDataViewEE16getConstructDataEPNS_6JSCellERNS_13ConstructDataE
5015:__ZN3JSC30constructGenericTypedArrayViewINS_10JSDataViewEEExPNS_9ExecStateE
5016:__ZN3JSC43constructGenericTypedArrayViewWithArgumentsINS_10JSDataViewEEEPNS_8JSObjectEPNS_9ExecStateEPNS_9StructureExjSt8optionalIjE
5017:__ZN3JSCL25callGenericTypedArrayViewINS_10JSDataViewEEExPNS_9ExecStateE
5018:__ZN3JSC27JSTypedArrayViewConstructor11getCallDataEPNS_6JSCellERNS_8CallDataE
5019:__ZN3JSCL23constructTypedArrayViewEPNS_9ExecStateE
5020:__ZN3JSC27JSTypedArrayViewConstructor14finishCreationERNS_2VMEPNS_14JSGlobalObjectEPNS_25JSTypedArrayViewPrototypeEPNS_12GetterSetterE
5021:__ZN3JSC27JSTypedArrayViewConstructor15createStructureERNS_2VMEPNS_14JSGlobalObjectENS_7JSValueE
5022:__ZN3JSC41typedArrayViewPrivateFuncIsTypedArrayViewEPNS_9ExecStateE
5023:__ZN3JSC31typedArrayViewPrivateFuncLengthEPNS_9ExecStateE
5024:__ZN3JSC47typedArrayViewPrivateFuncGetOriginalConstructorEPNS_9ExecStateE
5025:__ZN3JSC29typedArrayViewPrivateFuncSortEPNS_9ExecStateE
5026:__ZN3JSC36genericTypedArrayViewPrivateFuncSortINS_23JSGenericTypedArrayViewINS_19Uint8ClampedAdaptorEEEEExRNS_2VMEPNS_9ExecStateE
5027:__ZN3JSC36genericTypedArrayViewPrivateFuncSortINS_23JSGenericTypedArrayViewINS_12Int32AdaptorEEEEExRNS_2VMEPNS_9ExecStateE
5028:__ZN3JSC36genericTypedArrayViewPrivateFuncSortINS_23JSGenericTypedArrayViewINS_13Uint32AdaptorEEEEExRNS_2VMEPNS_9ExecStateE
5029:__ZN3JSC36genericTypedArrayViewPrivateFuncSortINS_23JSGenericTypedArrayViewINS_14Float64AdaptorEEEEExRNS_2VMEPNS_9ExecStateE
5030:__ZN3JSC36genericTypedArrayViewPrivateFuncSortINS_23JSGenericTypedArrayViewINS_14Float32AdaptorEEEEExRNS_2VMEPNS_9ExecStateE
5031:__ZN3JSC36genericTypedArrayViewPrivateFuncSortINS_23JSGenericTypedArrayViewINS_11Int8AdaptorEEEEExRNS_2VMEPNS_9ExecStateE
5032:__ZN3JSC36genericTypedArrayViewPrivateFuncSortINS_23JSGenericTypedArrayViewINS_12Int16AdaptorEEEEExRNS_2VMEPNS_9ExecStateE
5033:__ZN3JSC36genericTypedArrayViewPrivateFuncSortINS_23JSGenericTypedArrayViewINS_13Uint16AdaptorEEEEExRNS_2VMEPNS_9ExecStateE
5034:__ZN3JSC23JSGenericTypedArrayViewINS_14Float32AdaptorEE14sortComparisonIiEEbT_S4_
5035:__ZNSt3__26__sortIRPFbiiEPiEEvT0_S5_T_
5036:__ZNSt3__27__sort4IRPFbiiEPiEEjT0_S5_S5_S5_T_
5037:__ZNSt3__218__insertion_sort_3IRPFbiiEPiEEvT0_S5_T_
5038:__ZNSt3__227__insertion_sort_incompleteIRPFbiiEPiEEbT0_S5_T_
5039:__ZN3JSC23JSGenericTypedArrayViewINS_14Float64AdaptorEE14sortComparisonIxEEbT_S4_
5040:__ZNSt3__26__sortIRPFbxxEPxEEvT0_S5_T_
5041:__ZNSt3__27__sort4IRPFbxxEPxEEjT0_S5_S5_S5_T_
5042:__ZNSt3__218__insertion_sort_3IRPFbxxEPxEEvT0_S5_T_
5043:__ZNSt3__227__insertion_sort_incompleteIRPFbxxEPxEEbT0_S5_T_
5044:__ZN3JSC39typedArrayViewPrivateFuncSubarrayCreateEPNS_9ExecStateE
5045:__ZN3JSC46genericTypedArrayViewPrivateFuncSubarrayCreateINS_23JSGenericTypedArrayViewINS_19Uint8ClampedAdaptorEEEEExRNS_2VMEPNS_9ExecStateE
5046:__ZN3JSC46genericTypedArrayViewPrivateFuncSubarrayCreateINS_23JSGenericTypedArrayViewINS_12Int32AdaptorEEEEExRNS_2VMEPNS_9ExecStateE
5047:__ZN3JSC46genericTypedArrayViewPrivateFuncSubarrayCreateINS_23JSGenericTypedArrayViewINS_13Uint32AdaptorEEEEExRNS_2VMEPNS_9ExecStateE
5048:__ZN3JSC46genericTypedArrayViewPrivateFuncSubarrayCreateINS_23JSGenericTypedArrayViewINS_14Float64AdaptorEEEEExRNS_2VMEPNS_9ExecStateE
5049:__ZN3JSC46genericTypedArrayViewPrivateFuncSubarrayCreateINS_23JSGenericTypedArrayViewINS_14Float32AdaptorEEEEExRNS_2VMEPNS_9ExecStateE
5050:__ZN3JSC46genericTypedArrayViewPrivateFuncSubarrayCreateINS_23JSGenericTypedArrayViewINS_11Int8AdaptorEEEEExRNS_2VMEPNS_9ExecStateE
5051:__ZN3JSC46genericTypedArrayViewPrivateFuncSubarrayCreateINS_23JSGenericTypedArrayViewINS_12Uint8AdaptorEEEEExRNS_2VMEPNS_9ExecStateE
5052:__ZN3JSC46genericTypedArrayViewPrivateFuncSubarrayCreateINS_23JSGenericTypedArrayViewINS_12Int16AdaptorEEEEExRNS_2VMEPNS_9ExecStateE
5053:__ZN3JSC46genericTypedArrayViewPrivateFuncSubarrayCreateINS_23JSGenericTypedArrayViewINS_13Uint16AdaptorEEEEExRNS_2VMEPNS_9ExecStateE
5054:__ZN3JSC25JSTypedArrayViewPrototype14finishCreationERNS_2VMEPNS_14JSGlobalObjectE
5055:__ZN3JSCL35typedArrayViewProtoGetterFuncBufferEPNS_9ExecStateE
5056:__ZN3JSCL39typedArrayViewProtoGetterFuncByteLengthEPNS_9ExecStateE
5057:__ZN3JSCL39typedArrayViewProtoGetterFuncByteOffsetEPNS_9ExecStateE
5058:__ZN3JSCL33typedArrayViewProtoFuncCopyWithinEPNS_9ExecStateE
5059:__ZN3JSCL31typedArrayViewProtoFuncIncludesEPNS_9ExecStateE
5060:__ZN3JSCL30typedArrayViewProtoFuncIndexOfEPNS_9ExecStateE
5061:__ZN3JSCL27typedArrayViewProtoFuncJoinEPNS_9ExecStateE
5062:__ZN3JSCL34typedArrayViewProtoFuncLastIndexOfEPNS_9ExecStateE
5063:__ZN3JSCL35typedArrayViewProtoGetterFuncLengthEPNS_9ExecStateE
5064:__ZN3JSCL30typedArrayViewProtoFuncReverseEPNS_9ExecStateE
5065:__ZN3JSCL26typedArrayViewProtoFuncSetEPNS_9ExecStateE
5066:__ZN3JSCL28typedArrayViewProtoFuncSliceEPNS_9ExecStateE
5067:__ZN3JSCL40typedArrayViewProtoGetterFuncToStringTagEPNS_9ExecStateE
5068:__ZN3JSC35genericTypedArrayViewProtoFuncSliceINS_23JSGenericTypedArrayViewINS_19Uint8ClampedAdaptorEEEEExRNS_2VMEPNS_9ExecStateE
5069:__ZN3JSC35genericTypedArrayViewProtoFuncSliceINS_23JSGenericTypedArrayViewINS_12Int32AdaptorEEEEExRNS_2VMEPNS_9ExecStateE
5070:__ZN3JSC35genericTypedArrayViewProtoFuncSliceINS_23JSGenericTypedArrayViewINS_13Uint32AdaptorEEEEExRNS_2VMEPNS_9ExecStateE
5071:__ZN3JSC35genericTypedArrayViewProtoFuncSliceINS_23JSGenericTypedArrayViewINS_14Float64AdaptorEEEEExRNS_2VMEPNS_9ExecStateE
5072:__ZN3JSC35genericTypedArrayViewProtoFuncSliceINS_23JSGenericTypedArrayViewINS_14Float32AdaptorEEEEExRNS_2VMEPNS_9ExecStateE
5073:__ZN3JSC35genericTypedArrayViewProtoFuncSliceINS_23JSGenericTypedArrayViewINS_11Int8AdaptorEEEEExRNS_2VMEPNS_9ExecStateE
5074:__ZN3JSC35genericTypedArrayViewProtoFuncSliceINS_23JSGenericTypedArrayViewINS_12Uint8AdaptorEEEEExRNS_2VMEPNS_9ExecStateE
5075:__ZN3JSC35genericTypedArrayViewProtoFuncSliceINS_23JSGenericTypedArrayViewINS_12Int16AdaptorEEEEExRNS_2VMEPNS_9ExecStateE
5076:__ZN3JSC35genericTypedArrayViewProtoFuncSliceINS_23JSGenericTypedArrayViewINS_13Uint16AdaptorEEEEExRNS_2VMEPNS_9ExecStateE
5077:__ZN3JSC16speciesConstructIZNS_35genericTypedArrayViewProtoFuncSliceINS_23JSGenericTypedArrayViewINS_13Uint16AdaptorEEEEExRNS_2VMEPNS_9ExecStateEEUlvE_EEPNS_17JSArrayBufferViewES8_PNS_8JSObjectERNS_20MarkedArgumentBufferERKT_
5078:__ZZN3JSC35genericTypedArrayViewProtoFuncSliceINS_23JSGenericTypedArrayViewINS_13Uint16AdaptorEEEEExRNS_2VMEPNS_9ExecStateEENKUlvE_clEv
5079:__ZN3JSC16speciesConstructIZNS_35genericTypedArrayViewProtoFuncSliceINS_23JSGenericTypedArrayViewINS_12Int16AdaptorEEEEExRNS_2VMEPNS_9ExecStateEEUlvE_EEPNS_17JSArrayBufferViewES8_PNS_8JSObjectERNS_20MarkedArgumentBufferERKT_
5080:__ZZN3JSC35genericTypedArrayViewProtoFuncSliceINS_23JSGenericTypedArrayViewINS_12Int16AdaptorEEEEExRNS_2VMEPNS_9ExecStateEENKUlvE_clEv
5081:__ZN3JSC16speciesConstructIZNS_35genericTypedArrayViewProtoFuncSliceINS_23JSGenericTypedArrayViewINS_12Uint8AdaptorEEEEExRNS_2VMEPNS_9ExecStateEEUlvE_EEPNS_17JSArrayBufferViewES8_PNS_8JSObjectERNS_20MarkedArgumentBufferERKT_
5082:__ZZN3JSC35genericTypedArrayViewProtoFuncSliceINS_23JSGenericTypedArrayViewINS_12Uint8AdaptorEEEEExRNS_2VMEPNS_9ExecStateEENKUlvE_clEv
5083:__ZN3JSC16speciesConstructIZNS_35genericTypedArrayViewProtoFuncSliceINS_23JSGenericTypedArrayViewINS_11Int8AdaptorEEEEExRNS_2VMEPNS_9ExecStateEEUlvE_EEPNS_17JSArrayBufferViewES8_PNS_8JSObjectERNS_20MarkedArgumentBufferERKT_
5084:__ZZN3JSC35genericTypedArrayViewProtoFuncSliceINS_23JSGenericTypedArrayViewINS_11Int8AdaptorEEEEExRNS_2VMEPNS_9ExecStateEENKUlvE_clEv
5085:__ZN3JSC16speciesConstructIZNS_35genericTypedArrayViewProtoFuncSliceINS_23JSGenericTypedArrayViewINS_14Float32AdaptorEEEEExRNS_2VMEPNS_9ExecStateEEUlvE_EEPNS_17JSArrayBufferViewES8_PNS_8JSObjectERNS_20MarkedArgumentBufferERKT_
5086:__ZZN3JSC35genericTypedArrayViewProtoFuncSliceINS_23JSGenericTypedArrayViewINS_14Float32AdaptorEEEEExRNS_2VMEPNS_9ExecStateEENKUlvE_clEv
5087:__ZN3JSC16speciesConstructIZNS_35genericTypedArrayViewProtoFuncSliceINS_23JSGenericTypedArrayViewINS_14Float64AdaptorEEEEExRNS_2VMEPNS_9ExecStateEEUlvE_EEPNS_17JSArrayBufferViewES8_PNS_8JSObjectERNS_20MarkedArgumentBufferERKT_
5088:__ZZN3JSC35genericTypedArrayViewProtoFuncSliceINS_23JSGenericTypedArrayViewINS_14Float64AdaptorEEEEExRNS_2VMEPNS_9ExecStateEENKUlvE_clEv
5089:__ZN3JSC16speciesConstructIZNS_35genericTypedArrayViewProtoFuncSliceINS_23JSGenericTypedArrayViewINS_13Uint32AdaptorEEEEExRNS_2VMEPNS_9ExecStateEEUlvE_EEPNS_17JSArrayBufferViewES8_PNS_8JSObjectERNS_20MarkedArgumentBufferERKT_
5090:__ZZN3JSC35genericTypedArrayViewProtoFuncSliceINS_23JSGenericTypedArrayViewINS_13Uint32AdaptorEEEEExRNS_2VMEPNS_9ExecStateEENKUlvE_clEv
5091:__ZN3JSC16speciesConstructIZNS_35genericTypedArrayViewProtoFuncSliceINS_23JSGenericTypedArrayViewINS_12Int32AdaptorEEEEExRNS_2VMEPNS_9ExecStateEEUlvE_EEPNS_17JSArrayBufferViewES8_PNS_8JSObjectERNS_20MarkedArgumentBufferERKT_
5092:__ZZN3JSC35genericTypedArrayViewProtoFuncSliceINS_23JSGenericTypedArrayViewINS_12Int32AdaptorEEEEExRNS_2VMEPNS_9ExecStateEENKUlvE_clEv
5093:__ZN3JSC16speciesConstructIZNS_35genericTypedArrayViewProtoFuncSliceINS_23JSGenericTypedArrayViewINS_19Uint8ClampedAdaptorEEEEExRNS_2VMEPNS_9ExecStateEEUlvE_EEPNS_17JSArrayBufferViewES8_PNS_8JSObjectERNS_20MarkedArgumentBufferERKT_
5094:__ZZN3JSC35genericTypedArrayViewProtoFuncSliceINS_23JSGenericTypedArrayViewINS_19Uint8ClampedAdaptorEEEEExRNS_2VMEPNS_9ExecStateEENKUlvE_clEv
5095:__ZN3JSC33genericTypedArrayViewProtoFuncSetINS_23JSGenericTypedArrayViewINS_19Uint8ClampedAdaptorEEEEExRNS_2VMEPNS_9ExecStateE
5096:__ZN3JSC33genericTypedArrayViewProtoFuncSetINS_23JSGenericTypedArrayViewINS_12Int32AdaptorEEEEExRNS_2VMEPNS_9ExecStateE
5097:__ZN3JSC33genericTypedArrayViewProtoFuncSetINS_23JSGenericTypedArrayViewINS_13Uint32AdaptorEEEEExRNS_2VMEPNS_9ExecStateE
5098:__ZN3JSC33genericTypedArrayViewProtoFuncSetINS_23JSGenericTypedArrayViewINS_14Float64AdaptorEEEEExRNS_2VMEPNS_9ExecStateE
5099:__ZN3JSC33genericTypedArrayViewProtoFuncSetINS_23JSGenericTypedArrayViewINS_14Float32AdaptorEEEEExRNS_2VMEPNS_9ExecStateE
5100:__ZN3JSC33genericTypedArrayViewProtoFuncSetINS_23JSGenericTypedArrayViewINS_11Int8AdaptorEEEEExRNS_2VMEPNS_9ExecStateE
5101:__ZN3JSC33genericTypedArrayViewProtoFuncSetINS_23JSGenericTypedArrayViewINS_12Uint8AdaptorEEEEExRNS_2VMEPNS_9ExecStateE
5102:__ZN3JSC33genericTypedArrayViewProtoFuncSetINS_23JSGenericTypedArrayViewINS_12Int16AdaptorEEEEExRNS_2VMEPNS_9ExecStateE
5103:__ZN3JSC33genericTypedArrayViewProtoFuncSetINS_23JSGenericTypedArrayViewINS_13Uint16AdaptorEEEEExRNS_2VMEPNS_9ExecStateE
5104:__ZN3JSC37genericTypedArrayViewProtoFuncReverseINS_23JSGenericTypedArrayViewINS_19Uint8ClampedAdaptorEEEEExRNS_2VMEPNS_9ExecStateE
5105:__ZN3JSC37genericTypedArrayViewProtoFuncReverseINS_23JSGenericTypedArrayViewINS_12Int32AdaptorEEEEExRNS_2VMEPNS_9ExecStateE
5106:__ZN3JSC37genericTypedArrayViewProtoFuncReverseINS_23JSGenericTypedArrayViewINS_14Float64AdaptorEEEEExRNS_2VMEPNS_9ExecStateE
5107:__ZN3JSC37genericTypedArrayViewProtoFuncReverseINS_23JSGenericTypedArrayViewINS_12Int16AdaptorEEEEExRNS_2VMEPNS_9ExecStateE
5108:__ZN3JSC41genericTypedArrayViewProtoFuncLastIndexOfINS_23JSGenericTypedArrayViewINS_19Uint8ClampedAdaptorEEEEExRNS_2VMEPNS_9ExecStateE
5109:__ZN3JSC41genericTypedArrayViewProtoFuncLastIndexOfINS_23JSGenericTypedArrayViewINS_12Int32AdaptorEEEEExRNS_2VMEPNS_9ExecStateE
5110:__ZN3JSC41genericTypedArrayViewProtoFuncLastIndexOfINS_23JSGenericTypedArrayViewINS_13Uint32AdaptorEEEEExRNS_2VMEPNS_9ExecStateE
5111:__ZN3JSC41genericTypedArrayViewProtoFuncLastIndexOfINS_23JSGenericTypedArrayViewINS_14Float64AdaptorEEEEExRNS_2VMEPNS_9ExecStateE
5112:__ZN3JSC41genericTypedArrayViewProtoFuncLastIndexOfINS_23JSGenericTypedArrayViewINS_14Float32AdaptorEEEEExRNS_2VMEPNS_9ExecStateE
5113:__ZN3JSC41genericTypedArrayViewProtoFuncLastIndexOfINS_23JSGenericTypedArrayViewINS_11Int8AdaptorEEEEExRNS_2VMEPNS_9ExecStateE
5114:__ZN3JSC41genericTypedArrayViewProtoFuncLastIndexOfINS_23JSGenericTypedArrayViewINS_12Uint8AdaptorEEEEExRNS_2VMEPNS_9ExecStateE
5115:__ZN3JSC41genericTypedArrayViewProtoFuncLastIndexOfINS_23JSGenericTypedArrayViewINS_12Int16AdaptorEEEEExRNS_2VMEPNS_9ExecStateE
5116:__ZN3JSC41genericTypedArrayViewProtoFuncLastIndexOfINS_23JSGenericTypedArrayViewINS_13Uint16AdaptorEEEEExRNS_2VMEPNS_9ExecStateE
5117:__ZN3JSC34genericTypedArrayViewProtoFuncJoinINS_23JSGenericTypedArrayViewINS_19Uint8ClampedAdaptorEEEEExRNS_2VMEPNS_9ExecStateE
5118:__ZN3JSC34genericTypedArrayViewProtoFuncJoinINS_23JSGenericTypedArrayViewINS_12Int32AdaptorEEEEExRNS_2VMEPNS_9ExecStateE
5119:__ZN3JSC34genericTypedArrayViewProtoFuncJoinINS_23JSGenericTypedArrayViewINS_13Uint32AdaptorEEEEExRNS_2VMEPNS_9ExecStateE
5120:__ZN3JSC34genericTypedArrayViewProtoFuncJoinINS_23JSGenericTypedArrayViewINS_14Float64AdaptorEEEEExRNS_2VMEPNS_9ExecStateE
5121:__ZN3JSC34genericTypedArrayViewProtoFuncJoinINS_23JSGenericTypedArrayViewINS_14Float32AdaptorEEEEExRNS_2VMEPNS_9ExecStateE
5122:__ZN3JSC34genericTypedArrayViewProtoFuncJoinINS_23JSGenericTypedArrayViewINS_11Int8AdaptorEEEEExRNS_2VMEPNS_9ExecStateE
5123:__ZN3JSC34genericTypedArrayViewProtoFuncJoinINS_23JSGenericTypedArrayViewINS_12Int16AdaptorEEEEExRNS_2VMEPNS_9ExecStateE
5124:__ZN3JSC34genericTypedArrayViewProtoFuncJoinINS_23JSGenericTypedArrayViewINS_13Uint16AdaptorEEEEExRNS_2VMEPNS_9ExecStateE
5125:__ZZN3JSC34genericTypedArrayViewProtoFuncJoinINS_23JSGenericTypedArrayViewINS_13Uint16AdaptorEEEEExRNS_2VMEPNS_9ExecStateEENKUlN3WTF10StringViewEE_clES9_
5126:__ZZN3JSC34genericTypedArrayViewProtoFuncJoinINS_23JSGenericTypedArrayViewINS_12Int16AdaptorEEEEExRNS_2VMEPNS_9ExecStateEENKUlN3WTF10StringViewEE_clES9_
5127:__ZZN3JSC34genericTypedArrayViewProtoFuncJoinINS_23JSGenericTypedArrayViewINS_12Uint8AdaptorEEEEExRNS_2VMEPNS_9ExecStateEENKUlN3WTF10StringViewEE_clES9_
5128:__ZZN3JSC34genericTypedArrayViewProtoFuncJoinINS_23JSGenericTypedArrayViewINS_11Int8AdaptorEEEEExRNS_2VMEPNS_9ExecStateEENKUlN3WTF10StringViewEE_clES9_
5129:__ZZN3JSC34genericTypedArrayViewProtoFuncJoinINS_23JSGenericTypedArrayViewINS_14Float32AdaptorEEEEExRNS_2VMEPNS_9ExecStateEENKUlN3WTF10StringViewEE_clES9_
5130:__ZZN3JSC34genericTypedArrayViewProtoFuncJoinINS_23JSGenericTypedArrayViewINS_14Float64AdaptorEEEEExRNS_2VMEPNS_9ExecStateEENKUlN3WTF10StringViewEE_clES9_
5131:__ZZN3JSC34genericTypedArrayViewProtoFuncJoinINS_23JSGenericTypedArrayViewINS_13Uint32AdaptorEEEEExRNS_2VMEPNS_9ExecStateEENKUlN3WTF10StringViewEE_clES9_
5132:__ZZN3JSC34genericTypedArrayViewProtoFuncJoinINS_23JSGenericTypedArrayViewINS_12Int32AdaptorEEEEExRNS_2VMEPNS_9ExecStateEENKUlN3WTF10StringViewEE_clES9_
5133:__ZN3JSC37genericTypedArrayViewProtoFuncIndexOfINS_23JSGenericTypedArrayViewINS_19Uint8ClampedAdaptorEEEEExRNS_2VMEPNS_9ExecStateE
5134:__ZN3JSC37genericTypedArrayViewProtoFuncIndexOfINS_23JSGenericTypedArrayViewINS_12Int32AdaptorEEEEExRNS_2VMEPNS_9ExecStateE
5135:__ZN3JSC37genericTypedArrayViewProtoFuncIndexOfINS_23JSGenericTypedArrayViewINS_13Uint32AdaptorEEEEExRNS_2VMEPNS_9ExecStateE
5136:__ZN3JSC37genericTypedArrayViewProtoFuncIndexOfINS_23JSGenericTypedArrayViewINS_14Float64AdaptorEEEEExRNS_2VMEPNS_9ExecStateE
5137:__ZN3JSC37genericTypedArrayViewProtoFuncIndexOfINS_23JSGenericTypedArrayViewINS_14Float32AdaptorEEEEExRNS_2VMEPNS_9ExecStateE
5138:__ZN3JSC37genericTypedArrayViewProtoFuncIndexOfINS_23JSGenericTypedArrayViewINS_11Int8AdaptorEEEEExRNS_2VMEPNS_9ExecStateE
5139:__ZN3JSC37genericTypedArrayViewProtoFuncIndexOfINS_23JSGenericTypedArrayViewINS_12Uint8AdaptorEEEEExRNS_2VMEPNS_9ExecStateE
5140:__ZN3JSC37genericTypedArrayViewProtoFuncIndexOfINS_23JSGenericTypedArrayViewINS_12Int16AdaptorEEEEExRNS_2VMEPNS_9ExecStateE
5141:__ZN3JSC37genericTypedArrayViewProtoFuncIndexOfINS_23JSGenericTypedArrayViewINS_13Uint16AdaptorEEEEExRNS_2VMEPNS_9ExecStateE
5142:__ZN3JSC38genericTypedArrayViewProtoFuncIncludesINS_23JSGenericTypedArrayViewINS_19Uint8ClampedAdaptorEEEEExRNS_2VMEPNS_9ExecStateE
5143:__ZN3JSC38genericTypedArrayViewProtoFuncIncludesINS_23JSGenericTypedArrayViewINS_12Int32AdaptorEEEEExRNS_2VMEPNS_9ExecStateE
5144:__ZN3JSC38genericTypedArrayViewProtoFuncIncludesINS_23JSGenericTypedArrayViewINS_13Uint32AdaptorEEEEExRNS_2VMEPNS_9ExecStateE
5145:__ZN3JSC38genericTypedArrayViewProtoFuncIncludesINS_23JSGenericTypedArrayViewINS_14Float64AdaptorEEEEExRNS_2VMEPNS_9ExecStateE
5146:__ZN3JSC38genericTypedArrayViewProtoFuncIncludesINS_23JSGenericTypedArrayViewINS_14Float32AdaptorEEEEExRNS_2VMEPNS_9ExecStateE
5147:__ZN3JSC38genericTypedArrayViewProtoFuncIncludesINS_23JSGenericTypedArrayViewINS_11Int8AdaptorEEEEExRNS_2VMEPNS_9ExecStateE
5148:__ZN3JSC38genericTypedArrayViewProtoFuncIncludesINS_23JSGenericTypedArrayViewINS_12Uint8AdaptorEEEEExRNS_2VMEPNS_9ExecStateE
5149:__ZN3JSC38genericTypedArrayViewProtoFuncIncludesINS_23JSGenericTypedArrayViewINS_12Int16AdaptorEEEEExRNS_2VMEPNS_9ExecStateE
5150:__ZN3JSC38genericTypedArrayViewProtoFuncIncludesINS_23JSGenericTypedArrayViewINS_13Uint16AdaptorEEEEExRNS_2VMEPNS_9ExecStateE
5151:__ZN3JSC40genericTypedArrayViewProtoFuncCopyWithinINS_23JSGenericTypedArrayViewINS_19Uint8ClampedAdaptorEEEEExRNS_2VMEPNS_9ExecStateE
5152:__ZN3JSC40genericTypedArrayViewProtoFuncCopyWithinINS_23JSGenericTypedArrayViewINS_12Int32AdaptorEEEEExRNS_2VMEPNS_9ExecStateE
5153:__ZN3JSC40genericTypedArrayViewProtoFuncCopyWithinINS_23JSGenericTypedArrayViewINS_14Float64AdaptorEEEEExRNS_2VMEPNS_9ExecStateE
5154:__ZN3JSC40genericTypedArrayViewProtoFuncCopyWithinINS_23JSGenericTypedArrayViewINS_12Int16AdaptorEEEEExRNS_2VMEPNS_9ExecStateE
5155:__ZN3JSC25JSTypedArrayViewPrototype6createERNS_2VMEPNS_14JSGlobalObjectEPNS_9StructureE
5156:__ZN3JSC25JSTypedArrayViewPrototype15createStructureERNS_2VMEPNS_14JSGlobalObjectENS_7JSValueE
5157:__ZN3JSC23JSGenericTypedArrayViewINS_11Int8AdaptorEE13visitChildrenEPNS_6JSCellERNS_11SlotVisitorE
5158:__ZN3JSC23JSGenericTypedArrayViewINS_11Int8AdaptorEE3putEPNS_6JSCellEPNS_9ExecStateENS_12PropertyNameENS_7JSValueERNS_15PutPropertySlotE
5159:__ZN3JSC23JSGenericTypedArrayViewINS_11Int8AdaptorEE10putByIndexEPNS_6JSCellEPNS_9ExecStateEjNS_7JSValueEb
5160:__ZN3JSC23JSGenericTypedArrayViewINS_11Int8AdaptorEE14deletePropertyEPNS_6JSCellEPNS_9ExecStateENS_12PropertyNameE
5161:__ZN3JSC23JSGenericTypedArrayViewINS_11Int8AdaptorEE18getOwnPropertySlotEPNS_8JSObjectEPNS_9ExecStateENS_12PropertyNameERNS_12PropertySlotE
5162:__ZN3JSC23JSGenericTypedArrayViewINS_11Int8AdaptorEE25getOwnPropertySlotByIndexEPNS_8JSObjectEPNS_9ExecStateEjRNS_12PropertySlotE
5163:__ZN3JSC23JSGenericTypedArrayViewINS_11Int8AdaptorEE19getOwnPropertyNamesEPNS_8JSObjectEPNS_9ExecStateERNS_17PropertyNameArrayENS_15EnumerationModeE
5164:__ZN3JSC23JSGenericTypedArrayViewINS_11Int8AdaptorEE17defineOwnPropertyEPNS_8JSObjectEPNS_9ExecStateENS_12PropertyNameERKNS_18PropertyDescriptorEb
5165:__ZN3JSC23JSGenericTypedArrayViewINS_11Int8AdaptorEE22slowDownAndWasteMemoryEPNS_17JSArrayBufferViewE
5166:__ZN3JSC23JSGenericTypedArrayViewINS_11Int8AdaptorEE17getTypedArrayImplEPNS_17JSArrayBufferViewE
5167:__ZN3JSC23JSGenericTypedArrayViewINS_11Int8AdaptorEE13estimatedSizeEPNS_6JSCellE
5168:__ZN3JSC23JSGenericTypedArrayViewINS_11Int8AdaptorEE23possiblySharedTypedImplEv
5169:__ZNK3JSC21GenericTypedArrayViewINS_11Int8AdaptorEE10byteLengthEv
5170:__ZN3JSC21GenericTypedArrayViewINS_11Int8AdaptorEE4wrapEPNS_9ExecStateEPNS_14JSGlobalObjectE
5171:__ZN3JSC23JSGenericTypedArrayViewINS_11Int8AdaptorEE6createERNS_2VMEPNS_9StructureEON3WTF6RefPtrINS_21GenericTypedArrayViewIS1_EEEE
5172:__ZN3JSC23JSGenericTypedArrayViewINS_11Int8AdaptorEE32throwNeuteredTypedArrayTypeErrorEPNS_9ExecStateExNS_12PropertyNameE
5173:__ZN3JSC23JSGenericTypedArrayViewINS_12Int16AdaptorEE13visitChildrenEPNS_6JSCellERNS_11SlotVisitorE
5174:__ZN3JSC23JSGenericTypedArrayViewINS_12Int16AdaptorEE3putEPNS_6JSCellEPNS_9ExecStateENS_12PropertyNameENS_7JSValueERNS_15PutPropertySlotE
5175:__ZN3JSC23JSGenericTypedArrayViewINS_12Int16AdaptorEE10putByIndexEPNS_6JSCellEPNS_9ExecStateEjNS_7JSValueEb
5176:__ZN3JSC23JSGenericTypedArrayViewINS_12Int16AdaptorEE18getOwnPropertySlotEPNS_8JSObjectEPNS_9ExecStateENS_12PropertyNameERNS_12PropertySlotE
5177:__ZN3JSC23JSGenericTypedArrayViewINS_12Int16AdaptorEE25getOwnPropertySlotByIndexEPNS_8JSObjectEPNS_9ExecStateEjRNS_12PropertySlotE
5178:__ZN3JSC23JSGenericTypedArrayViewINS_12Int16AdaptorEE17defineOwnPropertyEPNS_8JSObjectEPNS_9ExecStateENS_12PropertyNameERKNS_18PropertyDescriptorEb
5179:__ZN3JSC23JSGenericTypedArrayViewINS_12Int16AdaptorEE22slowDownAndWasteMemoryEPNS_17JSArrayBufferViewE
5180:__ZN3JSC23JSGenericTypedArrayViewINS_12Int16AdaptorEE17getTypedArrayImplEPNS_17JSArrayBufferViewE
5181:__ZN3JSC23JSGenericTypedArrayViewINS_12Int16AdaptorEE13estimatedSizeEPNS_6JSCellE
5182:__ZN3JSC23JSGenericTypedArrayViewINS_12Int16AdaptorEE23possiblySharedTypedImplEv
5183:__ZNK3JSC21GenericTypedArrayViewINS_12Int16AdaptorEE7getTypeEv
5184:__ZNK3JSC21GenericTypedArrayViewINS_12Int16AdaptorEE10byteLengthEv
5185:__ZN3JSC21GenericTypedArrayViewINS_12Int16AdaptorEE4wrapEPNS_9ExecStateEPNS_14JSGlobalObjectE
5186:__ZN3JSC23JSGenericTypedArrayViewINS_12Int32AdaptorEE13visitChildrenEPNS_6JSCellERNS_11SlotVisitorE
5187:__ZN3JSC23JSGenericTypedArrayViewINS_12Int32AdaptorEE3putEPNS_6JSCellEPNS_9ExecStateENS_12PropertyNameENS_7JSValueERNS_15PutPropertySlotE
5188:__ZN3JSC23JSGenericTypedArrayViewINS_12Int32AdaptorEE10putByIndexEPNS_6JSCellEPNS_9ExecStateEjNS_7JSValueEb
5189:__ZN3JSC23JSGenericTypedArrayViewINS_12Int32AdaptorEE18getOwnPropertySlotEPNS_8JSObjectEPNS_9ExecStateENS_12PropertyNameERNS_12PropertySlotE
5190:__ZN3JSC23JSGenericTypedArrayViewINS_12Int32AdaptorEE25getOwnPropertySlotByIndexEPNS_8JSObjectEPNS_9ExecStateEjRNS_12PropertySlotE
5191:__ZN3JSC23JSGenericTypedArrayViewINS_12Int32AdaptorEE17defineOwnPropertyEPNS_8JSObjectEPNS_9ExecStateENS_12PropertyNameERKNS_18PropertyDescriptorEb
5192:__ZN3JSC23JSGenericTypedArrayViewINS_12Int32AdaptorEE22slowDownAndWasteMemoryEPNS_17JSArrayBufferViewE
5193:__ZN3JSC23JSGenericTypedArrayViewINS_12Int32AdaptorEE17getTypedArrayImplEPNS_17JSArrayBufferViewE
5194:__ZN3JSC23JSGenericTypedArrayViewINS_12Int32AdaptorEE13estimatedSizeEPNS_6JSCellE
5195:__ZN3JSC23JSGenericTypedArrayViewINS_12Int32AdaptorEE23possiblySharedTypedImplEv
5196:__ZNK3JSC21GenericTypedArrayViewINS_12Int32AdaptorEE7getTypeEv
5197:__ZNK3JSC21GenericTypedArrayViewINS_12Int32AdaptorEE10byteLengthEv
5198:__ZN3JSC21GenericTypedArrayViewINS_12Int32AdaptorEE4wrapEPNS_9ExecStateEPNS_14JSGlobalObjectE
5199:__ZN3JSC23JSGenericTypedArrayViewINS_12Uint8AdaptorEE18getOwnPropertySlotEPNS_8JSObjectEPNS_9ExecStateENS_12PropertyNameERNS_12PropertySlotE
5200:__ZN3JSC23JSGenericTypedArrayViewINS_12Uint8AdaptorEE25getOwnPropertySlotByIndexEPNS_8JSObjectEPNS_9ExecStateEjRNS_12PropertySlotE
5201:__ZN3JSC23JSGenericTypedArrayViewINS_12Uint8AdaptorEE17getTypedArrayImplEPNS_17JSArrayBufferViewE
5202:__ZN3JSC23JSGenericTypedArrayViewINS_12Uint8AdaptorEE23possiblySharedTypedImplEv
5203:__ZNK3JSC21GenericTypedArrayViewINS_12Uint8AdaptorEE7getTypeEv
5204:__ZN3JSC21GenericTypedArrayViewINS_12Uint8AdaptorEE4wrapEPNS_9ExecStateEPNS_14JSGlobalObjectE
5205:__ZN3JSC23JSGenericTypedArrayViewINS_19Uint8ClampedAdaptorEE3putEPNS_6JSCellEPNS_9ExecStateENS_12PropertyNameENS_7JSValueERNS_15PutPropertySlotE
5206:__ZN3JSC23JSGenericTypedArrayViewINS_19Uint8ClampedAdaptorEE10putByIndexEPNS_6JSCellEPNS_9ExecStateEjNS_7JSValueEb
5207:__ZN3JSC23JSGenericTypedArrayViewINS_19Uint8ClampedAdaptorEE18getOwnPropertySlotEPNS_8JSObjectEPNS_9ExecStateENS_12PropertyNameERNS_12PropertySlotE
5208:__ZN3JSC23JSGenericTypedArrayViewINS_19Uint8ClampedAdaptorEE25getOwnPropertySlotByIndexEPNS_8JSObjectEPNS_9ExecStateEjRNS_12PropertySlotE
5209:__ZN3JSC23JSGenericTypedArrayViewINS_19Uint8ClampedAdaptorEE17defineOwnPropertyEPNS_8JSObjectEPNS_9ExecStateENS_12PropertyNameERKNS_18PropertyDescriptorEb
5210:__ZN3JSC23JSGenericTypedArrayViewINS_19Uint8ClampedAdaptorEE17getTypedArrayImplEPNS_17JSArrayBufferViewE
5211:__ZN3JSC23JSGenericTypedArrayViewINS_19Uint8ClampedAdaptorEE23possiblySharedTypedImplEv
5212:__ZNK3JSC21GenericTypedArrayViewINS_19Uint8ClampedAdaptorEE7getTypeEv
5213:__ZN3JSC21GenericTypedArrayViewINS_19Uint8ClampedAdaptorEE4wrapEPNS_9ExecStateEPNS_14JSGlobalObjectE
5214:__ZN3JSC23JSGenericTypedArrayViewINS_13Uint16AdaptorEE18getOwnPropertySlotEPNS_8JSObjectEPNS_9ExecStateENS_12PropertyNameERNS_12PropertySlotE
5215:__ZN3JSC23JSGenericTypedArrayViewINS_13Uint16AdaptorEE25getOwnPropertySlotByIndexEPNS_8JSObjectEPNS_9ExecStateEjRNS_12PropertySlotE
5216:__ZN3JSC23JSGenericTypedArrayViewINS_13Uint16AdaptorEE17getTypedArrayImplEPNS_17JSArrayBufferViewE
5217:__ZN3JSC23JSGenericTypedArrayViewINS_13Uint16AdaptorEE23possiblySharedTypedImplEv
5218:__ZNK3JSC21GenericTypedArrayViewINS_13Uint16AdaptorEE7getTypeEv
5219:__ZN3JSC21GenericTypedArrayViewINS_13Uint16AdaptorEE4wrapEPNS_9ExecStateEPNS_14JSGlobalObjectE
5220:__ZN3JSC23JSGenericTypedArrayViewINS_13Uint32AdaptorEE18getOwnPropertySlotEPNS_8JSObjectEPNS_9ExecStateENS_12PropertyNameERNS_12PropertySlotE
5221:__ZN3JSC23JSGenericTypedArrayViewINS_13Uint32AdaptorEE25getOwnPropertySlotByIndexEPNS_8JSObjectEPNS_9ExecStateEjRNS_12PropertySlotE
5222:__ZN3JSC23JSGenericTypedArrayViewINS_13Uint32AdaptorEE17getTypedArrayImplEPNS_17JSArrayBufferViewE
5223:__ZN3JSC23JSGenericTypedArrayViewINS_13Uint32AdaptorEE23possiblySharedTypedImplEv
5224:__ZNK3JSC21GenericTypedArrayViewINS_13Uint32AdaptorEE7getTypeEv
5225:__ZN3JSC21GenericTypedArrayViewINS_13Uint32AdaptorEE4wrapEPNS_9ExecStateEPNS_14JSGlobalObjectE
5226:__ZN3JSC23JSGenericTypedArrayViewINS_14Float32AdaptorEE3putEPNS_6JSCellEPNS_9ExecStateENS_12PropertyNameENS_7JSValueERNS_15PutPropertySlotE
5227:__ZN3JSC23JSGenericTypedArrayViewINS_14Float32AdaptorEE10putByIndexEPNS_6JSCellEPNS_9ExecStateEjNS_7JSValueEb
5228:__ZN3JSC23JSGenericTypedArrayViewINS_14Float32AdaptorEE18getOwnPropertySlotEPNS_8JSObjectEPNS_9ExecStateENS_12PropertyNameERNS_12PropertySlotE
5229:__ZN3JSC23JSGenericTypedArrayViewINS_14Float32AdaptorEE25getOwnPropertySlotByIndexEPNS_8JSObjectEPNS_9ExecStateEjRNS_12PropertySlotE
5230:__ZN3JSC23JSGenericTypedArrayViewINS_14Float32AdaptorEE17defineOwnPropertyEPNS_8JSObjectEPNS_9ExecStateENS_12PropertyNameERKNS_18PropertyDescriptorEb
5231:__ZN3JSC23JSGenericTypedArrayViewINS_14Float32AdaptorEE17getTypedArrayImplEPNS_17JSArrayBufferViewE
5232:__ZN3JSC23JSGenericTypedArrayViewINS_14Float32AdaptorEE23possiblySharedTypedImplEv
5233:__ZNK3JSC21GenericTypedArrayViewINS_14Float32AdaptorEE7getTypeEv
5234:__ZN3JSC21GenericTypedArrayViewINS_14Float32AdaptorEE4wrapEPNS_9ExecStateEPNS_14JSGlobalObjectE
5235:__ZN3JSC23JSGenericTypedArrayViewINS_14Float64AdaptorEE13visitChildrenEPNS_6JSCellERNS_11SlotVisitorE
5236:__ZN3JSC23JSGenericTypedArrayViewINS_14Float64AdaptorEE3putEPNS_6JSCellEPNS_9ExecStateENS_12PropertyNameENS_7JSValueERNS_15PutPropertySlotE
5237:__ZN3JSC23JSGenericTypedArrayViewINS_14Float64AdaptorEE10putByIndexEPNS_6JSCellEPNS_9ExecStateEjNS_7JSValueEb
5238:__ZN3JSC23JSGenericTypedArrayViewINS_14Float64AdaptorEE18getOwnPropertySlotEPNS_8JSObjectEPNS_9ExecStateENS_12PropertyNameERNS_12PropertySlotE
5239:__ZN3JSC23JSGenericTypedArrayViewINS_14Float64AdaptorEE25getOwnPropertySlotByIndexEPNS_8JSObjectEPNS_9ExecStateEjRNS_12PropertySlotE
5240:__ZN3JSC23JSGenericTypedArrayViewINS_14Float64AdaptorEE17defineOwnPropertyEPNS_8JSObjectEPNS_9ExecStateENS_12PropertyNameERKNS_18PropertyDescriptorEb
5241:__ZN3JSC23JSGenericTypedArrayViewINS_14Float64AdaptorEE22slowDownAndWasteMemoryEPNS_17JSArrayBufferViewE
5242:__ZN3JSC23JSGenericTypedArrayViewINS_14Float64AdaptorEE17getTypedArrayImplEPNS_17JSArrayBufferViewE
5243:__ZN3JSC23JSGenericTypedArrayViewINS_14Float64AdaptorEE13estimatedSizeEPNS_6JSCellE
5244:__ZN3JSC23JSGenericTypedArrayViewINS_14Float64AdaptorEE23possiblySharedTypedImplEv
5245:__ZNK3JSC21GenericTypedArrayViewINS_14Float64AdaptorEE7getTypeEv
5246:__ZNK3JSC21GenericTypedArrayViewINS_14Float64AdaptorEE10byteLengthEv
5247:__ZN3JSC21GenericTypedArrayViewINS_14Float64AdaptorEE4wrapEPNS_9ExecStateEPNS_14JSGlobalObjectE
5248:__ZN3JSC9JSWeakMap14finishCreationERNS_2VME
5249:__ZN3JSC11JSWithScope6createERNS_2VMEPNS_14JSGlobalObjectEPNS_8JSObjectEPNS_7JSScopeE
5250:__ZN3JSC11JSWithScope15createStructureERNS_2VMEPNS_14JSGlobalObjectENS_7JSValueE
5251:__ZN3JSC15JSWrapperObject13visitChildrenEPNS_6JSCellERNS_11SlotVisitorE
5252:__ZN3JSC18LazyClassStructure11InitializerC2ERNS_2VMEPNS_14JSGlobalObjectERS0_RKNS_12LazyPropertyIS4_NS_9StructureEE11InitializerE
5253:__ZN3JSC18LazyClassStructure11Initializer12setPrototypeEPNS_8JSObjectE
5254:__ZN3JSC18LazyClassStructure11Initializer12setStructureEPNS_9StructureE
5255:__ZN3JSC18LazyClassStructure11Initializer14setConstructorENS_12PropertyNameEPNS_8JSObjectE
5256:__ZN3JSC18LazyClassStructure11Initializer14setConstructorEPNS_8JSObjectE
5257:__ZN3JSC18LazyClassStructure5visitERNS_11SlotVisitorE
5258:__ZN3JSC13LiteralParserIhE5Lexer3lexILNS_10ParserModeE1EEENS_9TokenTypeERNS_18LiteralParserTokenIhEE
5259:__ZN3JSC13LiteralParserIhE5Lexer3lexILNS_10ParserModeE2EEENS_9TokenTypeERNS_18LiteralParserTokenIhEE
5260:__ZN3JSC13LiteralParserIhE5Lexer3lexILNS_10ParserModeE0EEENS_9TokenTypeERNS_18LiteralParserTokenIhEE
5261:__ZN3JSC13LiteralParserIhE5parseENS_11ParserStateE
5262:__ZN3JSC13LiteralParserIhE5Lexer13lexStringSlowILNS_10ParserModeE0ELc34EEENS_9TokenTypeERNS_18LiteralParserTokenIhEEPKh
5263:__ZN3JSC13LiteralParserIhE5Lexer13lexStringSlowILNS_10ParserModeE2ELc34EEENS_9TokenTypeERNS_18LiteralParserTokenIhEEPKh
5264:__ZN3JSC13LiteralParserIhE5Lexer13lexStringSlowILNS_10ParserModeE2ELc39EEENS_9TokenTypeERNS_18LiteralParserTokenIhEEPKh
5265:__ZN3JSC13LiteralParserIhE5Lexer13lexStringSlowILNS_10ParserModeE1ELc34EEENS_9TokenTypeERNS_18LiteralParserTokenIhEEPKh
5266:__ZN3JSC13LiteralParserIhE5Lexer13lexStringSlowILNS_10ParserModeE1ELc39EEENS_9TokenTypeERNS_18LiteralParserTokenIhEEPKh
5267:__ZN3JSC13LiteralParserIhE5Lexer4nextEv
5268:__ZN3JSC13LiteralParserIhE13tryJSONPParseERN3WTF6VectorINS_9JSONPDataELm0ENS2_15CrashOnOverflowELm16EEEb
5269:__ZN3WTF6VectorIN3JSC14JSONPPathEntryELm0ENS_15CrashOnOverflowELm16EE15reserveCapacityEm
5270:__ZN3JSC9JSONPDataC2EOS0_
5271:__ZN3WTF6VectorIN3JSC9JSONPDataELm0ENS_15CrashOnOverflowELm16EE14appendSlowCaseIS2_EEvOT_
5272:__ZN3WTF6VectorIN3JSC9JSONPDataELm0ENS_15CrashOnOverflowELm16EE15reserveCapacityEm
5273:__ZN3JSC13LiteralParserItE5Lexer3lexILNS_10ParserModeE1EEENS_9TokenTypeERNS_18LiteralParserTokenItEE
5274:__ZN3JSC13LiteralParserItE5Lexer3lexILNS_10ParserModeE2EEENS_9TokenTypeERNS_18LiteralParserTokenItEE
5275:__ZN3JSC13LiteralParserItE5Lexer3lexILNS_10ParserModeE0EEENS_9TokenTypeERNS_18LiteralParserTokenItEE
5276:__ZN3JSC13LiteralParserItE5parseENS_11ParserStateE
5277:__ZN3JSC13LiteralParserItE5Lexer13lexStringSlowILNS_10ParserModeE0ELc34EEENS_9TokenTypeERNS_18LiteralParserTokenItEEPKt
5278:__ZN3JSC13LiteralParserItE5Lexer13lexStringSlowILNS_10ParserModeE2ELc34EEENS_9TokenTypeERNS_18LiteralParserTokenItEEPKt
5279:__ZN3JSC13LiteralParserItE5Lexer13lexStringSlowILNS_10ParserModeE2ELc39EEENS_9TokenTypeERNS_18LiteralParserTokenItEEPKt
5280:__ZN3JSC13LiteralParserItE5Lexer13lexStringSlowILNS_10ParserModeE1ELc34EEENS_9TokenTypeERNS_18LiteralParserTokenItEEPKt
5281:__ZN3JSC13LiteralParserItE5Lexer13lexStringSlowILNS_10ParserModeE1ELc39EEENS_9TokenTypeERNS_18LiteralParserTokenItEEPKt
5282:__ZN3JSC13LiteralParserItE5Lexer4nextEv
5283:__ZN3JSC13LiteralParserItE13tryJSONPParseERN3WTF6VectorINS_9JSONPDataELm0ENS2_15CrashOnOverflowELm16EEEb
5284:__ZN3JSC19reifyStaticAccessorERNS_2VMERKNS_14HashTableValueERNS_8JSObjectENS_12PropertyNameE
5285:__ZN3JSC23setUpStaticFunctionSlotERNS_2VMEPKNS_14HashTableValueEPNS_8JSObjectENS_12PropertyNameERNS_12PropertySlotE
5286:__ZN3WTF7dataLogIJA36_cN3JSC12PropertyNameEA30_cEEEvDpRKT_
5287:__ZN3JSC11HashMapImplINS_13HashMapBucketINS_25HashMapBucketDataKeyValueEEEE6rehashEPNS_9ExecStateE
5288:__ZN3JSC7MapBaseINS_13HashMapBucketINS_25HashMapBucketDataKeyValueEEEE13estimatedSizeEPNS_6JSCellE
5289:__ZN3JSC7MapBaseINS_13HashMapBucketINS_20HashMapBucketDataKeyEEEE13estimatedSizeEPNS_6JSCellE
5290:__ZN3JSC14MapConstructor11getCallDataEPNS_6JSCellERNS_8CallDataE
5291:__ZN3JSC14MapConstructor16getConstructDataEPNS_6JSCellERNS_13ConstructDataE
5292:__ZN3JSCL12constructMapEPNS_9ExecStateE
5293:__ZN3JSCL7callMapEPNS_9ExecStateE
5294:__ZN3JSC14MapConstructor14finishCreationERNS_2VMEPNS_12MapPrototypeEPNS_12GetterSetterE
5295:__ZN3JSC20MapIteratorPrototype14finishCreationERNS_2VMEPNS_14JSGlobalObjectE
5296:__ZN3JSCL28MapIteratorPrototypeFuncNextEPNS_9ExecStateE
5297:__ZN3JSC12MapPrototype14finishCreationERNS_2VMEPNS_14JSGlobalObjectE
5298:__ZN3JSCL17mapProtoFuncClearEPNS_9ExecStateE
5299:__ZN3JSCL18mapProtoFuncDeleteEPNS_9ExecStateE
5300:__ZN3JSCL15mapProtoFuncGetEPNS_9ExecStateE
5301:__ZN3JSCL15mapProtoFuncHasEPNS_9ExecStateE
5302:__ZN3JSCL15mapProtoFuncSetEPNS_9ExecStateE
5303:__ZN3JSCL16mapProtoFuncKeysEPNS_9ExecStateE
5304:__ZN3JSCL18mapProtoFuncValuesEPNS_9ExecStateE
5305:__ZN3JSCL19mapProtoFuncEntriesEPNS_9ExecStateE
5306:__ZN3JSCL16mapProtoFuncSizeEPNS_9ExecStateE
5307:__ZN3JSC22privateFuncMapIteratorEPNS_9ExecStateE
5308:__ZN3JSC26privateFuncMapIteratorNextEPNS_9ExecStateE
5309:_jsRound
5310:__ZN3JSC16operationMathPowEdd
5311:__ZN3JSC10MathObject14finishCreationERNS_2VMEPNS_14JSGlobalObjectE
5312:__ZN3JSC16mathProtoFuncAbsEPNS_9ExecStateE
5313:__ZN3JSC17mathProtoFuncACosEPNS_9ExecStateE
5314:__ZN3JSC17mathProtoFuncASinEPNS_9ExecStateE
5315:__ZN3JSC17mathProtoFuncATanEPNS_9ExecStateE
5316:__ZN3JSC18mathProtoFuncACoshEPNS_9ExecStateE
5317:__ZN3JSC18mathProtoFuncASinhEPNS_9ExecStateE
5318:__ZN3JSC18mathProtoFuncATanhEPNS_9ExecStateE
5319:__ZN3JSC18mathProtoFuncATan2EPNS_9ExecStateE
5320:__ZN3JSC17mathProtoFuncCbrtEPNS_9ExecStateE
5321:__ZN3JSC17mathProtoFuncCeilEPNS_9ExecStateE
5322:__ZN3JSC18mathProtoFuncClz32EPNS_9ExecStateE
5323:__ZN3JSC16mathProtoFuncCosEPNS_9ExecStateE
5324:__ZN3JSC17mathProtoFuncCoshEPNS_9ExecStateE
5325:__ZN3JSC16mathProtoFuncExpEPNS_9ExecStateE
5326:__ZN3JSC18mathProtoFuncExpm1EPNS_9ExecStateE
5327:__ZN3JSC18mathProtoFuncFloorEPNS_9ExecStateE
5328:__ZN3JSC19mathProtoFuncFroundEPNS_9ExecStateE
5329:__ZN3JSC18mathProtoFuncHypotEPNS_9ExecStateE
5330:__ZN3JSC16mathProtoFuncLogEPNS_9ExecStateE
5331:__ZN3JSC18mathProtoFuncLog10EPNS_9ExecStateE
5332:__ZN3JSC18mathProtoFuncLog1pEPNS_9ExecStateE
5333:__ZN3JSC17mathProtoFuncLog2EPNS_9ExecStateE
5334:__ZN3JSC16mathProtoFuncMaxEPNS_9ExecStateE
5335:__ZN3JSC16mathProtoFuncMinEPNS_9ExecStateE
5336:__ZN3JSC16mathProtoFuncPowEPNS_9ExecStateE
5337:__ZN3JSC19mathProtoFuncRandomEPNS_9ExecStateE
5338:__ZN3JSC18mathProtoFuncRoundEPNS_9ExecStateE
5339:__ZN3JSC17mathProtoFuncSignEPNS_9ExecStateE
5340:__ZN3JSC16mathProtoFuncSinEPNS_9ExecStateE
5341:__ZN3JSC17mathProtoFuncSinhEPNS_9ExecStateE
5342:__ZN3JSC17mathProtoFuncSqrtEPNS_9ExecStateE
5343:__ZN3JSC16mathProtoFuncTanEPNS_9ExecStateE
5344:__ZN3JSC17mathProtoFuncTanhEPNS_9ExecStateE
5345:__ZN3JSC18mathProtoFuncTruncEPNS_9ExecStateE
5346:__ZN3JSC17mathProtoFuncIMulEPNS_9ExecStateE
5347:__ZN3JSCL51moduleLoaderPrototypeModuleDeclarationInstantiationEPNS_9ExecStateE
5348:__ZN3JSCL29moduleLoaderPrototypeEvaluateEPNS_9ExecStateE
5349:__ZN3JSCL45moduleLoaderPrototypeGetModuleNamespaceObjectEPNS_9ExecStateE
5350:__ZN3JSCL32moduleLoaderPrototypeParseModuleEPNS_9ExecStateE
5351:__ZN3JSCL37moduleLoaderPrototypeRequestedModulesEPNS_9ExecStateE
5352:__ZN3JSCL28moduleLoaderPrototypeResolveEPNS_9ExecStateE
5353:__ZN3JSCL26moduleLoaderPrototypeFetchEPNS_9ExecStateE
5354:__ZN3JSCL32moduleLoaderPrototypeInstantiateEPNS_9ExecStateE
5355:__ZN3JSC23ModuleProgramExecutable13visitChildrenEPNS_6JSCellERNS_11SlotVisitorE
5356:__ZN3JSC23ModuleProgramExecutableC2EPNS_9ExecStateERKNS_10SourceCodeE
5357:__ZN3JSC23ModuleProgramExecutable6createEPNS_9ExecStateERKNS_10SourceCodeE
5358:__ZN3JSC22NativeErrorConstructor13visitChildrenEPNS_6JSCellERNS_11SlotVisitorE
5359:__ZN3JSC22NativeErrorConstructor11getCallDataEPNS_6JSCellERNS_8CallDataE
5360:__ZN3JSC22NativeErrorConstructor16getConstructDataEPNS_6JSCellERNS_13ConstructDataE
5361:__ZN3JSC11Interpreter35constructWithNativeErrorConstructorEPNS_9ExecStateE
5362:__ZN3JSC11Interpreter26callNativeErrorConstructorEPNS_9ExecStateE
5363:__ZN3JSC22NativeErrorConstructorC2ERNS_2VMEPNS_9StructureE
5364:__ZN3JSC22NativeErrorConstructor14finishCreationERNS_2VMEPNS_14JSGlobalObjectEPNS_9StructureERKN3WTF6StringE
5365:__ZN3JSC20NativeErrorPrototype14finishCreationERNS_2VMERKN3WTF6StringEPNS_22NativeErrorConstructorE
5366:__ZN3JSC16NativeExecutable7destroyEPNS_6JSCellE
5367:__ZN3JSC16NativeExecutable6createERNS_2VMEON3WTF3RefINS_7JITCodeEEEPFxPNS_9ExecStateEES7_SB_NS_9IntrinsicEPKNS_6DOMJIT9SignatureERKNS3_6StringE
5368:__ZN3JSC16NativeExecutable14finishCreationERNS_2VMEON3WTF3RefINS_7JITCodeEEES7_RKNS3_6StringE
5369:__ZN3JSC16NativeExecutable15createStructureERNS_2VMEPNS_14JSGlobalObjectENS_7JSValueE
5370:__ZN3JSC21NativeStdFunctionCell7destroyEPNS_6JSCellE
5371:__ZN3JSC21NativeStdFunctionCell6createERNS_2VMEONSt3__28functionIFxPNS_9ExecStateEEEE
5372:__ZN3JSC18NullGetterFunction11getCallDataEPNS_6JSCellERNS_8CallDataE
5373:__ZN3JSC18NullSetterFunction11getCallDataEPNS_6JSCellERNS_8CallDataE
5374:__ZN3JSCL19callReturnUndefinedEPNS_9ExecStateE_7256
5375:__ZN3JSC17NumberConstructor11getCallDataEPNS_6JSCellERNS_8CallDataE
5376:__ZN3JSC17NumberConstructor16getConstructDataEPNS_6JSCellERNS_13ConstructDataE
5377:__ZN3JSCL30constructWithNumberConstructorEPNS_9ExecStateE
5378:__ZN3JSCL21callNumberConstructorEPNS_9ExecStateE
5379:__ZN3JSCL30numberConstructorFuncIsIntegerEPNS_9ExecStateE
5380:__ZN3JSCL34numberConstructorFuncIsSafeIntegerEPNS_9ExecStateE
5381:__ZN3JSC17NumberConstructor14finishCreationERNS_2VMEPNS_15NumberPrototypeE
5382:__ZN3JSC15constructNumberEPNS_9ExecStateEPNS_14JSGlobalObjectENS_7JSValueE
5383:i64u-div
5384:__ZN3JSCL23numberProtoFuncToStringEPNS_9ExecStateE
5385:__ZN3JSCL29numberProtoFuncToLocaleStringEPNS_9ExecStateE
5386:__ZN3JSC22numberProtoFuncValueOfEPNS_9ExecStateE
5387:__ZN3JSCL22numberProtoFuncToFixedEPNS_9ExecStateE
5388:__ZN3JSCL28numberProtoFuncToExponentialEPNS_9ExecStateE
5389:__ZN3JSCL26numberProtoFuncToPrecisionEPNS_9ExecStateE
5390:__ZN3JSC18Uint16WithFractionC2Edt
5391:__ZN3JSC18Uint16WithFractionmLEt
5392:__ZN3JSC10BigIntegerC2Ed
5393:__ZN3WTF6VectorIjLm36ENS_15CrashOnOverflowELm16EE14appendSlowCaseIiEEvOT_
5394:__ZN3WTF6VectorIjLm36ENS_15CrashOnOverflowELm16EE14expandCapacityEmPj
5395:__ZN3JSC17ObjectConstructor11getCallDataEPNS_6JSCellERNS_8CallDataE
5396:__ZN3JSC17ObjectConstructor16getConstructDataEPNS_6JSCellERNS_13ConstructDataE
5397:__ZN3JSCL30constructWithObjectConstructorEPNS_9ExecStateE
5398:__ZN3JSCL21callObjectConstructorEPNS_9ExecStateE
5399:__ZN3JSC31objectConstructorGetPrototypeOfEPNS_9ExecStateE
5400:__ZN3JSC31objectConstructorSetPrototypeOfEPNS_9ExecStateE
5401:__ZN3JSC41objectConstructorGetOwnPropertyDescriptorEPNS_9ExecStateE
5402:__ZN3JSC42objectConstructorGetOwnPropertyDescriptorsEPNS_9ExecStateE
5403:__ZN3JSC36objectConstructorGetOwnPropertyNamesEPNS_9ExecStateE
5404:__ZN3JSC38objectConstructorGetOwnPropertySymbolsEPNS_9ExecStateE
5405:__ZN3JSC21objectConstructorKeysEPNS_9ExecStateE
5406:__ZN3JSC31objectConstructorDefinePropertyEPNS_9ExecStateE
5407:__ZN3JSC33objectConstructorDefinePropertiesEPNS_9ExecStateE
5408:__ZN3JSC23objectConstructorCreateEPNS_9ExecStateE
5409:__ZN3JSC21objectConstructorSealEPNS_9ExecStateE
5410:__ZN3JSC23objectConstructorFreezeEPNS_9ExecStateE
5411:__ZN3JSC34objectConstructorPreventExtensionsEPNS_9ExecStateE
5412:__ZN3JSC25objectConstructorIsSealedEPNS_9ExecStateE
5413:__ZN3JSC25objectConstructorIsFrozenEPNS_9ExecStateE
5414:__ZN3JSC29objectConstructorIsExtensibleEPNS_9ExecStateE
5415:__ZN3JSC19objectConstructorIsEPNS_9ExecStateE
5416:__ZN3JSC18testIntegrityLevelILNS_14IntegrityLevelE1EEEbPNS_9ExecStateERNS_2VMEPNS_8JSObjectE
5417:__ZN3JSC18testIntegrityLevelILNS_14IntegrityLevelE0EEEbPNS_9ExecStateERNS_2VMEPNS_8JSObjectE
5418:__ZN3JSC17setIntegrityLevelILNS_14IntegrityLevelE1EEEbPNS_9ExecStateERNS_2VMEPNS_8JSObjectE
5419:__ZN3JSC17setIntegrityLevelILNS_14IntegrityLevelE0EEEbPNS_9ExecStateERNS_2VMEPNS_8JSObjectE
5420:__ZN3JSCL16definePropertiesEPNS_9ExecStateEPNS_8JSObjectES3_
5421:__ZN3JSC20toPropertyDescriptorEPNS_9ExecStateENS_7JSValueERNS_18PropertyDescriptorE
5422:__ZN3JSC15ownPropertyKeysEPNS_9ExecStateEPNS_8JSObjectENS_16PropertyNameModeENS_22DontEnumPropertiesModeE
5423:__ZN3JSC42objectConstructorGetOwnPropertyDescriptorsEPNS_9ExecStateEPNS_8JSObjectE
5424:__ZN3JSC37constructObjectFromPropertyDescriptorEPNS_9ExecStateERKNS_18PropertyDescriptorE
5425:__ZN3JSC8JSObject28putOwnDataPropertyMayBeIndexEPNS_9ExecStateENS_12PropertyNameENS_7JSValueERNS_15PutPropertySlotE
5426:__ZN3JSC17ObjectConstructor14finishCreationERNS_2VMEPNS_14JSGlobalObjectEPNS_15ObjectPrototypeE
5427:__ZN3JSC41objectConstructorGetOwnPropertyDescriptorEPNS_9ExecStateEPNS_8JSObjectERKNS_10IdentifierE
5428:__ZN3JSC25ownEnumerablePropertyKeysEPNS_9ExecStateE
5429:__ZN3JSC23objectConstructorFreezeEPNS_9ExecStateEPNS_8JSObjectE
5430:__ZN3JSC15ObjectPrototype14finishCreationERNS_2VMEPNS_14JSGlobalObjectE
5431:__ZN3JSC23objectProtoFuncToStringEPNS_9ExecStateE
5432:__ZN3JSCL29objectProtoFuncToLocaleStringEPNS_9ExecStateE
5433:__ZN3JSCL22objectProtoFuncValueOfEPNS_9ExecStateE
5434:__ZN3JSCL29objectProtoFuncHasOwnPropertyEPNS_9ExecStateE
5435:__ZN3JSCL35objectProtoFuncPropertyIsEnumerableEPNS_9ExecStateE
5436:__ZN3JSCL28objectProtoFuncIsPrototypeOfEPNS_9ExecStateE
5437:__ZN3JSCL27objectProtoFuncDefineGetterEPNS_9ExecStateE
5438:__ZN3JSCL27objectProtoFuncDefineSetterEPNS_9ExecStateE
5439:__ZN3JSCL27objectProtoFuncLookupGetterEPNS_9ExecStateE
5440:__ZN3JSCL27objectProtoFuncLookupSetterEPNS_9ExecStateE
5441:__ZN3JSC12JSRopeString11RopeBuilder6appendEPNS_8JSStringE
5442:__ZN3JSC15ObjectPrototype6createERNS_2VMEPNS_14JSGlobalObjectEPNS_9StructureE
5443:__ZN3JSC7JSValue13equalSlowCaseEPNS_9ExecStateES0_S0_
5444:__ZN3JSC13jsAddSlowCaseEPNS_9ExecStateENS_7JSValueES2_
5445:__ZN3JSC20jsTypeStringForValueERNS_2VMEPNS_14JSGlobalObjectENS_7JSValueE
5446:__ZN3JSC20jsTypeStringForValueEPNS_9ExecStateENS_7JSValueE
5447:__ZN3JSC20jsIsObjectTypeOrNullEPNS_9ExecStateENS_7JSValueE
5448:__ZN3JSC16jsIsFunctionTypeENS_7JSValueE
5449:__ZN3JSC23normalizePrototypeChainEPNS_9ExecStateEPNS_9StructureE
5450:__ZN3JSC7Options23enableRestrictedOptionsEb
5451:__ZN3JSC7Options34overrideAliasedOptionWithHeuristicEPKc
5452:__ZNK3WTF12StringAppendINS0_INS_6StringEPKcEES3_EcvS1_Ev
5453:__ZN3JSC7Options21setOptionWithoutAliasEPKc
5454:__ZN3JSC7Options16setAliasedOptionEPKc
5455:__ZN3JSCL5parseEPKcRb
5456:__ZN3JSCL25recomputeDependentOptionsEv
5457:__ZN3JSCL5parseEPKcRNS_9GCLogging5LevelE
5458:__ZNK3JSC6OptioneqERKS0_
5459:__ZN3WTF25tryMakeStringFromAdaptersINS_17StringTypeAdapterINS_12StringAppendINS_6StringEPKcEEEEJNS1_IS5_EEEEES3_T_DpT0_
5460:__ZN3JSC7Options10initializeEv
5461:__ZNSt3__217__call_once_proxyINS_5tupleIJOZN3JSC7Options10initializeEvE3__0EEEEEvPv
5462:__ZZN3JSC7Options10initializeEvENK3__0clEv
5463:__ZN3JSC27overrideOptionWithHeuristicINS_11OptionRangeEEEbRT_NS_7Options2IDEPKcNS4_12AvailabilityE
5464:__ZN3JSC7Options19dumpOptionsIfNeededEv
5465:__ZN3WTF7dataLogIJA69_cEEEvDpRKT_
5466:__ZN3JSC7Options14dumpAllOptionsERN3WTF13StringBuilderENS0_9DumpLevelEPKcS6_S6_S6_NS0_18DumpDefaultsOptionE
5467:__ZN3JSC7Options10dumpOptionERN3WTF13StringBuilderENS0_9DumpLevelENS0_2IDEPKcS7_NS0_18DumpDefaultsOptionE
5468:__ZNK3JSC6Option4dumpERN3WTF13StringBuilderE
5469:__ZN3JSC7Options24ensureOptionsAreCoherentEv
5470:__ZN3JSC7Options14dumpAllOptionsEP8_IO_FILENS0_9DumpLevelEPKc
5471:__ZN3JSC17ProgramExecutable13visitChildrenEPNS_6JSCellERNS_11SlotVisitorE
5472:__ZN3JSC17ProgramExecutableC2EPNS_9ExecStateERKNS_10SourceCodeE
5473:__ZN3JSC17ProgramExecutable11checkSyntaxEPNS_9ExecStateE
5474:__ZN3JSC17ProgramExecutable26initializeGlobalPropertiesERNS_2VMEPNS_9ExecStateEPNS_7JSScopeE
5475:__ZN3JSC20PromiseDeferredTimerD2Ev
5476:__ZN3JSC20PromiseDeferredTimerD0Ev
5477:__ZN3JSC20PromiseDeferredTimer6doWorkEv
5478:__ZN3WTF6VectorINSt3__25tupleIJPN3JSC17JSPromiseDeferredENS1_8functionIFvvEEEEEELm0ENS_15CrashOnOverflowELm16EE8takeLastEv
5479:__ZN3WTF9HashTableIPN3JSC17JSPromiseDeferredENS_12KeyValuePairIS3_NS_6VectorINS1_6StrongINS1_6JSCellEEELm0ENS_15CrashOnOverflowELm16EEEEENS_24KeyValuePairKeyExtractorISB_EENS_7PtrHashIS3_EENS_7HashMapIS3_SA_SF_NS_10HashTraitsIS3_EENSH_ISA_EEE18KeyValuePairTraitsESI_E15deallocateTableEPSB_j
5480:__ZN3JSC20PromiseDeferredTimerC2ERNS_2VME
5481:__ZN3JSC20PromiseDeferredTimer10runRunLoopEv
5482:__ZN3WTF9HashTableIPN3JSC17JSPromiseDeferredENS_12KeyValuePairIS3_NS_6VectorINS1_6StrongINS1_6JSCellEEELm0ENS_15CrashOnOverflowELm16EEEEENS_24KeyValuePairKeyExtractorISB_EENS_7PtrHashIS3_EENS_7HashMapIS3_SA_SF_NS_10HashTraitsIS3_EENSH_ISA_EEE18KeyValuePairTraitsESI_E6rehashEjPSB_
5483:__ZN3WTF9HashTableIPN3JSC17JSPromiseDeferredENS_12KeyValuePairIS3_NS_6VectorINS1_6StrongINS1_6JSCellEEELm0ENS_15CrashOnOverflowELm16EEEEENS_24KeyValuePairKeyExtractorISB_EENS_7PtrHashIS3_EENS_7HashMapIS3_SA_SF_NS_10HashTraitsIS3_EENSH_ISA_EEE18KeyValuePairTraitsESI_E8reinsertEOSB_
5484:__ZN3JSC20PromiseDeferredTimer20cancelPendingPromiseEPNS_17JSPromiseDeferredE
5485:__ZN3WTF7HashMapIPN3JSC17JSPromiseDeferredENS_6VectorINS1_6StrongINS1_6JSCellEEELm0ENS_15CrashOnOverflowELm16EEENS_7PtrHashIS3_EENS_10HashTraitsIS3_EENSC_IS9_EEE6removeERKS3_
5486:__ZN3WTF7HashMapIPN3JSC17JSPromiseDeferredENS_6VectorINS1_6StrongINS1_6JSCellEEELm0ENS_15CrashOnOverflowELm16EEENS_7PtrHashIS3_EENS_10HashTraitsIS3_EENSC_IS9_EEE6removeENS_24HashTableIteratorAdapterINS_9HashTableIS3_NS_12KeyValuePairIS3_S9_EENS_24KeyValuePairKeyExtractorISJ_EESB_NSF_18KeyValuePairTraitsESD_EESJ_EE
5487:__ZNK3JSC18PropertyDescriptor8writableEv
5488:__ZNK3JSC18PropertyDescriptor10enumerableEv
5489:__ZNK3JSC18PropertyDescriptor12configurableEv
5490:__ZNK3JSC18PropertyDescriptor16isDataDescriptorEv
5491:__ZNK3JSC18PropertyDescriptor19isGenericDescriptorEv
5492:__ZNK3JSC18PropertyDescriptor20isAccessorDescriptorEv
5493:__ZN3JSC18PropertyDescriptor16slowGetterSetterEPNS_9ExecStateE
5494:__ZNK3JSC18PropertyDescriptor6getterEv
5495:__ZNK3JSC18PropertyDescriptor6setterEv
5496:__ZNK3JSC18PropertyDescriptor12getterObjectEv
5497:__ZNK3JSC18PropertyDescriptor12setterObjectEv
5498:__ZN3JSC18PropertyDescriptor13setDescriptorENS_7JSValueEj
5499:__ZN3JSC18PropertyDescriptor19setCustomDescriptorEj
5500:__ZN3JSC18PropertyDescriptor9setGetterENS_7JSValueE
5501:__ZN3JSC18PropertyDescriptor9setSetterENS_7JSValueE
5502:__ZN3JSC18PropertyDescriptor21setAccessorDescriptorEPNS_12GetterSetterEj
5503:__ZN3JSC18PropertyDescriptor11setWritableEb
5504:__ZN3JSC18PropertyDescriptor13setEnumerableEb
5505:__ZN3JSC18PropertyDescriptor15setConfigurableEb
5506:__ZNK3JSC18PropertyDescriptor7equalToEPNS_9ExecStateERKS0_
5507:__ZNK3JSC18PropertyDescriptor15attributesEqualERKS0_
5508:__ZNK3JSC18PropertyDescriptor27attributesOverridingCurrentERKS0_
5509:__ZNK3JSC12PropertySlot14functionGetterEPNS_9ExecStateE
5510:__ZNK3JSC12PropertySlot12customGetterEPNS_9ExecStateENS_12PropertyNameE
5511:__ZNK3JSC12PropertySlot20customAccessorGetterEPNS_9ExecStateENS_12PropertyNameE
5512:__ZNK3JSC12PropertySlot13getPureResultEv
5513:__ZN3JSC13PropertyTable7destroyEPNS_6JSCellE
5514:__ZN3JSC13PropertyTableD2Ev
5515:__ZN3JSC13PropertyTable6createERNS_2VMEj
5516:__ZN3JSC13PropertyTable5cloneERNS_2VMERKS0_
5517:__ZN3JSC13PropertyTableC2ERNS_2VMERKS0_
5518:__ZN3JSC13PropertyTable5cloneERNS_2VMEjRKS0_
5519:__ZN3JSC13PropertyTableC2ERNS_2VMEjRKS0_
5520:__ZN3JSC12PrototypeMap12addPrototypeEPNS_8JSObjectE
5521:__ZN3WTF7HashMapIPN3JSC8JSObjectENS1_4WeakIS2_EENS_7PtrHashIS3_EENS_10HashTraitsIS3_EENS8_IS5_EEE9inlineSetIRKS3_S5_EENS_18HashTableAddResultINS_17HashTableIteratorIS3_NS_12KeyValuePairIS3_S5_EENS_24KeyValuePairKeyExtractorISI_EES7_NSB_18KeyValuePairTraitsES9_EEEEOT_OT0_
5522:__ZN3WTF9HashTableIPN3JSC8JSObjectENS_12KeyValuePairIS3_NS1_4WeakIS2_EEEENS_24KeyValuePairKeyExtractorIS7_EENS_7PtrHashIS3_EENS_7HashMapIS3_S6_SB_NS_10HashTraitsIS3_EENSD_IS6_EEE18KeyValuePairTraitsESE_E6rehashEjPS7_
5523:__ZN3JSC12PrototypeMap43emptyStructureForPrototypeFromBaseStructureEPNS_14JSGlobalObjectEPNS_8JSObjectEPNS_9StructureE
5524:__ZN3JSC12PrototypeMap20createEmptyStructureEPNS_14JSGlobalObjectEPNS_8JSObjectERKNS_8TypeInfoEPKNS_9ClassInfoEhj
5525:__ZN3WTF9HashTableINSt3__25tupleIJPN3JSC8JSObjectEjPKNS3_9ClassInfoEPNS3_14JSGlobalObjectEEEENS_12KeyValuePairISB_NS3_4WeakINS3_9StructureEEEEENS_24KeyValuePairKeyExtractorISG_EENS_9TupleHashIJS5_jS8_SA_EEENS_7HashMapISB_SF_SK_NS_10HashTraitsISB_EENSM_ISF_EEE18KeyValuePairTraitsESN_E6lookupINS_22IdentityHashTranslatorISQ_SK_EESB_EEPSG_RKT0_
5526:__ZN3WTF7HashMapINSt3__25tupleIJPN3JSC8JSObjectEjPKNS3_9ClassInfoEPNS3_14JSGlobalObjectEEEENS3_4WeakINS3_9StructureEEENS_9TupleHashIJS5_jS8_SA_EEENS_10HashTraitsISB_EENSH_ISE_EEE9inlineSetIRKSB_SE_EENS_18HashTableAddResultINS_17HashTableIteratorISB_NS_12KeyValuePairISB_SE_EENS_24KeyValuePairKeyExtractorISR_EESG_NSK_18KeyValuePairTraitsESI_EEEEOT_OT0_
5527:__ZN3WTF9HashTableINSt3__25tupleIJPN3JSC8JSObjectEjPKNS3_9ClassInfoEPNS3_14JSGlobalObjectEEEENS_12KeyValuePairISB_NS3_4WeakINS3_9StructureEEEEENS_24KeyValuePairKeyExtractorISG_EENS_9TupleHashIJS5_jS8_SA_EEENS_7HashMapISB_SF_SK_NS_10HashTraitsISB_EENSM_ISF_EEE18KeyValuePairTraitsESN_E6rehashEjPSG_
5528:__ZN3WTF9HashTableINSt3__25tupleIJPN3JSC8JSObjectEjPKNS3_9ClassInfoEPNS3_14JSGlobalObjectEEEENS_12KeyValuePairISB_NS3_4WeakINS3_9StructureEEEEENS_24KeyValuePairKeyExtractorISG_EENS_9TupleHashIJS5_jS8_SA_EEENS_7HashMapISB_SF_SK_NS_10HashTraitsISB_EENSM_ISF_EEE18KeyValuePairTraitsESN_E16lookupForWritingINS_22IdentityHashTranslatorISQ_SK_EESB_EENS1_4pairIPSG_bEERKT0_
5529:__ZN3JSC12PrototypeMap32emptyObjectStructureForPrototypeEPNS_14JSGlobalObjectEPNS_8JSObjectEj
5530:__ZN3JSC16ProxyConstructor11getCallDataEPNS_6JSCellERNS_8CallDataE
5531:__ZN3JSC16ProxyConstructor16getConstructDataEPNS_6JSCellERNS_13ConstructDataE
5532:__ZN3JSCL20constructProxyObjectEPNS_9ExecStateE
5533:__ZN3JSCL9callProxyEPNS_9ExecStateE
5534:__ZN3JSC16ProxyConstructor6createERNS_2VMEPNS_9StructureE
5535:__ZN3JSC16ProxyConstructor14finishCreationERNS_2VMEPKcPNS_14JSGlobalObjectE
5536:__ZN3JSCL18makeRevocableProxyEPNS_9ExecStateE
5537:__ZN3JSCL35proxyRevocableConstructorThrowErrorEPNS_9ExecStateE
5538:__ZN3JSC11ProxyObject13visitChildrenEPNS_6JSCellERNS_11SlotVisitorE
5539:__ZN3JSC11ProxyObject11getCallDataEPNS_6JSCellERNS_8CallDataE
5540:__ZN3JSC11ProxyObject16getConstructDataEPNS_6JSCellERNS_13ConstructDataE
5541:__ZN3JSC11ProxyObject3putEPNS_6JSCellEPNS_9ExecStateENS_12PropertyNameENS_7JSValueERNS_15PutPropertySlotE
